081111 073331 23775 INFO dfs.DataNode$DataXceiver: Receiving block blk_4260393861082877150 src: /10.251.199.245:37228 dest: /10.251.199.245:50010
081111 073331 26 INFO dfs.FSNamesystem: BLOCK* NameSystem.addStoredBlock: blockMap updated: 10.251.27.63:50010 is added to blk_1091291399659730194 size 67108864
081111 073331 26 INFO dfs.FSNamesystem: BLOCK* NameSystem.addStoredBlock: blockMap updated: 10.251.30.85:50010 is added to blk_4604046853930700491 size 67108864
081111 073331 27 INFO dfs.FSNamesystem: BLOCK* NameSystem.addStoredBlock: blockMap updated: 10.251.126.227:50010 is added to blk_1091291399659730194 size 67108864
081111 073331 27 INFO dfs.FSNamesystem: BLOCK* NameSystem.addStoredBlock: blockMap updated: 10.251.27.63:50010 is added to blk_-3599228698070834482 size 67108864
081111 073331 27 INFO dfs.FSNamesystem: BLOCK* NameSystem.allocateBlock: /user/root/rand6/_temporary/_task_200811101024_0013_m_001158_0/part-01158. blk_-8245518283154175873
081111 073331 28 INFO dfs.FSNamesystem: BLOCK* NameSystem.addStoredBlock: blockMap updated: 10.250.19.227:50010 is added to blk_3080072908013591591 size 67108864
081111 073331 28 INFO dfs.FSNamesystem: BLOCK* NameSystem.addStoredBlock: blockMap updated: 10.251.203.149:50010 is added to blk_2735304318871558784 size 3550144
081111 073331 28 INFO dfs.FSNamesystem: BLOCK* NameSystem.addStoredBlock: blockMap updated: 10.251.31.85:50010 is added to blk_-8590935419526470453 size 67108864
081111 073331 28 INFO dfs.FSNamesystem: BLOCK* NameSystem.addStoredBlock: blockMap updated: 10.251.39.192:50010 is added to blk_1091291399659730194 size 67108864
081111 073331 28 INFO dfs.FSNamesystem: BLOCK* NameSystem.addStoredBlock: blockMap updated: 10.251.42.207:50010 is added to blk_1599772080501794754 size 67108864
081111 073331 28 INFO dfs.FSNamesystem: BLOCK* NameSystem.allocateBlock: /user/root/rand6/_temporary/_task_200811101024_0013_m_001218_0/part-01218. blk_4260393861082877150
081111 073331 28 INFO dfs.FSNamesystem: BLOCK* NameSystem.allocateBlock: /user/root/rand6/_temporary/_task_200811101024_0013_m_001315_0/part-01315. blk_7949248293345461197
081111 073331 29 INFO dfs.FSNamesystem: BLOCK* NameSystem.addStoredBlock: blockMap updated: 10.251.107.98:50010 is added to blk_5792050247888588909 size 67108864
081111 073331 29 INFO dfs.FSNamesystem: BLOCK* NameSystem.addStoredBlock: blockMap updated: 10.251.111.228:50010 is added to blk_-684241799776378123 size 67108864
081111 073331 29 INFO dfs.FSNamesystem: BLOCK* NameSystem.addStoredBlock: blockMap updated: 10.251.123.195:50010 is added to blk_1126053005866183382 size 67108864
081111 073331 29 INFO dfs.FSNamesystem: BLOCK* NameSystem.addStoredBlock: blockMap updated: 10.251.214.112:50010 is added to blk_1599772080501794754 size 67108864
081111 073331 29 INFO dfs.FSNamesystem: BLOCK* NameSystem.addStoredBlock: blockMap updated: 10.251.39.64:50010 is added to blk_4604046853930700491 size 67108864
081111 073331 29 INFO dfs.FSNamesystem: BLOCK* NameSystem.allocateBlock: /user/root/rand6/_temporary/_task_200811101024_0013_m_001470_0/part-01470. blk_-559980931049180521
081111 073331 30 INFO dfs.FSNamesystem: BLOCK* NameSystem.addStoredBlock: blockMap updated: 10.250.10.213:50010 is added to blk_4202035031908947583 size 67108864
081111 073331 30 INFO dfs.FSNamesystem: BLOCK* NameSystem.addStoredBlock: blockMap updated: 10.251.43.115:50010 is added to blk_-5549252802999890019 size 67108864
081111 073331 30 INFO dfs.FSNamesystem: BLOCK* NameSystem.allocateBlock: /user/root/rand6/_temporary/_task_200811101024_0013_m_001538_0/part-01538. blk_9039661373708692031
081111 073331 31 INFO dfs.FSNamesystem: BLOCK* NameSystem.addStoredBlock: blockMap updated: 10.251.197.226:50010 is added to blk_2735304318871558784 size 3550144
081111 073331 31 INFO dfs.FSNamesystem: BLOCK* NameSystem.addStoredBlock: blockMap updated: 10.251.67.225:50010 is added to blk_-5549252802999890019 size 67108864
081111 073331 31 INFO dfs.FSNamesystem: BLOCK* NameSystem.allocateBlock: /user/root/rand6/_temporary/_task_200811101024_0013_m_001286_0/part-01286. blk_1935752019373036651
081111 073331 32 INFO dfs.FSNamesystem: BLOCK* NameSystem.addStoredBlock: blockMap updated: 10.250.14.143:50010 is added to blk_-684241799776378123 size 67108864
081111 073331 32 INFO dfs.FSNamesystem: BLOCK* NameSystem.addStoredBlock: blockMap updated: 10.251.110.196:50010 is added to blk_3080072908013591591 size 67108864
081111 073331 32 INFO dfs.FSNamesystem: BLOCK* NameSystem.addStoredBlock: blockMap updated: 10.251.122.38:50010 is added to blk_-5549252802999890019 size 67108864
081111 073331 32 INFO dfs.FSNamesystem: BLOCK* NameSystem.addStoredBlock: blockMap updated: 10.251.199.245:50010 is added to blk_1126053005866183382 size 67108864
081111 073331 33 INFO dfs.FSNamesystem: BLOCK* NameSystem.addStoredBlock: blockMap updated: 10.251.39.179:50010 is added to blk_1126053005866183382 size 67108864
081111 073331 33 INFO dfs.FSNamesystem: BLOCK* NameSystem.allocateBlock: /user/root/rand6/_temporary/_task_200811101024_0013_m_001214_0/part-01214. blk_-7741220148458303826
081111 073331 34 INFO dfs.FSNamesystem: BLOCK* NameSystem.addStoredBlock: blockMap updated: 10.250.10.176:50010 is added to blk_5792050247888588909 size 67108864
081111 073331 34 INFO dfs.FSNamesystem: BLOCK* NameSystem.addStoredBlock: blockMap updated: 10.250.10.6:50010 is added to blk_4604046853930700491 size 67108864
081111 073331 34 INFO dfs.FSNamesystem: BLOCK* NameSystem.addStoredBlock: blockMap updated: 10.251.123.1:50010 is added to blk_-684241799776378123 size 67108864
081111 073331 34 INFO dfs.FSNamesystem: BLOCK* NameSystem.addStoredBlock: blockMap updated: 10.251.123.195:50010 is added to blk_2735304318871558784 size 3550144
081111 073331 34 INFO dfs.FSNamesystem: BLOCK* NameSystem.addStoredBlock: blockMap updated: 10.251.66.192:50010 is added to blk_1599772080501794754 size 67108864
081111 073331 34 INFO dfs.FSNamesystem: BLOCK* NameSystem.addStoredBlock: blockMap updated: 10.251.71.193:50010 is added to blk_5792050247888588909 size 67108864
081111 073331 34 INFO dfs.FSNamesystem: BLOCK* NameSystem.allocateBlock: /user/root/rand6/_temporary/_task_200811101024_0013_m_001290_0/part-01290. blk_966528670482980248
081111 073331 34 INFO dfs.FSNamesystem: BLOCK* NameSystem.allocateBlock: /user/root/rand6/_temporary/_task_200811101024_0013_m_001508_0/part-01508. blk_-520194501344499706
081111 073331 35 INFO dfs.FSNamesystem: BLOCK* NameSystem.addStoredBlock: blockMap updated: 10.250.7.244:50010 is added to blk_-3599228698070834482 size 67108864
081111 073331 35 INFO dfs.FSNamesystem: BLOCK* NameSystem.addStoredBlock: blockMap updated: 10.251.26.131:50010 is added to blk_3080072908013591591 size 67108864
081111 073331 35 INFO dfs.FSNamesystem: BLOCK* NameSystem.addStoredBlock: blockMap updated: 10.251.71.97:50010 is added to blk_3375622462439671623 size 67108864
081111 073331 35 INFO dfs.FSNamesystem: BLOCK* NameSystem.allocateBlock: /user/root/rand6/_temporary/_task_200811101024_0013_m_001525_0/part-01525. blk_-4301178988618507084
081111 073331 35 INFO dfs.FSNamesystem: BLOCK* NameSystem.allocateBlock: /user/root/rand6/_temporary/_task_200811101024_0013_m_001557_0/part-01557. blk_2001569529009800012
081111 073331 8528 INFO dfs.DataNode$PacketResponder: PacketResponder 0 for block blk_4604046853930700491 terminating
081111 073331 8528 INFO dfs.DataNode$PacketResponder: Received block blk_4604046853930700491 of size 67108864 from /10.251.39.64
081111 073332 22111 INFO dfs.DataNode$DataXceiver: Receiving block blk_-7894638004635255944 src: /10.250.6.214:45380 dest: /10.250.6.214:50010
081111 073332 22862 INFO dfs.DataNode$DataXceiver: Receiving block blk_2343094396262623856 src: /10.251.30.85:50798 dest: /10.251.30.85:50010
081111 073332 22883 INFO dfs.DataNode$PacketResponder: PacketResponder 2 for block blk_3397673737559198174 terminating
081111 073332 22883 INFO dfs.DataNode$PacketResponder: Received block blk_3397673737559198174 of size 67108864 from /10.251.203.80
081111 073332 22962 INFO dfs.DataNode$DataXceiver: Receiving block blk_-6954257483704918166 src: /10.251.214.112:47616 dest: /10.251.214.112:50010
081111 073332 23018 INFO dfs.DataNode$PacketResponder: PacketResponder 0 for block blk_3397673737559198174 terminating
081111 073332 23018 INFO dfs.DataNode$PacketResponder: Received block blk_3397673737559198174 of size 67108864 from /10.251.39.144
081111 073332 23042 INFO dfs.DataNode$PacketResponder: PacketResponder 1 for block blk_4202035031908947583 terminating
081111 073332 23042 INFO dfs.DataNode$PacketResponder: Received block blk_4202035031908947583 of size 67108864 from /10.251.122.65
081111 073332 23062 INFO dfs.DataNode$DataXceiver: Receiving block blk_1935752019373036651 src: /10.250.7.146:42481 dest: /10.250.7.146:50010
081111 073332 23072 INFO dfs.DataNode$PacketResponder: PacketResponder 0 for block blk_714450978284311092 terminating
081111 073332 23072 INFO dfs.DataNode$PacketResponder: Received block blk_714450978284311092 of size 67108864 from /10.250.14.196
081111 073332 23073 INFO dfs.DataNode$DataXceiver: Receiving block blk_4678720351071183027 src: /10.251.126.227:36789 dest: /10.251.126.227:50010
081111 073332 23157 INFO dfs.DataNode$PacketResponder: PacketResponder 2 for block blk_3375622462439671623 terminating
081111 073332 23157 INFO dfs.DataNode$PacketResponder: Received block blk_3375622462439671623 of size 67108864 from /10.250.11.85
081111 073332 23166 INFO dfs.DataNode$DataXceiver: Receiving block blk_966528670482980248 src: /10.251.122.65:37293 dest: /10.251.122.65:50010
081111 073332 23167 INFO dfs.DataNode$DataXceiver: Receiving block blk_-3483435762236185300 src: /10.250.11.85:42991 dest: /10.250.11.85:50010
081111 073332 23171 INFO dfs.DataNode$PacketResponder: PacketResponder 2 for block blk_-2435731485128490542 terminating
081111 073332 23171 INFO dfs.DataNode$PacketResponder: Received block blk_-2435731485128490542 of size 67108864 from /10.251.214.225
081111 073332 23174 INFO dfs.DataNode$PacketResponder: PacketResponder 1 for block blk_4859454716106376885 terminating
081111 073332 23174 INFO dfs.DataNode$PacketResponder: Received block blk_4859454716106376885 of size 67108864 from /10.251.126.227
081111 073332 23183 INFO dfs.DataNode$DataXceiver: Receiving block blk_-4301178988618507084 src: /10.250.11.100:60455 dest: /10.250.11.100:50010
081111 073332 23192 INFO dfs.DataNode$DataXceiver: Receiving block blk_5215417512172127338 src: /10.251.214.225:39580 dest: /10.251.214.225:50010
081111 073332 23198 INFO dfs.DataNode$PacketResponder: PacketResponder 2 for block blk_-8590935419526470453 terminating
081111 073332 23198 INFO dfs.DataNode$PacketResponder: Received block blk_-8590935419526470453 of size 67108864 from /10.251.30.134
081111 073332 23205 INFO dfs.DataNode$DataXceiver: Receiving block blk_6068209439328703746 src: /10.251.30.134:44505 dest: /10.251.30.134:50010
081111 073332 23249 INFO dfs.DataNode$DataXceiver: Receiving block blk_-3483435762236185300 src: /10.250.11.85:33401 dest: /10.250.11.85:50010
081111 073332 23256 INFO dfs.DataNode$PacketResponder: PacketResponder 2 for block blk_4859454716106376885 terminating
081111 073332 23256 INFO dfs.DataNode$PacketResponder: Received block blk_4859454716106376885 of size 67108864 from /10.251.126.227
081111 073332 23260 INFO dfs.DataNode$PacketResponder: PacketResponder 0 for block blk_331262595970090712 terminating
081111 073332 23260 INFO dfs.DataNode$PacketResponder: Received block blk_331262595970090712 of size 67108864 from /10.251.107.196
081111 073332 23265 INFO dfs.DataNode$DataXceiver: Receiving block blk_2343094396262623856 src: /10.251.126.227:42897 dest: /10.251.126.227:50010
081111 073332 23266 INFO dfs.DataNode$DataXceiver: Receiving block blk_4678720351071183027 src: /10.251.126.227:42898 dest: /10.251.126.227:50010
081111 073332 23290 INFO dfs.DataNode$PacketResponder: PacketResponder 1 for block blk_3375622462439671623 terminating
081111 073332 23290 INFO dfs.DataNode$PacketResponder: Received block blk_3375622462439671623 of size 67108864 from /10.250.11.85
081111 073332 23291 INFO dfs.DataNode$PacketResponder: PacketResponder 0 for block blk_-6303743512820198868 terminating
081111 073332 23291 INFO dfs.DataNode$PacketResponder: Received block blk_-6303743512820198868 of size 3543457 from /10.251.71.97
081111 073332 23293 INFO dfs.DataNode$PacketResponder: PacketResponder 1 for block blk_714450978284311092 terminating
081111 073332 23293 INFO dfs.DataNode$PacketResponder: Received block blk_714450978284311092 of size 67108864 from /10.251.126.5
081111 073332 23304 INFO dfs.DataNode$PacketResponder: PacketResponder 1 for block blk_-2435731485128490542 terminating
081111 073332 23304 INFO dfs.DataNode$PacketResponder: Received block blk_-2435731485128490542 of size 67108864 from /10.251.214.225
081111 073332 23307 INFO dfs.DataNode$DataXceiver: Receiving block blk_-7470409106752087667 src: /10.251.43.192:55710 dest: /10.251.43.192:50010
081111 073332 23333 INFO dfs.DataNode$PacketResponder: PacketResponder 0 for block blk_143272615272219610 terminating
081111 073332 23333 INFO dfs.DataNode$PacketResponder: PacketResponder 2 for block blk_-6303743512820198868 terminating
081111 073332 23333 INFO dfs.DataNode$PacketResponder: Received block blk_143272615272219610 of size 67108864 from /10.251.43.115
081111 073332 23333 INFO dfs.DataNode$PacketResponder: Received block blk_-6303743512820198868 of size 3543457 from /10.251.26.131
081111 073332 23335 INFO dfs.DataNode$DataXceiver: Receiving block blk_-559980931049180521 src: /10.251.214.112:43382 dest: /10.251.214.112:50010
081111 073332 23338 INFO dfs.DataNode$PacketResponder: PacketResponder 1 for block blk_-6303743512820198868 terminating
081111 073332 23338 INFO dfs.DataNode$PacketResponder: Received block blk_-6303743512820198868 of size 3543457 from /10.251.26.131
081111 073332 23354 INFO dfs.DataNode$DataXceiver: Receiving block blk_-520194501344499706 src: /10.250.10.6:41504 dest: /10.250.10.6:50010
081111 073332 23380 INFO dfs.DataNode$DataXceiver: Receiving block blk_966528670482980248 src: /10.250.11.85:49278 dest: /10.250.11.85:50010
081111 073332 23391 INFO dfs.DataNode$DataXceiver: Receiving block blk_-520194501344499706 src: /10.250.10.6:34065 dest: /10.250.10.6:50010
081111 073332 23393 INFO dfs.DataNode$PacketResponder: PacketResponder 2 for block blk_714450978284311092 terminating
081111 073332 23393 INFO dfs.DataNode$PacketResponder: Received block blk_714450978284311092 of size 67108864 from /10.251.126.5
081111 073332 23396 INFO dfs.DataNode$DataXceiver: Receiving block blk_-7470409106752087667 src: /10.251.126.5:36934 dest: /10.251.126.5:50010
081111 073332 23414 INFO dfs.DataNode$PacketResponder: PacketResponder 0 for block blk_-2435731485128490542 terminating
081111 073332 23414 INFO dfs.DataNode$PacketResponder: Received block blk_-2435731485128490542 of size 67108864 from /10.251.38.214
081111 073332 23419 INFO dfs.DataNode$DataXceiver: Receiving block blk_-4301178988618507084 src: /10.251.67.225:54052 dest: /10.251.67.225:50010
081111 073332 23421 INFO dfs.DataNode$PacketResponder: PacketResponder 1 for block blk_143272615272219610 terminating
081111 073332 23421 INFO dfs.DataNode$PacketResponder: Received block blk_143272615272219610 of size 67108864 from /10.251.214.112
081111 073332 23452 INFO dfs.DataNode$DataXceiver: Receiving block blk_-5927588622018798143 src: /10.251.199.19:60446 dest: /10.251.199.19:50010
081111 073332 23473 INFO dfs.DataNode$DataXceiver: Receiving block blk_-3483435762236185300 src: /10.251.111.80:39747 dest: /10.251.111.80:50010
081111 073332 23514 INFO dfs.DataNode$PacketResponder: PacketResponder 2 for block blk_143272615272219610 terminating
081111 073332 23514 INFO dfs.DataNode$PacketResponder: Received block blk_143272615272219610 of size 67108864 from /10.251.214.112
081111 073332 23524 INFO dfs.DataNode$DataXceiver: Receiving block blk_-6954257483704918166 src: /10.251.214.112:36977 dest: /10.251.214.112:50010
081111 073332 23555 INFO dfs.DataNode$PacketResponder: PacketResponder 1 for block blk_-8590935419526470453 terminating
081111 073332 23555 INFO dfs.DataNode$PacketResponder: Received block blk_-8590935419526470453 of size 67108864 from /10.251.30.134
081111 073332 23582 INFO dfs.DataNode$DataXceiver: Receiving block blk_-559980931049180521 src: /10.250.7.244:45406 dest: /10.250.7.244:50010
081111 073332 23607 INFO dfs.DataNode$PacketResponder: PacketResponder 1 for block blk_3397673737559198174 terminating
081111 073332 23607 INFO dfs.DataNode$PacketResponder: Received block blk_3397673737559198174 of size 67108864 from /10.251.203.80
081111 073332 23682 INFO dfs.DataNode$DataXceiver: Receiving block blk_-7470409106752087667 src: /10.251.126.5:38126 dest: /10.251.126.5:50010
081111 073332 23688 INFO dfs.DataNode$DataXceiver: Receiving block blk_-8245518283154175873 src: /10.250.14.143:41628 dest: /10.250.14.143:50010
081111 073332 26 INFO dfs.FSNamesystem: BLOCK* NameSystem.addStoredBlock: blockMap updated: 10.250.15.67:50010 is added to blk_3397673737559198174 size 67108864
081111 073332 26 INFO dfs.FSNamesystem: BLOCK* NameSystem.addStoredBlock: blockMap updated: 10.251.127.243:50010 is added to blk_714450978284311092 size 67108864
081111 073332 26 INFO dfs.FSNamesystem: BLOCK* NameSystem.addStoredBlock: blockMap updated: 10.251.214.225:50010 is added to blk_-2435731485128490542 size 67108864
081111 073332 27 INFO dfs.FSNamesystem: BLOCK* NameSystem.addStoredBlock: blockMap updated: 10.250.19.227:50010 is added to blk_-2435731485128490542 size 67108864
081111 073332 27 INFO dfs.FSNamesystem: BLOCK* NameSystem.addStoredBlock: blockMap updated: 10.251.122.65:50010 is added to blk_4202035031908947583 size 67108864
081111 073332 27 INFO dfs.FSNamesystem: BLOCK* NameSystem.addStoredBlock: blockMap updated: 10.251.126.83:50010 is added to blk_-8590935419526470453 size 67108864
081111 073332 27 INFO dfs.FSNamesystem: BLOCK* NameSystem.addStoredBlock: blockMap updated: 10.251.194.213:50010 is added to blk_-6303743512820198868 size 3543457
081111 073332 27 INFO dfs.FSNamesystem: BLOCK* NameSystem.allocateBlock: /user/root/rand6/_temporary/_task_200811101024_0013_m_001531_0/part-01531. blk_4678720351071183027
081111 073332 28 INFO dfs.FSNamesystem: BLOCK* NameSystem.addStoredBlock: blockMap updated: 10.250.10.6:50010 is added to blk_143272615272219610 size 67108864
081111 073332 28 INFO dfs.FSNamesystem: BLOCK* NameSystem.addStoredBlock: blockMap updated: 10.251.74.79:50010 is added to blk_331262595970090712 size 67108864
081111 073332 28 INFO dfs.FSNamesystem: BLOCK* NameSystem.allocateBlock: /user/root/rand6/_temporary/_task_200811101024_0013_m_001284_0/part-01284. blk_2343094396262623856
081111 073332 28 INFO dfs.FSNamesystem: BLOCK* NameSystem.allocateBlock: /user/root/rand6/_temporary/_task_200811101024_0013_m_001382_0/part-01382. blk_6068209439328703746
081111 073332 29 INFO dfs.FSNamesystem: BLOCK* NameSystem.addStoredBlock: blockMap updated: 10.250.11.85:50010 is added to blk_3375622462439671623 size 67108864
081111 073332 29 INFO dfs.FSNamesystem: BLOCK* NameSystem.addStoredBlock: blockMap updated: 10.250.14.196:50010 is added to blk_714450978284311092 size 67108864
081111 073332 29 INFO dfs.FSNamesystem: BLOCK* NameSystem.addStoredBlock: blockMap updated: 10.251.110.160:50010 is added to blk_3375622462439671623 size 67108864
081111 073332 30 INFO dfs.FSNamesystem: BLOCK* NameSystem.addStoredBlock: blockMap updated: 10.251.30.134:50010 is added to blk_-8590935419526470453 size 67108864
081111 073332 30 INFO dfs.FSNamesystem: BLOCK* NameSystem.addStoredBlock: blockMap updated: 10.251.38.214:50010 is added to blk_-2435731485128490542 size 67108864
081111 073332 30 INFO dfs.FSNamesystem: BLOCK* NameSystem.allocateBlock: /user/root/rand6/_temporary/_task_200811101024_0013_m_001517_0/part-01517. blk_5215417512172127338
081111 073332 31 INFO dfs.FSNamesystem: BLOCK* NameSystem.allocateBlock: /user/root/rand6/_temporary/_task_200811101024_0013_m_001480_0/part-01480. blk_-6954257483704918166
081111 073332 31 INFO dfs.FSNamesystem: BLOCK* NameSystem.allocateBlock: /user/root/rand6/_temporary/_task_200811101024_0013_m_001483_0/part-01483. blk_-3483435762236185300
081111 073332 32 INFO dfs.FSNamesystem: BLOCK* NameSystem.addStoredBlock: blockMap updated: 10.251.203.80:50010 is added to blk_3397673737559198174 size 67108864
081111 073332 32 INFO dfs.FSNamesystem: BLOCK* NameSystem.addStoredBlock: blockMap updated: 10.251.39.144:50010 is added to blk_3397673737559198174 size 67108864
081111 073332 32 INFO dfs.FSNamesystem: BLOCK* NameSystem.addStoredBlock: blockMap updated: 10.251.39.192:50010 is added to blk_4859454716106376885 size 67108864
081111 073332 32 INFO dfs.FSNamesystem: BLOCK* NameSystem.addStoredBlock: blockMap updated: 10.251.71.97:50010 is added to blk_-6303743512820198868 size 3543457
081111 073332 32 INFO dfs.FSNamesystem: BLOCK* NameSystem.allocateBlock: /user/root/rand6/_temporary/_task_200811101024_0013_m_001259_0/part-01259. blk_-7470409106752087667
081111 073332 33 INFO dfs.FSNamesystem: BLOCK* NameSystem.addStoredBlock: blockMap updated: 10.251.198.196:50010 is added to blk_4202035031908947583 size 67108864
081111 073332 33 INFO dfs.FSNamesystem: BLOCK* NameSystem.addStoredBlock: blockMap updated: 10.251.43.115:50010 is added to blk_143272615272219610 size 67108864
081111 073332 34 INFO dfs.FSNamesystem: BLOCK* NameSystem.addStoredBlock: blockMap updated: 10.251.26.131:50010 is added to blk_-6303743512820198868 size 3543457
081111 073332 35 INFO dfs.FSNamesystem: BLOCK* NameSystem.addStoredBlock: blockMap updated: 10.251.126.227:50010 is added to blk_4859454716106376885 size 67108864
081111 073332 35 INFO dfs.FSNamesystem: BLOCK* NameSystem.addStoredBlock: blockMap updated: 10.251.126.5:50010 is added to blk_714450978284311092 size 67108864
081111 073332 35 INFO dfs.FSNamesystem: BLOCK* NameSystem.addStoredBlock: blockMap updated: 10.251.214.112:50010 is added to blk_143272615272219610 size 67108864
081111 073332 35 INFO dfs.FSNamesystem: BLOCK* NameSystem.addStoredBlock: blockMap updated: 10.251.39.209:50010 is added to blk_4859454716106376885 size 67108864
081111 073332 8552 INFO dfs.DataNode$DataXceiver: Receiving block blk_2343094396262623856 src: /10.251.126.227:37837 dest: /10.251.126.227:50010
081111 073333 13 INFO dfs.DataBlockScanner: Verification succeeded for blk_-6638040481121952898
081111 073333 22113 INFO dfs.DataNode$DataXceiver: Receiving block blk_-7750228703536169523 src: /10.251.67.4:57340 dest: /10.251.67.4:50010
081111 073333 22848 INFO dfs.DataNode$DataXceiver: Receiving block blk_5215417512172127338 src: /10.251.39.209:34839 dest: /10.251.39.209:50010
081111 073333 22894 INFO dfs.DataNode$DataXceiver: Receiving block blk_-367381213584241182 src: /10.251.203.80:34930 dest: /10.251.203.80:50010
081111 073333 23053 INFO dfs.DataNode$PacketResponder: PacketResponder 2 for block blk_-2323645329261194614 terminating
081111 073333 23053 INFO dfs.DataNode$PacketResponder: Received block blk_-2323645329261194614 of size 67108864 from /10.251.25.237
081111 073333 23056 INFO dfs.DataNode$PacketResponder: PacketResponder 2 for block blk_5587334917102035232 terminating
081111 073333 23056 INFO dfs.DataNode$PacketResponder: Received block blk_5587334917102035232 of size 67108864 from /10.250.14.224
081111 073333 23061 INFO dfs.DataNode$PacketResponder: PacketResponder 1 for block blk_8947329349717741538 terminating
081111 073333 23061 INFO dfs.DataNode$PacketResponder: Received block blk_8947329349717741538 of size 67108864 from /10.250.14.143
081111 073333 23064 INFO dfs.DataNode$DataXceiver: Receiving block blk_-440503827509674939 src: /10.251.25.237:34239 dest: /10.251.25.237:50010
081111 073333 23074 INFO dfs.DataNode$DataXceiver: Receiving block blk_-7750228703536169523 src: /10.250.14.224:33455 dest: /10.250.14.224:50010
081111 073333 23101 INFO dfs.DataNode$PacketResponder: PacketResponder 0 for block blk_7949512361392824664 terminating
081111 073333 23101 INFO dfs.DataNode$PacketResponder: Received block blk_7949512361392824664 of size 3539404 from /10.250.7.244
081111 073333 23102 INFO dfs.DataNode$DataXceiver: Receiving block blk_5215417512172127338 src: /10.251.214.225:34006 dest: /10.251.214.225:50010
081111 073333 23105 INFO dfs.DataNode$PacketResponder: PacketResponder 0 for block blk_9008249210068160932 terminating
081111 073333 23105 INFO dfs.DataNode$PacketResponder: Received block blk_9008249210068160932 of size 67108864 from /10.251.109.209
081111 073333 23115 INFO dfs.DataNode$DataXceiver: Receiving block blk_4260393861082877150 src: /10.251.198.33:42630 dest: /10.251.198.33:50010
081111 073333 23146 INFO dfs.DataNode$PacketResponder: PacketResponder 2 for block blk_-8245518283154175873 terminating
081111 073333 23146 INFO dfs.DataNode$PacketResponder: Received block blk_-8245518283154175873 of size 3541006 from /10.251.107.98
081111 073333 23164 INFO dfs.DataNode$DataXceiver: Receiving block blk_-5164854017164190357 src: /10.250.7.146:60079 dest: /10.250.7.146:50010
081111 073333 23169 INFO dfs.DataNode$PacketResponder: PacketResponder 0 for block blk_-2323645329261194614 terminating
081111 073333 23169 INFO dfs.DataNode$PacketResponder: Received block blk_-2323645329261194614 of size 67108864 from /10.251.38.214
081111 073333 23200 INFO dfs.DataNode$PacketResponder: PacketResponder 0 for block blk_-1823995276249325941 terminating
081111 073333 23200 INFO dfs.DataNode$PacketResponder: Received block blk_-1823995276249325941 of size 67108864 from /10.250.15.101
081111 073333 23203 INFO dfs.DataNode$PacketResponder: PacketResponder 1 for block blk_-1598405532589444992 terminating
081111 073333 23203 INFO dfs.DataNode$PacketResponder: Received block blk_-1598405532589444992 of size 67108864 from /10.251.91.32
081111 073333 23242 INFO dfs.DataNode$PacketResponder: PacketResponder 1 for block blk_9100921486512299746 terminating
081111 073333 23242 INFO dfs.DataNode$PacketResponder: Received block blk_9100921486512299746 of size 67108864 from /10.251.66.3
081111 073333 23258 INFO dfs.DataNode$PacketResponder: PacketResponder 2 for block blk_8947329349717741538 terminating
081111 073333 23258 INFO dfs.DataNode$PacketResponder: Received block blk_8947329349717741538 of size 67108864 from /10.250.14.143
081111 073333 23263 INFO dfs.DataNode$PacketResponder: PacketResponder 1 for block blk_-8245518283154175873 terminating
081111 073333 23263 INFO dfs.DataNode$PacketResponder: Received block blk_-8245518283154175873 of size 3541006 from /10.251.107.98
081111 073333 23264 INFO dfs.DataNode$DataXceiver: Receiving block blk_-367381213584241182 src: /10.251.30.85:33859 dest: /10.251.30.85:50010
081111 073333 23267 INFO dfs.DataNode$DataXceiver: Receiving block blk_-3075069510163438913 src: /10.250.14.143:38939 dest: /10.250.14.143:50010
081111 073333 23267 INFO dfs.DataNode$DataXceiver: Receiving block blk_4566606986895605300 src: /10.251.66.192:58515 dest: /10.251.66.192:50010
081111 073333 23289 INFO dfs.DataNode$PacketResponder: PacketResponder 2 for block blk_-1823995276249325941 terminating
081111 073333 23289 INFO dfs.DataNode$PacketResponder: Received block blk_-1823995276249325941 of size 67108864 from /10.251.66.192
081111 073333 23302 INFO dfs.DataNode$DataXceiver: Receiving block blk_4566606986895605300 src: /10.251.66.192:59433 dest: /10.251.66.192:50010
081111 073333 23303 INFO dfs.DataNode$PacketResponder: PacketResponder 1 for block blk_-1823995276249325941 terminating
081111 073333 23303 INFO dfs.DataNode$PacketResponder: Received block blk_-1823995276249325941 of size 67108864 from /10.251.66.192
081111 073333 23306 INFO dfs.DataNode$DataXceiver: Receiving block blk_7949248293345461197 src: /10.250.5.161:44805 dest: /10.250.5.161:50010
081111 073333 23310 INFO dfs.DataNode$DataXceiver: Receiving block blk_7949248293345461197 src: /10.250.14.143:51661 dest: /10.250.14.143:50010
081111 073333 23316 INFO dfs.DataNode$PacketResponder: PacketResponder 1 for block blk_-2323645329261194614 terminating
081111 073333 23316 INFO dfs.DataNode$PacketResponder: Received block blk_-2323645329261194614 of size 67108864 from /10.251.25.237
081111 073333 23332 INFO dfs.DataNode$PacketResponder: PacketResponder 1 for block blk_7949512361392824664 terminating
081111 073333 23332 INFO dfs.DataNode$PacketResponder: Received block blk_7949512361392824664 of size 3539404 from /10.251.194.129
081111 073333 23334 INFO dfs.DataNode$PacketResponder: PacketResponder 2 for block blk_331262595970090712 terminating
081111 073333 23334 INFO dfs.DataNode$PacketResponder: Received block blk_331262595970090712 of size 67108864 from /10.250.15.240
081111 073333 23343 INFO dfs.DataNode$DataXceiver: Receiving block blk_-8713348590176866515 src: /10.250.15.240:55286 dest: /10.250.15.240:50010
081111 073333 23358 INFO dfs.DataNode$PacketResponder: PacketResponder 1 for block blk_331262595970090712 terminating
081111 073333 23358 INFO dfs.DataNode$PacketResponder: Received block blk_331262595970090712 of size 67108864 from /10.250.15.240
081111 073333 23361 INFO dfs.DataNode$PacketResponder: PacketResponder 0 for block blk_9100921486512299746 terminating
081111 073333 23361 INFO dfs.DataNode$PacketResponder: Received block blk_9100921486512299746 of size 67108864 from /10.251.111.80
081111 073333 23380 INFO dfs.DataNode$DataXceiver: Receiving block blk_-7750228703536169523 src: /10.250.14.224:39708 dest: /10.250.14.224:50010
081111 073333 23386 INFO dfs.DataNode$PacketResponder: PacketResponder 2 for block blk_7949512361392824664 terminating
081111 073333 23386 INFO dfs.DataNode$PacketResponder: Received block blk_7949512361392824664 of size 3539404 from /10.251.194.129
081111 073333 23390 INFO dfs.DataNode$DataXceiver: Receiving block blk_6068209439328703746 src: /10.251.30.134:47697 dest: /10.251.30.134:50010
081111 073333 23452 INFO dfs.DataNode$PacketResponder: PacketResponder 0 for block blk_-1598405532589444992 terminating
081111 073333 23452 INFO dfs.DataNode$PacketResponder: Received block blk_-1598405532589444992 of size 67108864 from /10.251.30.134
081111 073333 23500 INFO dfs.DataNode$DataXceiver: Receiving block blk_-8713348590176866515 src: /10.250.15.240:36996 dest: /10.250.15.240:50010
081111 073333 23512 INFO dfs.DataNode$PacketResponder: PacketResponder 0 for block blk_8947329349717741538 terminating
081111 073333 23512 INFO dfs.DataNode$PacketResponder: Received block blk_8947329349717741538 of size 67108864 from /10.250.14.224
081111 073333 23572 INFO dfs.DataNode$DataXceiver: Receiving block blk_-440503827509674939 src: /10.251.25.237:48540 dest: /10.251.25.237:50010
081111 073333 23689 INFO dfs.DataNode$PacketResponder: PacketResponder 0 for block blk_-8245518283154175873 terminating
081111 073333 23689 INFO dfs.DataNode$PacketResponder: Received block blk_-8245518283154175873 of size 3541006 from /10.250.14.143
081111 073333 26 INFO dfs.FSNamesystem: BLOCK* NameSystem.addStoredBlock: blockMap updated: 10.250.14.143:50010 is added to blk_8947329349717741538 size 67108864
081111 073333 26 INFO dfs.FSNamesystem: BLOCK* NameSystem.addStoredBlock: blockMap updated: 10.251.194.129:50010 is added to blk_7949512361392824664 size 3539404
081111 073333 26 INFO dfs.FSNamesystem: BLOCK* NameSystem.allocateBlock: /user/root/rand6/_temporary/_task_200811101024_0013_m_001502_0/part-01502. blk_-8713348590176866515
081111 073333 27 INFO dfs.FSNamesystem: BLOCK* NameSystem.addStoredBlock: blockMap updated: 10.251.73.188:50010 is added to blk_-1823995276249325941 size 67108864
081111 073333 28 INFO dfs.FSNamesystem: BLOCK* NameSystem.addStoredBlock: blockMap updated: 10.250.15.101:50010 is added to blk_-1823995276249325941 size 67108864
081111 073333 28 INFO dfs.FSNamesystem: BLOCK* NameSystem.addStoredBlock: blockMap updated: 10.250.15.198:50010 is added to blk_-2323645329261194614 size 67108864
081111 073333 28 INFO dfs.FSNamesystem: BLOCK* NameSystem.addStoredBlock: blockMap updated: 10.251.107.196:50010 is added to blk_9100921486512299746 size 67108864
081111 073333 28 INFO dfs.FSNamesystem: BLOCK* NameSystem.addStoredBlock: blockMap updated: 10.251.107.98:50010 is added to blk_-8245518283154175873 size 3541006
081111 073333 28 INFO dfs.FSNamesystem: BLOCK* NameSystem.addStoredBlock: blockMap updated: 10.251.66.192:50010 is added to blk_-1823995276249325941 size 67108864
081111 073333 28 INFO dfs.FSNamesystem: BLOCK* NameSystem.addStoredBlock: blockMap updated: 10.251.70.37:50010 is added to blk_-1598405532589444992 size 67108864
081111 073333 28 INFO dfs.FSNamesystem: BLOCK* NameSystem.allocateBlock: /user/root/rand6/_temporary/_task_200811101024_0013_m_001372_0/part-01372. blk_-5595429807887921288
081111 073333 29 INFO dfs.FSNamesystem: BLOCK* NameSystem.allocateBlock: /user/root/rand6/_temporary/_task_200811101024_0013_m_001225_0/part-01225. blk_4566606986895605300
081111 073333 30 INFO dfs.FSNamesystem: BLOCK* NameSystem.addStoredBlock: blockMap updated: 10.250.11.53:50010 is added to blk_-8245518283154175873 size 3541006
081111 073333 30 INFO dfs.FSNamesystem: BLOCK* NameSystem.addStoredBlock: blockMap updated: 10.250.15.240:50010 is added to blk_331262595970090712 size 67108864
081111 073333 30 INFO dfs.FSNamesystem: BLOCK* NameSystem.allocateBlock: /user/root/rand6/_temporary/_task_200811101024_0013_m_001440_0/part-01440. blk_-440503827509674939
081111 073333 31 INFO dfs.FSNamesystem: BLOCK* NameSystem.addStoredBlock: blockMap updated: 10.251.123.20:50010 is added to blk_8947329349717741538 size 67108864
081111 073333 31 INFO dfs.FSNamesystem: BLOCK* NameSystem.addStoredBlock: blockMap updated: 10.251.39.209:50010 is added to blk_7949512361392824664 size 3539404
081111 073333 31 INFO dfs.FSNamesystem: BLOCK* NameSystem.allocateBlock: /user/root/rand6/_temporary/_task_200811101024_0013_m_001562_0/part-01562. blk_5453607161784500183
081111 073333 32 INFO dfs.FSNamesystem: BLOCK* NameSystem.addStoredBlock: blockMap updated: 10.251.30.134:50010 is added to blk_-1598405532589444992 size 67108864
081111 073333 32 INFO dfs.FSNamesystem: BLOCK* NameSystem.allocateBlock: /user/root/rand6/_temporary/_task_200811101024_0013_m_001171_0/part-01171. blk_-3075069510163438913
081111 073333 33 INFO dfs.FSNamesystem: BLOCK* NameSystem.addStoredBlock: blockMap updated: 10.250.14.143:50010 is added to blk_-8245518283154175873 size 3541006
081111 073333 33 INFO dfs.FSNamesystem: BLOCK* NameSystem.addStoredBlock: blockMap updated: 10.251.107.196:50010 is added to blk_331262595970090712 size 67108864
081111 073333 33 INFO dfs.FSNamesystem: BLOCK* NameSystem.addStoredBlock: blockMap updated: 10.251.38.214:50010 is added to blk_-2323645329261194614 size 67108864
081111 073333 33 INFO dfs.FSNamesystem: BLOCK* NameSystem.addStoredBlock: blockMap updated: 10.251.91.32:50010 is added to blk_-1598405532589444992 size 67108864
081111 073333 33 INFO dfs.FSNamesystem: BLOCK* NameSystem.allocateBlock: /user/root/rand6/_temporary/_task_200811101024_0013_m_001343_0/part-01343. blk_-7750228703536169523
081111 073333 34 INFO dfs.FSNamesystem: BLOCK* NameSystem.addStoredBlock: blockMap updated: 10.250.14.224:50010 is added to blk_5587334917102035232 size 67108864
081111 073333 34 INFO dfs.FSNamesystem: BLOCK* NameSystem.addStoredBlock: blockMap updated: 10.250.14.224:50010 is added to blk_8947329349717741538 size 67108864
081111 073333 34 INFO dfs.FSNamesystem: BLOCK* NameSystem.addStoredBlock: blockMap updated: 10.251.111.80:50010 is added to blk_9100921486512299746 size 67108864
081111 073333 34 INFO dfs.FSNamesystem: BLOCK* NameSystem.addStoredBlock: blockMap updated: 10.251.25.237:50010 is added to blk_-2323645329261194614 size 67108864
081111 073333 35 INFO dfs.FSNamesystem: BLOCK* NameSystem.addStoredBlock: blockMap updated: 10.251.202.209:50010 is added to blk_9008249210068160932 size 67108864
081111 073333 35 INFO dfs.FSNamesystem: BLOCK* NameSystem.allocateBlock: /user/root/rand6/_temporary/_task_200811101024_0013_m_001529_0/part-01529. blk_-367381213584241182
081111 073333 8554 INFO dfs.DataNode$DataXceiver: Receiving block blk_-367381213584241182 src: /10.251.203.80:48535 dest: /10.251.203.80:50010
081111 073334 17851 INFO dfs.DataNode$DataXceiver: Receiving block blk_4678720351071183027 src: /10.250.14.224:46272 dest: /10.250.14.224:50010
081111 073334 22761 INFO dfs.DataNode$PacketResponder: PacketResponder 2 for block blk_-1598405532589444992 terminating
081111 073334 22761 INFO dfs.DataNode$PacketResponder: Received block blk_-1598405532589444992 of size 67108864 from /10.251.91.32
081111 073334 22766 INFO dfs.DataNode$DataXceiver: Receiving block blk_-5595429807887921288 src: /10.251.91.32:43051 dest: /10.251.91.32:50010
081111 073334 22855 INFO dfs.DataNode$PacketResponder: PacketResponder 2 for block blk_-5741731815374463818 terminating
081111 073334 22855 INFO dfs.DataNode$PacketResponder: Received block blk_-5741731815374463818 of size 67108864 from /10.251.202.181
081111 073334 22864 INFO dfs.DataNode$DataXceiver: Receiving block blk_6744779972193811263 src: /10.251.202.181:42519 dest: /10.251.202.181:50010
081111 073334 22922 INFO dfs.DataNode$DataXceiver: Receiving block blk_-520194501344499706 src: /10.251.66.63:44446 dest: /10.251.66.63:50010
081111 073334 22956 INFO dfs.DataNode$PacketResponder: PacketResponder 1 for block blk_7221452008377784132 terminating
081111 073334 22956 INFO dfs.DataNode$PacketResponder: Received block blk_7221452008377784132 of size 67108864 from /10.250.19.16
081111 073334 23050 INFO dfs.DataNode$PacketResponder: PacketResponder 0 for block blk_73767534018136332 terminating
081111 073334 23050 INFO dfs.DataNode$PacketResponder: Received block blk_73767534018136332 of size 67108864 from /10.251.215.70
081111 073334 23053 INFO dfs.DataNode$PacketResponder: PacketResponder 0 for block blk_-61589442443933285 terminating
081111 073334 23053 INFO dfs.DataNode$PacketResponder: Received block blk_-61589442443933285 of size 67108864 from /10.250.15.198
081111 073334 23166 INFO dfs.DataNode$DataXceiver: Receiving block blk_-7741220148458303826 src: /10.250.7.244:60060 dest: /10.250.7.244:50010
081111 073334 23168 INFO dfs.DataNode$DataXceiver: Receiving block blk_5453607161784500183 src: /10.251.203.149:40295 dest: /10.251.203.149:50010
081111 073334 23169 INFO dfs.DataNode$DataXceiver: Receiving block blk_-8916632332773433058 src: /10.251.66.3:53364 dest: /10.251.66.3:50010
081111 073334 23174 INFO dfs.DataNode$PacketResponder: PacketResponder 1 for block blk_-61589442443933285 terminating
081111 073334 23174 INFO dfs.DataNode$PacketResponder: Received block blk_-61589442443933285 of size 67108864 from /10.251.199.159
081111 073334 23179 INFO dfs.DataNode$DataXceiver: Receiving block blk_-5996959593348543161 src: /10.250.19.16:48359 dest: /10.250.19.16:50010
081111 073334 23256 INFO dfs.DataNode$PacketResponder: PacketResponder 0 for block blk_-1249092431855327988 terminating
081111 073334 23256 INFO dfs.DataNode$PacketResponder: Received block blk_-1249092431855327988 of size 67108864 from /10.251.199.86
081111 073334 23271 INFO dfs.DataNode$DataXceiver: Receiving block blk_-8389680516475304628 src: /10.251.123.20:52609 dest: /10.251.123.20:50010
081111 073334 23279 INFO dfs.DataNode$DataXceiver: Receiving block blk_-5595429807887921288 src: /10.251.91.32:59042 dest: /10.251.91.32:50010
081111 073334 23286 INFO dfs.DataNode$PacketResponder: PacketResponder 0 for block blk_4693525487873658355 terminating
081111 073334 23286 INFO dfs.DataNode$PacketResponder: Received block blk_4693525487873658355 of size 67108864 from /10.250.6.223
081111 073334 23290 INFO dfs.DataNode$PacketResponder: PacketResponder 0 for block blk_-2340732430393258275 terminating
081111 073334 23290 INFO dfs.DataNode$PacketResponder: Received block blk_-2340732430393258275 of size 67108864 from /10.250.15.101
081111 073334 23295 INFO dfs.DataNode$PacketResponder: PacketResponder 1 for block blk_-2340732430393258275 terminating
081111 073334 23295 INFO dfs.DataNode$PacketResponder: Received block blk_-2340732430393258275 of size 67108864 from /10.251.71.193
081111 073334 23296 INFO dfs.DataNode$PacketResponder: PacketResponder 0 for block blk_9131217833867956460 terminating
081111 073334 23296 INFO dfs.DataNode$PacketResponder: Received block blk_9131217833867956460 of size 67108864 from /10.250.6.4
081111 073334 23298 INFO dfs.DataNode$DataXceiver: Receiving block blk_-5993236802790650220 src: /10.251.66.3:58098 dest: /10.251.66.3:50010
081111 073334 23303 INFO dfs.DataNode$PacketResponder: PacketResponder 0 for block blk_-5741731815374463818 terminating
081111 073334 23303 INFO dfs.DataNode$PacketResponder: Received block blk_-5741731815374463818 of size 67108864 from /10.250.7.230
081111 073334 23308 INFO dfs.DataNode$DataXceiver: Receiving block blk_-8916632332773433058 src: /10.251.203.149:56458 dest: /10.251.203.149:50010
081111 073334 23339 INFO dfs.DataNode$DataXceiver: Receiving block blk_-691718415551996161 src: /10.250.19.16:60034 dest: /10.250.19.16:50010
081111 073334 23344 INFO dfs.DataNode$DataXceiver: Receiving block blk_-691718415551996161 src: /10.251.71.97:37493 dest: /10.251.71.97:50010
081111 073334 23346 INFO dfs.DataNode$DataXceiver: Receiving block blk_-5595429807887921288 src: /10.251.30.179:54316 dest: /10.251.30.179:50010
081111 073334 23350 INFO dfs.DataNode$PacketResponder: PacketResponder 1 for block blk_9131217833867956460 terminating
081111 073334 23350 INFO dfs.DataNode$PacketResponder: Received block blk_9131217833867956460 of size 67108864 from /10.251.215.192
081111 073334 23363 INFO dfs.DataNode$PacketResponder: PacketResponder 1 for block blk_6182600211594548131 terminating
081111 073334 23363 INFO dfs.DataNode$PacketResponder: Received block blk_6182600211594548131 of size 67108864 from /10.251.66.3
081111 073334 23374 INFO dfs.DataNode$PacketResponder: PacketResponder 2 for block blk_73767534018136332 terminating
081111 073334 23374 INFO dfs.DataNode$PacketResponder: Received block blk_73767534018136332 of size 67108864 from /10.251.66.63
081111 073334 23382 INFO dfs.DataNode$PacketResponder: PacketResponder 2 for block blk_9131217833867956460 terminating
081111 073334 23382 INFO dfs.DataNode$PacketResponder: Received block blk_9131217833867956460 of size 67108864 from /10.251.215.192
081111 073334 23388 INFO dfs.DataNode$PacketResponder: PacketResponder 0 for block blk_3491994706844079529 terminating
081111 073334 23388 INFO dfs.DataNode$PacketResponder: Received block blk_3491994706844079529 of size 67108864 from /10.251.26.177
081111 073334 23393 INFO dfs.DataNode$DataXceiver: Receiving block blk_-7554295248765900526 src: /10.251.66.63:36260 dest: /10.251.66.63:50010
081111 073334 23393 INFO dfs.DataNode$DataXceiver: Receiving block blk_-8058032814958554319 src: /10.251.215.192:38809 dest: /10.251.215.192:50010
081111 073334 23397 INFO dfs.DataNode$PacketResponder: PacketResponder 0 for block blk_1086924137146941984 terminating
081111 073334 23397 INFO dfs.DataNode$PacketResponder: Received block blk_1086924137146941984 of size 67108864 from /10.251.65.203
081111 073334 23407 INFO dfs.DataNode$PacketResponder: PacketResponder 1 for block blk_73767534018136332 terminating
081111 073334 23407 INFO dfs.DataNode$PacketResponder: Received block blk_73767534018136332 of size 67108864 from /10.251.66.63
081111 073334 23418 INFO dfs.DataNode$DataXceiver: Receiving block blk_5453607161784500183 src: /10.251.203.149:43125 dest: /10.251.203.149:50010
081111 073334 23419 INFO dfs.DataNode$DataXceiver: Receiving block blk_6744779972193811263 src: /10.251.202.181:44070 dest: /10.251.202.181:50010
081111 073334 23448 INFO dfs.DataNode$PacketResponder: PacketResponder 1 for block blk_4693525487873658355 terminating
081111 073334 23448 INFO dfs.DataNode$PacketResponder: Received block blk_4693525487873658355 of size 67108864 from /10.251.43.21
081111 073334 23449 INFO dfs.DataNode$PacketResponder: PacketResponder 0 for block blk_7221452008377784132 terminating
081111 073334 23449 INFO dfs.DataNode$PacketResponder: Received block blk_7221452008377784132 of size 67108864 from /10.251.75.228
081111 073334 23460 INFO dfs.DataNode$DataXceiver: Receiving block blk_4566606986895605300 src: /10.251.43.21:34410 dest: /10.251.43.21:50010
081111 073334 23466 INFO dfs.DataNode$PacketResponder: PacketResponder 1 for block blk_-5741731815374463818 terminating
081111 073334 23466 INFO dfs.DataNode$PacketResponder: Received block blk_-5741731815374463818 of size 67108864 from /10.251.202.181
081111 073334 23502 INFO dfs.DataNode$PacketResponder: PacketResponder 2 for block blk_-61589442443933285 terminating
081111 073334 23502 INFO dfs.DataNode$PacketResponder: Received block blk_-61589442443933285 of size 67108864 from /10.251.199.159
081111 073334 23512 INFO dfs.DataNode$DataXceiver: Receiving block blk_7052451287720319292 src: /10.251.199.159:36283 dest: /10.251.199.159:50010
081111 073334 23521 INFO dfs.DataNode$DataXceiver: Receiving block blk_-8389680516475304628 src: /10.251.75.228:51266 dest: /10.251.75.228:50010
081111 073334 23547 INFO dfs.DataNode$DataXceiver: Receiving block blk_-440503827509674939 src: /10.251.126.83:45025 dest: /10.251.126.83:50010
081111 073334 23584 INFO dfs.DataNode$PacketResponder: PacketResponder 2 for block blk_7221452008377784132 terminating
081111 073334 23584 INFO dfs.DataNode$PacketResponder: Received block blk_7221452008377784132 of size 67108864 from /10.250.19.16
081111 073334 23586 INFO dfs.DataNode$PacketResponder: PacketResponder 1 for block blk_-1249092431855327988 terminating
081111 073334 23586 INFO dfs.DataNode$PacketResponder: Received block blk_-1249092431855327988 of size 67108864 from /10.251.123.132
081111 073334 23587 INFO dfs.DataNode$PacketResponder: PacketResponder 2 for block blk_-2340732430393258275 terminating
081111 073334 23587 INFO dfs.DataNode$PacketResponder: Received block blk_-2340732430393258275 of size 67108864 from /10.251.71.193
081111 073334 23588 INFO dfs.DataNode$PacketResponder: PacketResponder 0 for block blk_6182600211594548131 terminating
081111 073334 23588 INFO dfs.DataNode$PacketResponder: Received block blk_6182600211594548131 of size 67108864 from /10.250.7.32
081111 073334 23589 INFO dfs.DataNode$DataXceiver: Receiving block blk_-5996959593348543161 src: /10.251.71.193:47285 dest: /10.251.71.193:50010
081111 073334 23591 INFO dfs.DataNode$DataXceiver: Receiving block blk_-691718415551996161 src: /10.250.19.16:43254 dest: /10.250.19.16:50010
081111 073334 23608 INFO dfs.DataNode$DataXceiver: Receiving block blk_-5996959593348543161 src: /10.251.71.193:40831 dest: /10.251.71.193:50010
081111 073334 23620 INFO dfs.DataNode$PacketResponder: PacketResponder 2 for block blk_6182600211594548131 terminating
081111 073334 23620 INFO dfs.DataNode$PacketResponder: Received block blk_6182600211594548131 of size 67108864 from /10.251.66.3
081111 073334 23626 INFO dfs.DataNode$PacketResponder: PacketResponder 2 for block blk_9100921486512299746 terminating
081111 073334 23626 INFO dfs.DataNode$PacketResponder: Received block blk_9100921486512299746 of size 67108864 from /10.251.66.3
081111 073334 23637 INFO dfs.DataNode$DataXceiver: Receiving block blk_-8916632332773433058 src: /10.251.66.3:35590 dest: /10.251.66.3:50010
081111 073334 23638 INFO dfs.DataNode$DataXceiver: Receiving block blk_-5993236802790650220 src: /10.251.66.3:35591 dest: /10.251.66.3:50010
081111 073334 26 INFO dfs.FSNamesystem: BLOCK* NameSystem.addStoredBlock: blockMap updated: 10.250.6.4:50010 is added to blk_9131217833867956460 size 67108864
081111 073334 26 INFO dfs.FSNamesystem: BLOCK* NameSystem.addStoredBlock: blockMap updated: 10.251.25.237:50010 is added to blk_73767534018136332 size 67108864
081111 073334 26 INFO dfs.FSNamesystem: BLOCK* NameSystem.addStoredBlock: blockMap updated: 10.251.66.3:50010 is added to blk_6182600211594548131 size 67108864
081111 073334 26 INFO dfs.FSNamesystem: BLOCK* NameSystem.addStoredBlock: blockMap updated: 10.251.66.3:50010 is added to blk_9100921486512299746 size 67108864
081111 073334 26 INFO dfs.FSNamesystem: BLOCK* NameSystem.allocateBlock: /user/root/rand6/_temporary/_task_200811101024_0013_m_001237_0/part-01237. blk_-691718415551996161
081111 073334 27 INFO dfs.FSNamesystem: BLOCK* NameSystem.addStoredBlock: blockMap updated: 10.250.14.143:50010 is added to blk_-1249092431855327988 size 67108864
081111 073334 27 INFO dfs.FSNamesystem: BLOCK* NameSystem.addStoredBlock: blockMap updated: 10.250.6.223:50010 is added to blk_4693525487873658355 size 67108864
081111 073334 27 INFO dfs.FSNamesystem: BLOCK* NameSystem.addStoredBlock: blockMap updated: 10.250.7.230:50010 is added to blk_-5741731815374463818 size 67108864
081111 073334 27 INFO dfs.FSNamesystem: BLOCK* NameSystem.allocateBlock: /user/root/rand6/_temporary/_task_200811101024_0013_m_001354_0/part-01354. blk_-7554295248765900526
081111 073334 27 INFO dfs.FSNamesystem: BLOCK* NameSystem.allocateBlock: /user/root/rand6/_temporary/_task_200811101024_0013_m_001429_0/part-01429. blk_-8916632332773433058
081111 073334 28 INFO dfs.FSNamesystem: BLOCK* NameSystem.addStoredBlock: blockMap updated: 10.251.203.166:50010 is added to blk_-61589442443933285 size 67108864
081111 073334 28 INFO dfs.FSNamesystem: BLOCK* NameSystem.addStoredBlock: blockMap updated: 10.251.66.63:50010 is added to blk_73767534018136332 size 67108864
081111 073334 28 INFO dfs.FSNamesystem: BLOCK* NameSystem.addStoredBlock: blockMap updated: 10.251.71.193:50010 is added to blk_-2340732430393258275 size 67108864
081111 073334 29 INFO dfs.FSNamesystem: BLOCK* NameSystem.addStoredBlock: blockMap updated: 10.250.15.101:50010 is added to blk_-2340732430393258275 size 67108864
081111 073334 29 INFO dfs.FSNamesystem: BLOCK* NameSystem.addStoredBlock: blockMap updated: 10.250.7.32:50010 is added to blk_6182600211594548131 size 67108864
081111 073334 29 INFO dfs.FSNamesystem: BLOCK* NameSystem.addStoredBlock: blockMap updated: 10.251.199.159:50010 is added to blk_-61589442443933285 size 67108864
081111 073334 29 INFO dfs.FSNamesystem: BLOCK* NameSystem.addStoredBlock: blockMap updated: 10.251.215.70:50010 is added to blk_73767534018136332 size 67108864
081111 073334 30 INFO dfs.FSNamesystem: BLOCK* NameSystem.addStoredBlock: blockMap updated: 10.251.199.86:50010 is added to blk_6182600211594548131 size 67108864
081111 073334 32 INFO dfs.FSNamesystem: BLOCK* NameSystem.addStoredBlock: blockMap updated: 10.250.7.244:50010 is added to blk_7949512361392824664 size 3539404
081111 073334 32 INFO dfs.FSNamesystem: BLOCK* NameSystem.addStoredBlock: blockMap updated: 10.251.202.181:50010 is added to blk_-5741731815374463818 size 67108864
081111 073334 32 INFO dfs.FSNamesystem: BLOCK* NameSystem.addStoredBlock: blockMap updated: 10.251.215.192:50010 is added to blk_9131217833867956460 size 67108864
081111 073334 32 INFO dfs.FSNamesystem: BLOCK* NameSystem.allocateBlock: /user/root/rand6/_temporary/_task_200811101024_0013_m_001305_0/part-01305. blk_6744779972193811263
081111 073334 32 INFO dfs.FSNamesystem: BLOCK* NameSystem.allocateBlock: /user/root/rand6/_temporary/_task_200811101024_0013_m_001451_0/part-01451. blk_7052451287720319292
081111 073334 33 INFO dfs.FSNamesystem: BLOCK* NameSystem.addStoredBlock: blockMap updated: 10.250.19.16:50010 is added to blk_7221452008377784132 size 67108864
081111 073334 33 INFO dfs.FSNamesystem: BLOCK* NameSystem.addStoredBlock: blockMap updated: 10.251.122.38:50010 is added to blk_-5741731815374463818 size 67108864
081111 073334 33 INFO dfs.FSNamesystem: BLOCK* NameSystem.addStoredBlock: blockMap updated: 10.251.75.228:50010 is added to blk_7221452008377784132 size 67108864
081111 073334 33 INFO dfs.FSNamesystem: BLOCK* NameSystem.allocateBlock: /user/root/rand6/_temporary/_task_200811101024_0013_m_001466_0/part-01466. blk_-5993236802790650220
081111 073334 34 INFO dfs.FSNamesystem: BLOCK* NameSystem.addStoredBlock: blockMap updated: 10.251.194.147:50010 is added to blk_-2340732430393258275 size 67108864
081111 073334 34 INFO dfs.FSNamesystem: BLOCK* NameSystem.addStoredBlock: blockMap updated: 10.251.199.86:50010 is added to blk_-1249092431855327988 size 67108864
081111 073334 34 INFO dfs.FSNamesystem: BLOCK* NameSystem.allocateBlock: /user/root/rand6/_temporary/_task_200811101024_0013_m_001537_0/part-01537. blk_-8058032814958554319
081111 073334 35 INFO dfs.FSNamesystem: BLOCK* NameSystem.addStoredBlock: blockMap updated: 10.250.15.198:50010 is added to blk_-61589442443933285 size 67108864
081111 073334 35 INFO dfs.FSNamesystem: BLOCK* NameSystem.addStoredBlock: blockMap updated: 10.251.110.160:50010 is added to blk_4693525487873658355 size 67108864
081111 073334 35 INFO dfs.FSNamesystem: BLOCK* NameSystem.addStoredBlock: blockMap updated: 10.251.194.147:50010 is added to blk_9131217833867956460 size 67108864
081111 073334 35 INFO dfs.FSNamesystem: BLOCK* NameSystem.addStoredBlock: blockMap updated: 10.251.215.70:50010 is added to blk_1086924137146941984 size 67108864
081111 073334 35 INFO dfs.FSNamesystem: BLOCK* NameSystem.addStoredBlock: blockMap updated: 10.251.38.197:50010 is added to blk_7221452008377784132 size 67108864
081111 073334 35 INFO dfs.FSNamesystem: BLOCK* NameSystem.allocateBlock: /user/root/rand6/_temporary/_task_200811101024_0013_m_001245_0/part-01245. blk_-5996959593348543161
081111 073335 13 INFO dfs.DataBlockScanner: Verification succeeded for blk_-5208796130399016655
081111 073335 22896 INFO dfs.DataNode$DataXceiver: Receiving block blk_6744779972193811263 src: /10.251.215.70:39249 dest: /10.251.215.70:50010
081111 073335 23132 INFO dfs.DataNode$PacketResponder: PacketResponder 2 for block blk_-1249092431855327988 terminating
081111 073335 23132 INFO dfs.DataNode$PacketResponder: Received block blk_-1249092431855327988 of size 67108864 from /10.251.123.132
081111 073335 23147 INFO dfs.DataNode$DataXceiver: Receiving block blk_244443127284671791 src: /10.251.199.245:49372 dest: /10.251.199.245:50010
081111 073335 23147 INFO dfs.DataNode$DataXceiver: Receiving block blk_6396933183478311045 src: /10.251.123.132:58113 dest: /10.251.123.132:50010
081111 073335 23167 INFO dfs.DataNode$PacketResponder: PacketResponder 0 for block blk_-2392504018785670144 terminating
081111 073335 23167 INFO dfs.DataNode$PacketResponder: Received block blk_-2392504018785670144 of size 67108864 from /10.251.91.84
081111 073335 23197 INFO dfs.DataNode$PacketResponder: PacketResponder 1 for block blk_-2464570963007414603 terminating
081111 073335 23197 INFO dfs.DataNode$PacketResponder: Received block blk_-2464570963007414603 of size 67108864 from /10.251.110.160
081111 073335 23219 INFO dfs.DataNode$DataXceiver: Receiving block blk_3100017307625750983 src: /10.251.127.47:48911 dest: /10.251.127.47:50010
081111 073335 23220 INFO dfs.DataNode$DataXceiver: Receiving block blk_7052451287720319292 src: /10.251.199.159:46566 dest: /10.251.199.159:50010
081111 073335 23254 INFO dfs.DataNode$PacketResponder: PacketResponder 2 for block blk_4693525487873658355 terminating
081111 073335 23254 INFO dfs.DataNode$PacketResponder: Received block blk_4693525487873658355 of size 67108864 from /10.251.43.21
081111 073335 23271 INFO dfs.DataNode$DataXceiver: Receiving block blk_2014263734420610408 src: /10.250.11.100:46948 dest: /10.250.11.100:50010
081111 073335 23282 INFO dfs.DataNode$PacketResponder: PacketResponder 1 for block blk_-8607778607145712000 terminating
081111 073335 23282 INFO dfs.DataNode$PacketResponder: Received block blk_-8607778607145712000 of size 67108864 from /10.251.30.85
081111 073335 23284 INFO dfs.DataNode$PacketResponder: PacketResponder 2 for block blk_-2464570963007414603 terminating
081111 073335 23284 INFO dfs.DataNode$PacketResponder: Received block blk_-2464570963007414603 of size 67108864 from /10.251.110.160
081111 073335 23298 INFO dfs.DataNode$PacketResponder: PacketResponder 2 for block blk_3491994706844079529 terminating
081111 073335 23298 INFO dfs.DataNode$PacketResponder: Received block blk_3491994706844079529 of size 67108864 from /10.251.194.147
081111 073335 23309 INFO dfs.DataNode$DataXceiver: Receiving block blk_837198858017576201 src: /10.251.194.147:57738 dest: /10.251.194.147:50010
081111 073335 23320 INFO dfs.DataNode$PacketResponder: PacketResponder 0 for block blk_6685761611930137280 terminating
081111 073335 23320 INFO dfs.DataNode$PacketResponder: Received block blk_6685761611930137280 of size 67108864 from /10.250.11.194
081111 073335 23336 INFO dfs.DataNode$DataXceiver: Receiving block blk_-7741220148458303826 src: /10.251.73.220:49872 dest: /10.251.73.220:50010
081111 073335 23338 INFO dfs.DataNode$PacketResponder: PacketResponder 0 for block blk_6559392513884965201 terminating
081111 073335 23338 INFO dfs.DataNode$PacketResponder: Received block blk_6559392513884965201 of size 67108864 from /10.251.43.115
081111 073335 23356 INFO dfs.DataNode$PacketResponder: PacketResponder 1 for block blk_3491994706844079529 terminating
081111 073335 23356 INFO dfs.DataNode$PacketResponder: Received block blk_3491994706844079529 of size 67108864 from /10.251.194.147
081111 073335 23386 INFO dfs.DataNode$PacketResponder: PacketResponder 1 for block blk_-2260379649394702913 terminating
081111 073335 23386 INFO dfs.DataNode$PacketResponder: Received block blk_-2260379649394702913 of size 67108864 from /10.251.42.84
081111 073335 23387 INFO dfs.DataNode$PacketResponder: PacketResponder 0 for block blk_6331836441362419901 terminating
081111 073335 23387 INFO dfs.DataNode$PacketResponder: Received block blk_6331836441362419901 of size 67108864 from /10.251.70.211
081111 073335 23401 INFO dfs.DataNode$DataXceiver: Receiving block blk_-8058032814958554319 src: /10.251.215.16:36487 dest: /10.251.215.16:50010
081111 073335 23405 INFO dfs.DataNode$DataXceiver: Receiving block blk_5453607161784500183 src: /10.251.215.70:40655 dest: /10.251.215.70:50010
081111 073335 23406 INFO dfs.DataNode$DataXceiver: Receiving block blk_-8058032814958554319 src: /10.251.215.192:49649 dest: /10.251.215.192:50010
081111 073335 23406 INFO dfs.DataNode$PacketResponder: PacketResponder 1 for block blk_6331836441362419901 terminating
081111 073335 23406 INFO dfs.DataNode$PacketResponder: Received block blk_6331836441362419901 of size 67108864 from /10.250.11.100
081111 073335 23408 INFO dfs.DataNode$PacketResponder: PacketResponder 0 for block blk_-2464570963007414603 terminating
081111 073335 23408 INFO dfs.DataNode$PacketResponder: Received block blk_-2464570963007414603 of size 67108864 from /10.251.42.16
081111 073335 23410 INFO dfs.DataNode$PacketResponder: PacketResponder 2 for block blk_6331836441362419901 terminating
081111 073335 23410 INFO dfs.DataNode$PacketResponder: Received block blk_6331836441362419901 of size 67108864 from /10.250.11.100
081111 073335 23421 INFO dfs.DataNode$DataXceiver: Receiving block blk_-3075069510163438913 src: /10.251.197.226:51866 dest: /10.251.197.226:50010
081111 073335 23423 INFO dfs.DataNode$DataXceiver: Receiving block blk_2014263734420610408 src: /10.250.11.100:39946 dest: /10.250.11.100:50010
081111 073335 23423 INFO dfs.DataNode$PacketResponder: PacketResponder 1 for block blk_6559392513884965201 terminating
081111 073335 23423 INFO dfs.DataNode$PacketResponder: Received block blk_6559392513884965201 of size 67108864 from /10.250.10.223
081111 073335 23432 INFO dfs.DataNode$DataXceiver: Receiving block blk_7052451287720319292 src: /10.251.42.16:40273 dest: /10.251.42.16:50010
081111 073335 23454 INFO dfs.DataNode$PacketResponder: PacketResponder 2 for block blk_-197076772756874943 terminating
081111 073335 23454 INFO dfs.DataNode$PacketResponder: Received block blk_-197076772756874943 of size 67108864 from /10.251.199.245
081111 073335 23462 INFO dfs.DataNode$DataXceiver: Receiving block blk_6396933183478311045 src: /10.251.193.175:35287 dest: /10.251.193.175:50010
081111 073335 23462 INFO dfs.DataNode$PacketResponder: PacketResponder 2 for block blk_-2260379649394702913 terminating
081111 073335 23462 INFO dfs.DataNode$PacketResponder: Received block blk_-2260379649394702913 of size 67108864 from /10.251.42.84
081111 073335 23471 INFO dfs.DataNode$DataXceiver: Receiving block blk_244443127284671791 src: /10.251.199.245:54932 dest: /10.251.199.245:50010
081111 073335 23474 INFO dfs.DataNode$DataXceiver: Receiving block blk_3100017307625750983 src: /10.251.30.85:37326 dest: /10.251.30.85:50010
081111 073335 23477 INFO dfs.DataNode$PacketResponder: PacketResponder 1 for block blk_-2392504018785670144 terminating
081111 073335 23477 INFO dfs.DataNode$PacketResponder: Received block blk_-2392504018785670144 of size 67108864 from /10.251.42.84
081111 073335 23526 INFO dfs.DataNode$DataXceiver: Receiving block blk_9039661373708692031 src: /10.250.7.244:48509 dest: /10.250.7.244:50010
081111 073335 23562 INFO dfs.DataNode$DataXceiver: Receiving block blk_6396933183478311045 src: /10.251.123.132:56752 dest: /10.251.123.132:50010
081111 073335 23581 INFO dfs.DataNode$DataXceiver: Receiving block blk_-3075069510163438913 src: /10.250.14.143:36192 dest: /10.250.14.143:50010
081111 073335 23684 INFO dfs.DataNode$DataXceiver: Receiving block blk_-5993236802790650220 src: /10.250.14.196:50372 dest: /10.250.14.196:50010
081111 073335 23823 INFO dfs.DataNode$PacketResponder: PacketResponder 1 for block blk_-197076772756874943 terminating
081111 073335 23823 INFO dfs.DataNode$PacketResponder: Received block blk_-197076772756874943 of size 67108864 from /10.251.199.245
081111 073335 23827 INFO dfs.DataNode$PacketResponder: PacketResponder 0 for block blk_-8607778607145712000 terminating
081111 073335 23827 INFO dfs.DataNode$PacketResponder: Received block blk_-8607778607145712000 of size 67108864 from /10.251.110.160
081111 073335 23829 INFO dfs.DataNode$PacketResponder: PacketResponder 1 for block blk_6685761611930137280 terminating
081111 073335 23829 INFO dfs.DataNode$PacketResponder: Received block blk_6685761611930137280 of size 67108864 from /10.251.42.9
081111 073335 23835 INFO dfs.DataNode$PacketResponder: PacketResponder 0 for block blk_-2260379649394702913 terminating
081111 073335 23835 INFO dfs.DataNode$PacketResponder: Received block blk_-2260379649394702913 of size 67108864 from /10.251.215.16
081111 073335 26 INFO dfs.FSNamesystem: BLOCK* NameSystem.addStoredBlock: blockMap updated: 10.250.10.176:50010 is added to blk_6559392513884965201 size 67108864
081111 073335 26 INFO dfs.FSNamesystem: BLOCK* NameSystem.addStoredBlock: blockMap updated: 10.250.11.100:50010 is added to blk_-2464570963007414603 size 67108864
081111 073335 26 INFO dfs.FSNamesystem: BLOCK* NameSystem.addStoredBlock: blockMap updated: 10.251.194.147:50010 is added to blk_3491994706844079529 size 67108864
081111 073335 26 INFO dfs.FSNamesystem: BLOCK* NameSystem.addStoredBlock: blockMap updated: 10.251.91.84:50010 is added to blk_-2392504018785670144 size 67108864
081111 073335 27 INFO dfs.FSNamesystem: BLOCK* NameSystem.addStoredBlock: blockMap updated: 10.250.11.194:50010 is added to blk_-197076772756874943 size 67108864
081111 073335 27 INFO dfs.FSNamesystem: BLOCK* NameSystem.addStoredBlock: blockMap updated: 10.250.11.194:50010 is added to blk_-2260379649394702913 size 67108864
081111 073335 27 INFO dfs.FSNamesystem: BLOCK* NameSystem.addStoredBlock: blockMap updated: 10.250.11.194:50010 is added to blk_-8607778607145712000 size 67108864
081111 073335 27 INFO dfs.FSNamesystem: BLOCK* NameSystem.addStoredBlock: blockMap updated: 10.251.90.239:50010 is added to blk_6685761611930137280 size 67108864
081111 073335 28 INFO dfs.FSNamesystem: BLOCK* NameSystem.addStoredBlock: blockMap updated: 10.251.199.245:50010 is added to blk_-197076772756874943 size 67108864
081111 073335 28 INFO dfs.FSNamesystem: BLOCK* NameSystem.allocateBlock: /user/root/rand6/_temporary/_task_200811101024_0013_m_001285_0/part-01285. blk_1801724826728429233
081111 073335 29 INFO dfs.FSNamesystem: BLOCK* NameSystem.addStoredBlock: blockMap updated: 10.251.110.160:50010 is added to blk_-2464570963007414603 size 67108864
081111 073335 29 INFO dfs.FSNamesystem: BLOCK* NameSystem.addStoredBlock: blockMap updated: 10.251.30.85:50010 is added to blk_-8607778607145712000 size 67108864
081111 073335 29 INFO dfs.FSNamesystem: BLOCK* NameSystem.addStoredBlock: blockMap updated: 10.251.70.211:50010 is added to blk_6331836441362419901 size 67108864
081111 073335 30 INFO dfs.FSNamesystem: BLOCK* NameSystem.addStoredBlock: blockMap updated: 10.250.11.194:50010 is added to blk_6685761611930137280 size 67108864
081111 073335 30 INFO dfs.FSNamesystem: BLOCK* NameSystem.allocateBlock: /user/root/rand6/_temporary/_task_200811101024_0013_m_001468_0/part-01468. blk_837198858017576201
081111 073335 30 INFO dfs.FSNamesystem: BLOCK* NameSystem.allocateBlock: /user/root/rand6/_temporary/_task_200811101024_0013_m_001505_0/part-01505. blk_-1282963612694456259
081111 073335 31 INFO dfs.FSNamesystem: BLOCK* NameSystem.addStoredBlock: blockMap updated: 10.251.110.160:50010 is added to blk_-8607778607145712000 size 67108864
081111 073335 31 INFO dfs.FSNamesystem: BLOCK* NameSystem.addStoredBlock: blockMap updated: 10.251.127.191:50010 is added to blk_6331836441362419901 size 67108864
081111 073335 31 INFO dfs.FSNamesystem: BLOCK* NameSystem.addStoredBlock: blockMap updated: 10.251.215.16:50010 is added to blk_3491994706844079529 size 67108864
081111 073335 31 INFO dfs.FSNamesystem: BLOCK* NameSystem.addStoredBlock: blockMap updated: 10.251.43.21:50010 is added to blk_4693525487873658355 size 67108864
081111 073335 31 INFO dfs.FSNamesystem: BLOCK* NameSystem.allocateBlock: /user/root/rand6/_temporary/_task_200811101024_0013_m_001493_0/part-01493. blk_244443127284671791
081111 073335 32 INFO dfs.FSNamesystem: BLOCK* NameSystem.addStoredBlock: blockMap updated: 10.250.11.100:50010 is added to blk_6331836441362419901 size 67108864
081111 073335 32 INFO dfs.FSNamesystem: BLOCK* NameSystem.addStoredBlock: blockMap updated: 10.251.215.16:50010 is added to blk_-2260379649394702913 size 67108864
081111 073335 32 INFO dfs.FSNamesystem: BLOCK* NameSystem.allocateBlock: /user/root/rand6/_temporary/_task_200811101024_0013_m_001176_0/part-01176. blk_6396933183478311045
081111 073335 32 INFO dfs.FSNamesystem: BLOCK* NameSystem.allocateBlock: /user/root/rand6/_temporary/_task_200811101024_0013_m_001515_0/part-01515. blk_3100017307625750983
081111 073335 33 INFO dfs.FSNamesystem: BLOCK* NameSystem.addStoredBlock: blockMap updated: 10.251.42.16:50010 is added to blk_-2464570963007414603 size 67108864
081111 073335 33 INFO dfs.FSNamesystem: BLOCK* NameSystem.addStoredBlock: blockMap updated: 10.251.43.115:50010 is added to blk_6559392513884965201 size 67108864
081111 073335 34 INFO dfs.FSNamesystem: BLOCK* NameSystem.addStoredBlock: blockMap updated: 10.251.123.132:50010 is added to blk_-1249092431855327988 size 67108864
081111 073335 34 INFO dfs.FSNamesystem: BLOCK* NameSystem.addStoredBlock: blockMap updated: 10.251.26.177:50010 is added to blk_3491994706844079529 size 67108864
081111 073335 34 INFO dfs.FSNamesystem: BLOCK* NameSystem.addStoredBlock: blockMap updated: 10.251.67.113:50010 is added to blk_-2392504018785670144 size 67108864
081111 073335 34 INFO dfs.FSNamesystem: BLOCK* NameSystem.allocateBlock: /user/root/rand6/_temporary/_task_200811101024_0013_m_001387_0/part-01387. blk_2014263734420610408
081111 073335 8524 INFO dfs.DataNode$PacketResponder: PacketResponder 2 for block blk_-8607778607145712000 terminating
081111 073335 8524 INFO dfs.DataNode$PacketResponder: Received block blk_-8607778607145712000 of size 67108864 from /10.251.30.85
081111 073335 8558 INFO dfs.DataNode$DataXceiver: Receiving block blk_3100017307625750983 src: /10.251.30.85:59600 dest: /10.251.30.85:50010
081111 073336 23064 INFO dfs.DataNode$PacketResponder: PacketResponder 0 for block blk_-9107196416517274029 terminating
081111 073336 23064 INFO dfs.DataNode$PacketResponder: Received block blk_-9107196416517274029 of size 67108864 from /10.251.126.83
081111 073336 23091 INFO dfs.DataNode$PacketResponder: PacketResponder 0 for block blk_934580526748098826 terminating
081111 073336 23091 INFO dfs.DataNode$PacketResponder: Received block blk_934580526748098826 of size 67108864 from /10.251.66.63
081111 073336 23094 INFO dfs.DataNode$DataXceiver: Receiving block blk_-1282963612694456259 src: /10.251.199.245:59530 dest: /10.251.199.245:50010
081111 073336 23155 INFO dfs.DataNode$PacketResponder: PacketResponder 2 for block blk_6685761611930137280 terminating
081111 073336 23155 INFO dfs.DataNode$PacketResponder: Received block blk_6685761611930137280 of size 67108864 from /10.251.42.9
081111 073336 23165 INFO dfs.DataNode$PacketResponder: PacketResponder 0 for block blk_-5164854017164190357 terminating
081111 073336 23165 INFO dfs.DataNode$PacketResponder: Received block blk_-5164854017164190357 of size 3542631 from /10.250.7.146
081111 073336 23172 INFO dfs.DataNode$DataXceiver: Receiving block blk_2360113364946730051 src: /10.251.42.9:44244 dest: /10.251.42.9:50010
081111 073336 23182 INFO dfs.DataNode$PacketResponder: PacketResponder 1 for block blk_3032645126979955179 terminating
081111 073336 23182 INFO dfs.DataNode$PacketResponder: Received block blk_3032645126979955179 of size 67108864 from /10.251.214.130
081111 073336 23185 INFO dfs.DataNode$DataXceiver: Receiving block blk_-7554295248765900526 src: /10.251.66.63:32877 dest: /10.251.66.63:50010
081111 073336 23208 INFO dfs.DataNode$PacketResponder: PacketResponder 1 for block blk_1086924137146941984 terminating
081111 073336 23208 INFO dfs.DataNode$PacketResponder: Received block blk_1086924137146941984 of size 67108864 from /10.251.26.8
081111 073336 23269 INFO dfs.DataNode$DataXceiver: Receiving block blk_7039662903538802880 src: /10.251.43.21:55968 dest: /10.251.43.21:50010
081111 073336 23270 INFO dfs.DataNode$PacketResponder: PacketResponder 2 for block blk_-3075069510163438913 terminating
081111 073336 23270 INFO dfs.DataNode$PacketResponder: Received block blk_-3075069510163438913 of size 3548142 from /10.250.14.143
081111 073336 23279 INFO dfs.DataNode$PacketResponder: PacketResponder 2 for block blk_-9107196416517274029 terminating
081111 073336 23279 INFO dfs.DataNode$PacketResponder: Received block blk_-9107196416517274029 of size 67108864 from /10.251.193.224
081111 073336 23286 INFO dfs.DataNode$DataXceiver: Receiving block blk_2014263734420610408 src: /10.251.70.5:47620 dest: /10.251.70.5:50010
081111 073336 23287 INFO dfs.DataNode$DataXceiver: Receiving block blk_465351849792214277 src: /10.251.193.224:53801 dest: /10.251.193.224:50010
081111 073336 23292 INFO dfs.DataNode$DataXceiver: Receiving block blk_8013371115581429141 src: /10.250.10.6:47103 dest: /10.250.10.6:50010
081111 073336 23295 INFO dfs.DataNode$DataXceiver: Receiving block blk_1801724826728429233 src: /10.251.110.160:45340 dest: /10.251.110.160:50010
081111 073336 23299 INFO dfs.DataNode$PacketResponder: PacketResponder 0 for block blk_-5636150083797270866 terminating
081111 073336 23299 INFO dfs.DataNode$PacketResponder: Received block blk_-5636150083797270866 of size 67108864 from /10.251.90.81
081111 073336 23309 INFO dfs.DataNode$PacketResponder: PacketResponder 2 for block blk_6559392513884965201 terminating
081111 073336 23309 INFO dfs.DataNode$PacketResponder: Received block blk_6559392513884965201 of size 67108864 from /10.250.10.223
081111 073336 23322 INFO dfs.DataNode$DataXceiver: Receiving block blk_-4775914925348642713 src: /10.250.10.223:42840 dest: /10.250.10.223:50010
081111 073336 23325 INFO dfs.DataNode$PacketResponder: PacketResponder 2 for block blk_3032645126979955179 terminating
081111 073336 23325 INFO dfs.DataNode$PacketResponder: Received block blk_3032645126979955179 of size 67108864 from /10.251.214.130
081111 073336 23338 INFO dfs.DataNode$DataXceiver: Receiving block blk_-877544683815214902 src: /10.251.26.131:50972 dest: /10.251.26.131:50010
081111 073336 23340 INFO dfs.DataNode$PacketResponder: PacketResponder 0 for block blk_3032645126979955179 terminating
081111 073336 23340 INFO dfs.DataNode$PacketResponder: Received block blk_3032645126979955179 of size 67108864 from /10.250.10.100
081111 073336 23356 INFO dfs.DataNode$DataXceiver: Receiving block blk_8013371115581429141 src: /10.250.10.144:56325 dest: /10.250.10.144:50010
081111 073336 23382 INFO dfs.DataNode$DataXceiver: Receiving block blk_2360113364946730051 src: /10.251.42.9:57708 dest: /10.251.42.9:50010
081111 073336 23382 INFO dfs.DataNode$PacketResponder: PacketResponder 1 for block blk_934580526748098826 terminating
081111 073336 23382 INFO dfs.DataNode$PacketResponder: Received block blk_934580526748098826 of size 67108864 from /10.251.65.237
081111 073336 23389 INFO dfs.DataNode$PacketResponder: PacketResponder 2 for block blk_934580526748098826 terminating
081111 073336 23389 INFO dfs.DataNode$PacketResponder: Received block blk_934580526748098826 of size 67108864 from /10.251.65.237
081111 073336 23396 INFO dfs.DataNode$DataXceiver: Receiving block blk_-3484422401873341682 src: /10.251.65.237:49321 dest: /10.251.65.237:50010
081111 073336 23422 INFO dfs.DataNode$PacketResponder: PacketResponder 0 for block blk_-3075069510163438913 terminating
081111 073336 23422 INFO dfs.DataNode$PacketResponder: Received block blk_-3075069510163438913 of size 3548142 from /10.251.197.226
081111 073336 23428 INFO dfs.DataNode$PacketResponder: PacketResponder 1 for block blk_4355642923129624459 terminating
081111 073336 23428 INFO dfs.DataNode$PacketResponder: Received block blk_4355642923129624459 of size 67108864 from /10.250.10.144
081111 073336 23465 INFO dfs.DataNode$DataXceiver: Receiving block blk_-6954257483704918166 src: /10.251.123.195:49036 dest: /10.251.123.195:50010
081111 073336 23472 INFO dfs.DataNode$DataXceiver: Receiving block blk_-1282963612694456259 src: /10.251.42.84:36888 dest: /10.251.42.84:50010
081111 073336 23472 INFO dfs.DataNode$PacketResponder: PacketResponder 2 for block blk_-2392504018785670144 terminating
081111 073336 23472 INFO dfs.DataNode$PacketResponder: Received block blk_-2392504018785670144 of size 67108864 from /10.251.42.84
081111 073336 23475 INFO dfs.DataNode$DataXceiver: Receiving block blk_-1282963612694456259 src: /10.251.42.84:39507 dest: /10.251.42.84:50010
081111 073336 23476 INFO dfs.DataNode$DataXceiver: Receiving block blk_991681712691357413 src: /10.251.42.84:39508 dest: /10.251.42.84:50010
081111 073336 23485 INFO dfs.DataNode$DataXceiver: Receiving block blk_1801724826728429233 src: /10.251.110.160:57515 dest: /10.251.110.160:50010
081111 073336 23504 INFO dfs.DataNode$DataXceiver: Receiving block blk_-4775914925348642713 src: /10.250.10.223:35727 dest: /10.250.10.223:50010
081111 073336 23528 INFO dfs.DataNode$PacketResponder: PacketResponder 0 for block blk_-3058999126228682722 terminating
081111 073336 23528 INFO dfs.DataNode$PacketResponder: Received block blk_-3058999126228682722 of size 67108864 from /10.251.214.18
081111 073336 23559 INFO dfs.DataNode$PacketResponder: PacketResponder 1 for block blk_-9107196416517274029 terminating
081111 073336 23559 INFO dfs.DataNode$PacketResponder: Received block blk_-9107196416517274029 of size 67108864 from /10.251.193.224
081111 073336 23561 INFO dfs.DataNode$PacketResponder: PacketResponder 1 for block blk_-804406684228212804 terminating
081111 073336 23561 INFO dfs.DataNode$PacketResponder: Received block blk_-804406684228212804 of size 67108864 from /10.250.18.114
081111 073336 23566 INFO dfs.DataNode$PacketResponder: PacketResponder 0 for block blk_4355642923129624459 terminating
081111 073336 23566 INFO dfs.DataNode$PacketResponder: Received block blk_4355642923129624459 of size 67108864 from /10.251.195.70
081111 073336 23579 INFO dfs.DataNode$PacketResponder: PacketResponder 1 for block blk_-5636150083797270866 terminating
081111 073336 23579 INFO dfs.DataNode$PacketResponder: Received block blk_-5636150083797270866 of size 67108864 from /10.250.19.227
081111 073336 23582 INFO dfs.DataNode$PacketResponder: PacketResponder 1 for block blk_-3075069510163438913 terminating
081111 073336 23582 INFO dfs.DataNode$PacketResponder: Received block blk_-3075069510163438913 of size 3548142 from /10.250.14.143
081111 073336 23598 INFO dfs.DataNode$PacketResponder: PacketResponder 0 for block blk_-804406684228212804 terminating
081111 073336 23598 INFO dfs.DataNode$PacketResponder: Received block blk_-804406684228212804 of size 67108864 from /10.251.75.79
081111 073336 23610 INFO dfs.DataNode$DataXceiver: Receiving block blk_991681712691357413 src: /10.251.42.84:46800 dest: /10.251.42.84:50010
081111 073336 23675 INFO dfs.DataNode$PacketResponder: PacketResponder 2 for block blk_4355642923129624459 terminating
081111 073336 23675 INFO dfs.DataNode$PacketResponder: Received block blk_4355642923129624459 of size 67108864 from /10.250.10.144
081111 073336 23686 INFO dfs.DataNode$DataXceiver: Receiving block blk_8013371115581429141 src: /10.250.10.144:39641 dest: /10.250.10.144:50010
081111 073336 23751 INFO dfs.DataNode$DataXceiver: Receiving block blk_-7554295248765900526 src: /10.251.39.192:58264 dest: /10.251.39.192:50010
081111 073336 26 INFO dfs.FSNamesystem: BLOCK* NameSystem.addStoredBlock: blockMap updated: 10.250.11.100:50010 is added to blk_-3075069510163438913 size 3548142
081111 073336 26 INFO dfs.FSNamesystem: BLOCK* NameSystem.addStoredBlock: blockMap updated: 10.250.14.143:50010 is added to blk_-3075069510163438913 size 3548142
081111 073336 26 INFO dfs.FSNamesystem: BLOCK* NameSystem.addStoredBlock: blockMap updated: 10.251.126.83:50010 is added to blk_-9107196416517274029 size 67108864
081111 073336 26 INFO dfs.FSNamesystem: BLOCK* NameSystem.addStoredBlock: blockMap updated: 10.251.42.84:50010 is added to blk_-2260379649394702913 size 67108864
081111 073336 26 INFO dfs.FSNamesystem: BLOCK* NameSystem.addStoredBlock: blockMap updated: 10.251.90.64:50010 is added to blk_-5164854017164190357 size 3542631
081111 073336 26 INFO dfs.FSNamesystem: BLOCK* NameSystem.allocateBlock: /user/root/rand6/_temporary/_task_200811101024_0013_m_001174_0/part-01174. blk_-4775914925348642713
081111 073336 27 INFO dfs.FSNamesystem: BLOCK* NameSystem.addStoredBlock: blockMap updated: 10.251.42.84:50010 is added to blk_-2392504018785670144 size 67108864
081111 073336 27 INFO dfs.FSNamesystem: BLOCK* NameSystem.addStoredBlock: blockMap updated: 10.251.75.79:50010 is added to blk_4355642923129624459 size 67108864
081111 073336 27 INFO dfs.FSNamesystem: BLOCK* NameSystem.addStoredBlock: blockMap updated: 10.251.75.79:50010 is added to blk_-804406684228212804 size 67108864
081111 073336 27 INFO dfs.FSNamesystem: BLOCK* NameSystem.allocateBlock: /user/root/rand6/_temporary/_task_200811101024_0013_m_001213_0/part-01213. blk_2360113364946730051
081111 073336 27 INFO dfs.FSNamesystem: BLOCK* NameSystem.allocateBlock: /user/root/rand6/_temporary/_task_200811101024_0013_m_001521_0/part-01521. blk_7039662903538802880
081111 073336 28 INFO dfs.FSNamesystem: BLOCK* NameSystem.addStoredBlock: blockMap updated: 10.251.42.9:50010 is added to blk_6685761611930137280 size 67108864
081111 073336 28 INFO dfs.FSNamesystem: BLOCK* NameSystem.addStoredBlock: blockMap updated: 10.251.65.203:50010 is added to blk_1086924137146941984 size 67108864
081111 073336 29 INFO dfs.FSNamesystem: BLOCK* NameSystem.addStoredBlock: blockMap updated: 10.251.195.70:50010 is added to blk_4355642923129624459 size 67108864
081111 073336 29 INFO dfs.FSNamesystem: BLOCK* NameSystem.addStoredBlock: blockMap updated: 10.251.26.8:50010 is added to blk_-3058999126228682722 size 67108864
081111 073336 29 INFO dfs.FSNamesystem: BLOCK* NameSystem.allocateBlock: /user/root/rand6/_temporary/_task_200811101024_0013_m_001320_0/part-01320. blk_-3484422401873341682
081111 073336 30 INFO dfs.FSNamesystem: BLOCK* NameSystem.addStoredBlock: blockMap updated: 10.250.10.223:50010 is added to blk_6559392513884965201 size 67108864
081111 073336 30 INFO dfs.FSNamesystem: BLOCK* NameSystem.addStoredBlock: blockMap updated: 10.251.214.130:50010 is added to blk_3032645126979955179 size 67108864
081111 073336 30 INFO dfs.FSNamesystem: BLOCK* NameSystem.addStoredBlock: blockMap updated: 10.251.39.209:50010 is added to blk_934580526748098826 size 67108864
081111 073336 31 INFO dfs.FSNamesystem: BLOCK* NameSystem.addStoredBlock: blockMap updated: 10.251.29.239:50010 is added to blk_-5636150083797270866 size 67108864
081111 073336 31 INFO dfs.FSNamesystem: BLOCK* NameSystem.allocateBlock: /user/root/rand6/_temporary/_task_200811101024_0013_m_001255_0/part-01255. blk_8013371115581429141
081111 073336 31 INFO dfs.FSNamesystem: BLOCK* NameSystem.allocateBlock: /user/root/rand6/_temporary/_task_200811101024_0013_m_001406_0/part-01406. blk_465351849792214277
081111 073336 32 INFO dfs.FSNamesystem: BLOCK* NameSystem.addStoredBlock: blockMap updated: 10.251.65.237:50010 is added to blk_934580526748098826 size 67108864
081111 073336 32 INFO dfs.FSNamesystem: BLOCK* NameSystem.allocateBlock: /user/root/rand6/_temporary/_task_200811101024_0013_m_001563_0/part-01563. blk_-877544683815214902
081111 073336 33 INFO dfs.FSNamesystem: BLOCK* NameSystem.addStoredBlock: blockMap updated: 10.251.90.81:50010 is added to blk_-5636150083797270866 size 67108864
081111 073336 34 INFO dfs.FSNamesystem: BLOCK* NameSystem.addStoredBlock: blockMap updated: 10.250.10.100:50010 is added to blk_3032645126979955179 size 67108864
081111 073336 34 INFO dfs.FSNamesystem: BLOCK* NameSystem.addStoredBlock: blockMap updated: 10.251.107.19:50010 is added to blk_-804406684228212804 size 67108864
081111 073336 34 INFO dfs.FSNamesystem: BLOCK* NameSystem.addStoredBlock: blockMap updated: 10.251.197.161:50010 is added to blk_-9107196416517274029 size 67108864
081111 073336 34 INFO dfs.FSNamesystem: BLOCK* NameSystem.addStoredBlock: blockMap updated: 10.251.197.226:50010 is added to blk_-3075069510163438913 size 3548142
081111 073336 34 INFO dfs.FSNamesystem: BLOCK* NameSystem.allocateBlock: /user/root/rand6/_temporary/_task_200811101024_0013_m_001191_0/part-01191. blk_991681712691357413
081111 073336 35 INFO dfs.FSNamesystem: BLOCK* NameSystem.addStoredBlock: blockMap updated: 10.250.10.144:50010 is added to blk_4355642923129624459 size 67108864
081111 073336 35 INFO dfs.FSNamesystem: BLOCK* NameSystem.addStoredBlock: blockMap updated: 10.250.10.176:50010 is added to blk_3032645126979955179 size 67108864
081111 073336 35 INFO dfs.FSNamesystem: BLOCK* NameSystem.addStoredBlock: blockMap updated: 10.251.193.224:50010 is added to blk_-9107196416517274029 size 67108864
081111 073336 35 INFO dfs.FSNamesystem: BLOCK* NameSystem.addStoredBlock: blockMap updated: 10.251.66.63:50010 is added to blk_934580526748098826 size 67108864
081111 073336 8560 INFO dfs.DataNode$DataXceiver: Receiving block blk_-877544683815214902 src: /10.251.26.131:34444 dest: /10.251.26.131:50010
081111 073337 22108 INFO dfs.DataNode$PacketResponder: PacketResponder 0 for block blk_3870444299342691292 terminating
081111 073337 22108 INFO dfs.DataNode$PacketResponder: Received block blk_3870444299342691292 of size 67108864 from /10.251.39.179
081111 073337 22808 INFO dfs.DataNode$PacketResponder: PacketResponder 1 for block blk_1342175766768594168 terminating
081111 073337 22808 INFO dfs.DataNode$PacketResponder: Received block blk_1342175766768594168 of size 67108864 from /10.251.195.70
081111 073337 22816 INFO dfs.DataNode$PacketResponder: PacketResponder 1 for block blk_8460451136861358800 terminating
081111 073337 22816 INFO dfs.DataNode$PacketResponder: Received block blk_8460451136861358800 of size 67108864 from /10.251.122.79
081111 073337 23060 INFO dfs.DataNode$PacketResponder: PacketResponder 0 for block blk_-5959796335963962056 terminating
081111 073337 23060 INFO dfs.DataNode$PacketResponder: Received block blk_-5959796335963962056 of size 67108864 from /10.250.6.223
081111 073337 23081 INFO dfs.DataNode$DataXceiver: Receiving block blk_-3484422401873341682 src: /10.250.6.4:43901 dest: /10.250.6.4:50010
081111 073337 23083 INFO dfs.DataNode$DataXceiver: Receiving block blk_-2162440392719959140 src: /10.251.197.226:60653 dest: /10.251.197.226:50010
081111 073337 23170 INFO dfs.DataNode$DataXceiver: Receiving block blk_-3611403515468035221 src: /10.251.65.203:51990 dest: /10.251.65.203:50010
081111 073337 23185 INFO dfs.DataNode$DataXceiver: Receiving block blk_244443127284671791 src: /10.251.107.98:38711 dest: /10.251.107.98:50010
081111 073337 23193 INFO dfs.DataNode$PacketResponder: PacketResponder 1 for block blk_-5164854017164190357 terminating
081111 073337 23193 INFO dfs.DataNode$PacketResponder: Received block blk_-5164854017164190357 of size 3542631 from /10.251.39.64
081111 073337 23194 INFO dfs.DataNode$DataXceiver: Receiving block blk_837198858017576201 src: /10.251.194.147:43350 dest: /10.251.194.147:50010
081111 073337 23227 INFO dfs.DataNode$DataXceiver: Receiving block blk_-3611403515468035221 src: /10.251.26.8:46852 dest: /10.251.26.8:50010
081111 073337 23232 INFO dfs.DataNode$PacketResponder: PacketResponder 2 for block blk_-5164854017164190357 terminating
081111 073337 23232 INFO dfs.DataNode$PacketResponder: Received block blk_-5164854017164190357 of size 3542631 from /10.251.39.64
081111 073337 23251 INFO dfs.DataNode$DataXceiver: Receiving block blk_465351849792214277 src: /10.251.193.224:45782 dest: /10.251.193.224:50010
081111 073337 23254 INFO dfs.DataNode$PacketResponder: PacketResponder 2 for block blk_-5959796335963962056 terminating
081111 073337 23254 INFO dfs.DataNode$PacketResponder: Received block blk_-5959796335963962056 of size 67108864 from /10.251.30.179
081111 073337 23262 INFO dfs.DataNode$PacketResponder: PacketResponder 2 for block blk_-3955679556058314947 terminating
081111 073337 23262 INFO dfs.DataNode$PacketResponder: Received block blk_-3955679556058314947 of size 67108864 from /10.251.74.79
081111 073337 23273 INFO dfs.DataNode$DataXceiver: Receiving block blk_7888125206290011903 src: /10.251.74.79:47738 dest: /10.251.74.79:50010
081111 073337 23289 INFO dfs.DataNode$DataXceiver: Receiving block blk_837198858017576201 src: /10.251.214.225:41366 dest: /10.251.214.225:50010
081111 073337 23295 INFO dfs.DataNode$PacketResponder: PacketResponder 0 for block blk_8460451136861358800 terminating
081111 073337 23295 INFO dfs.DataNode$PacketResponder: Received block blk_8460451136861358800 of size 67108864 from /10.251.203.179
081111 073337 23332 INFO dfs.DataNode$DataXceiver: Receiving block blk_-5442867938594213179 src: /10.251.214.130:59779 dest: /10.251.214.130:50010
081111 073337 23369 INFO dfs.DataNode$DataXceiver: Receiving block blk_-3484422401873341682 src: /10.251.65.237:49351 dest: /10.251.65.237:50010
081111 073337 23387 INFO dfs.DataNode$DataXceiver: Receiving block blk_-6763621222968941687 src: /10.251.194.129:56943 dest: /10.251.194.129:50010
081111 073337 23401 INFO dfs.DataNode$PacketResponder: PacketResponder 0 for block blk_-4360283761337057602 terminating
081111 073337 23401 INFO dfs.DataNode$PacketResponder: Received block blk_-4360283761337057602 of size 67108864 from /10.250.7.230
081111 073337 23403 INFO dfs.DataNode$DataXceiver: Receiving block blk_-4775914925348642713 src: /10.250.5.237:57256 dest: /10.250.5.237:50010
081111 073337 23420 INFO dfs.DataNode$PacketResponder: PacketResponder 2 for block blk_1342175766768594168 terminating
081111 073337 23420 INFO dfs.DataNode$PacketResponder: Received block blk_1342175766768594168 of size 67108864 from /10.251.195.70
081111 073337 23440 INFO dfs.DataNode$PacketResponder: PacketResponder 1 for block blk_-5959796335963962056 terminating
081111 073337 23440 INFO dfs.DataNode$PacketResponder: Received block blk_-5959796335963962056 of size 67108864 from /10.251.30.179
081111 073337 23445 INFO dfs.DataNode$PacketResponder: PacketResponder 0 for block blk_-3955679556058314947 terminating
081111 073337 23445 INFO dfs.DataNode$PacketResponder: Received block blk_-3955679556058314947 of size 67108864 from /10.251.199.159
081111 073337 23477 INFO dfs.DataNode$DataXceiver: Receiving block blk_7888125206290011903 src: /10.251.74.79:53271 dest: /10.251.74.79:50010
081111 073337 23477 INFO dfs.DataNode$PacketResponder: PacketResponder 1 for block blk_3870444299342691292 terminating
081111 073337 23477 INFO dfs.DataNode$PacketResponder: Received block blk_3870444299342691292 of size 67108864 from /10.251.106.50
081111 073337 23484 INFO dfs.DataNode$DataXceiver: Receiving block blk_7888125206290011903 src: /10.251.127.47:49920 dest: /10.251.127.47:50010
081111 073337 23499 INFO dfs.DataNode$PacketResponder: PacketResponder 1 for block blk_-3955679556058314947 terminating
081111 073337 23499 INFO dfs.DataNode$PacketResponder: Received block blk_-3955679556058314947 of size 67108864 from /10.251.74.79
081111 073337 23505 INFO dfs.DataNode$PacketResponder: PacketResponder 0 for block blk_3826620512442608332 terminating
081111 073337 23505 INFO dfs.DataNode$PacketResponder: Received block blk_3826620512442608332 of size 67108864 from /10.251.202.134
081111 073337 23522 INFO dfs.DataNode$PacketResponder: PacketResponder 2 for block blk_1086924137146941984 terminating
081111 073337 23522 INFO dfs.DataNode$PacketResponder: Received block blk_1086924137146941984 of size 67108864 from /10.251.26.8
081111 073337 23524 INFO dfs.DataNode$PacketResponder: PacketResponder 0 for block blk_1342175766768594168 terminating
081111 073337 23524 INFO dfs.DataNode$PacketResponder: Received block blk_1342175766768594168 of size 67108864 from /10.251.203.179
081111 073337 23545 INFO dfs.DataNode$DataXceiver: Receiving block blk_1801724826728429233 src: /10.250.7.230:45136 dest: /10.250.7.230:50010
081111 073337 23546 INFO dfs.DataNode$DataXceiver: Receiving block blk_-5442867938594213179 src: /10.251.214.130:48869 dest: /10.251.214.130:50010
081111 073337 23548 INFO dfs.DataNode$DataXceiver: Receiving block blk_-3611403515468035221 src: /10.251.26.8:60469 dest: /10.251.26.8:50010
081111 073337 23549 INFO dfs.DataNode$DataXceiver: Receiving block blk_465351849792214277 src: /10.251.111.80:57446 dest: /10.251.111.80:50010
081111 073337 23554 INFO dfs.DataNode$PacketResponder: PacketResponder 0 for block blk_-2629575861623295590 terminating
081111 073337 23554 INFO dfs.DataNode$PacketResponder: Received block blk_-2629575861623295590 of size 67108864 from /10.251.39.242
081111 073337 23558 INFO dfs.DataNode$PacketResponder: PacketResponder 2 for block blk_-804406684228212804 terminating
081111 073337 23558 INFO dfs.DataNode$PacketResponder: Received block blk_-804406684228212804 of size 67108864 from /10.250.18.114
081111 073337 23569 INFO dfs.DataNode$DataXceiver: Receiving block blk_-2162440392719959140 src: /10.250.18.114:34982 dest: /10.250.18.114:50010
081111 073337 23574 INFO dfs.DataNode$DataXceiver: Receiving block blk_2360113364946730051 src: /10.250.7.32:33411 dest: /10.250.7.32:50010
081111 073337 23583 INFO dfs.DataNode$DataXceiver: Receiving block blk_-2162440392719959140 src: /10.250.18.114:36125 dest: /10.250.18.114:50010
081111 073337 23777 INFO dfs.DataNode$DataXceiver: Receiving block blk_991681712691357413 src: /10.251.71.193:48436 dest: /10.251.71.193:50010
081111 073337 26 INFO dfs.FSNamesystem: BLOCK* NameSystem.addStoredBlock: blockMap updated: 10.251.106.10:50010 is added to blk_3870444299342691292 size 67108864
081111 073337 26 INFO dfs.FSNamesystem: BLOCK* NameSystem.addStoredBlock: blockMap updated: 10.251.29.239:50010 is added to blk_8460451136861358800 size 67108864
081111 073337 27 INFO dfs.FSNamesystem: BLOCK* NameSystem.addStoredBlock: blockMap updated: 10.251.26.8:50010 is added to blk_1342175766768594168 size 67108864
081111 073337 28 INFO dfs.FSNamesystem: BLOCK* NameSystem.addStoredBlock: blockMap updated: 10.251.199.159:50010 is added to blk_-3955679556058314947 size 67108864
081111 073337 28 INFO dfs.FSNamesystem: BLOCK* NameSystem.addStoredBlock: blockMap updated: 10.251.39.179:50010 is added to blk_3870444299342691292 size 67108864
081111 073337 29 INFO dfs.FSNamesystem: BLOCK* NameSystem.addStoredBlock: blockMap updated: 10.251.197.161:50010 is added to blk_-5959796335963962056 size 67108864
081111 073337 29 INFO dfs.FSNamesystem: BLOCK* NameSystem.addStoredBlock: blockMap updated: 10.251.26.8:50010 is added to blk_1086924137146941984 size 67108864
081111 073337 30 INFO dfs.FSNamesystem: BLOCK* NameSystem.addStoredBlock: blockMap updated: 10.251.111.209:50010 is added to blk_3826620512442608332 size 67108864
081111 073337 30 INFO dfs.FSNamesystem: BLOCK* NameSystem.addStoredBlock: blockMap updated: 10.251.195.70:50010 is added to blk_1342175766768594168 size 67108864
081111 073337 30 INFO dfs.FSNamesystem: BLOCK* NameSystem.allocateBlock: /user/root/rand6/_temporary/_task_200811101024_0013_m_001435_0/part-01435. blk_-3611403515468035221
081111 073337 30 INFO dfs.FSNamesystem: BLOCK* NameSystem.allocateBlock: /user/root/rand6/_temporary/_task_200811101024_0013_m_001473_0/part-01473. blk_-5442867938594213179
081111 073337 31 INFO dfs.FSNamesystem: BLOCK* NameSystem.addStoredBlock: blockMap updated: 10.251.203.179:50010 is added to blk_1342175766768594168 size 67108864
081111 073337 31 INFO dfs.FSNamesystem: BLOCK* NameSystem.addStoredBlock: blockMap updated: 10.251.38.197:50010 is added to blk_-3955679556058314947 size 67108864
081111 073337 31 INFO dfs.FSNamesystem: BLOCK* NameSystem.addStoredBlock: blockMap updated: 10.251.43.147:50010 is added to blk_-4360283761337057602 size 67108864
081111 073337 31 INFO dfs.FSNamesystem: BLOCK* NameSystem.addStoredBlock: blockMap updated: 10.251.74.79:50010 is added to blk_-3955679556058314947 size 67108864
081111 073337 31 INFO dfs.FSNamesystem: BLOCK* NameSystem.allocateBlock: /user/root/rand6/_temporary/_task_200811101024_0013_m_001565_0/part-01565. blk_-6763621222968941687
081111 073337 32 INFO dfs.FSNamesystem: BLOCK* NameSystem.addStoredBlock: blockMap updated: 10.251.203.179:50010 is added to blk_8460451136861358800 size 67108864
081111 073337 32 INFO dfs.FSNamesystem: BLOCK* NameSystem.addStoredBlock: blockMap updated: 10.251.39.64:50010 is added to blk_-5164854017164190357 size 3542631
081111 073337 32 INFO dfs.FSNamesystem: BLOCK* NameSystem.allocateBlock: /user/root/rand6/_temporary/_task_200811101024_0013_m_001219_0/part-01219. blk_-2162440392719959140
081111 073337 33 INFO dfs.FSNamesystem: BLOCK* NameSystem.addStoredBlock: blockMap updated: 10.250.6.223:50010 is added to blk_-5959796335963962056 size 67108864
081111 073337 33 INFO dfs.FSNamesystem: BLOCK* NameSystem.allocateBlock: /user/root/rand6/_temporary/_task_200811101024_0013_m_001555_0/part-01555. blk_7888125206290011903
081111 073337 34 INFO dfs.FSNamesystem: BLOCK* NameSystem.addStoredBlock: blockMap updated: 10.250.7.146:50010 is added to blk_-5164854017164190357 size 3542631
081111 073337 35 INFO dfs.FSNamesystem: BLOCK* NameSystem.addStoredBlock: blockMap updated: 10.250.18.114:50010 is added to blk_-804406684228212804 size 67108864
081111 073338 18154 INFO dfs.DataNode$PacketResponder: PacketResponder 0 for block blk_2518005448281327092 terminating
081111 073338 18154 INFO dfs.DataNode$PacketResponder: Received block blk_2518005448281327092 of size 67108864 from /10.250.17.225
081111 073338 22819 INFO dfs.DataNode$PacketResponder: PacketResponder 0 for block blk_-774883170120995333 terminating
081111 073338 22819 INFO dfs.DataNode$PacketResponder: Received block blk_-774883170120995333 of size 67108864 from /10.250.15.67
081111 073338 23010 INFO dfs.DataNode$PacketResponder: PacketResponder 2 for block blk_5560153332413551399 terminating
081111 073338 23010 INFO dfs.DataNode$PacketResponder: Received block blk_5560153332413551399 of size 67108864 from /10.251.201.204
081111 073338 23020 INFO dfs.DataNode$PacketResponder: PacketResponder 1 for block blk_-774883170120995333 terminating
081111 073338 23020 INFO dfs.DataNode$PacketResponder: Received block blk_-774883170120995333 of size 67108864 from /10.251.42.16
081111 073338 23021 INFO dfs.DataNode$DataXceiver: Receiving block blk_-1794524797508908826 src: /10.251.201.204:37868 dest: /10.251.201.204:50010
081111 073338 23057 INFO dfs.DataNode$PacketResponder: PacketResponder 1 for block blk_1756121768958027379 terminating
081111 073338 23057 INFO dfs.DataNode$PacketResponder: Received block blk_1756121768958027379 of size 67108864 from /10.251.123.99
081111 073338 23059 INFO dfs.DataNode$PacketResponder: PacketResponder 1 for block blk_-3261375447701255365 terminating
081111 073338 23059 INFO dfs.DataNode$PacketResponder: Received block blk_-3261375447701255365 of size 67108864 from /10.250.10.213
081111 073338 23066 INFO dfs.DataNode$DataXceiver: Receiving block blk_-6763621222968941687 src: /10.251.194.129:39313 dest: /10.251.194.129:50010
081111 073338 23127 INFO dfs.DataNode$DataXceiver: Receiving block blk_4218325015176810978 src: /10.251.199.225:55404 dest: /10.251.199.225:50010
081111 073338 23146 INFO dfs.DataNode$PacketResponder: PacketResponder 2 for block blk_1756121768958027379 terminating
081111 073338 23146 INFO dfs.DataNode$PacketResponder: Received block blk_1756121768958027379 of size 67108864 from /10.251.123.99
081111 073338 23207 INFO dfs.DataNode$PacketResponder: PacketResponder 2 for block blk_-774883170120995333 terminating
081111 073338 23207 INFO dfs.DataNode$PacketResponder: Received block blk_-774883170120995333 of size 67108864 from /10.251.42.16
081111 073338 23208 INFO dfs.DataNode$PacketResponder: PacketResponder 2 for block blk_2518005448281327092 terminating
081111 073338 23208 INFO dfs.DataNode$PacketResponder: Received block blk_2518005448281327092 of size 67108864 from /10.251.195.52
081111 073338 23229 INFO dfs.DataNode$DataXceiver: Receiving block blk_3115863966079698168 src: /10.251.66.63:43819 dest: /10.251.66.63:50010
081111 073338 23231 INFO dfs.DataNode$DataXceiver: Receiving block blk_-4488256882509535873 src: /10.251.195.70:47260 dest: /10.251.195.70:50010
081111 073338 23281 INFO dfs.DataNode$DataXceiver: Receiving block blk_-1503973432577682623 src: /10.251.30.179:47069 dest: /10.251.30.179:50010
081111 073338 23281 INFO dfs.DataNode$PacketResponder: PacketResponder 1 for block blk_-4601272596554473725 terminating
081111 073338 23281 INFO dfs.DataNode$PacketResponder: PacketResponder 1 for block blk_7217108460443977407 terminating
081111 073338 23281 INFO dfs.DataNode$PacketResponder: Received block blk_-4601272596554473725 of size 67108864 from /10.251.199.225
081111 073338 23281 INFO dfs.DataNode$PacketResponder: Received block blk_7217108460443977407 of size 67108864 from /10.251.42.207
081111 073338 23283 INFO dfs.DataNode$PacketResponder: PacketResponder 0 for block blk_1756121768958027379 terminating
081111 073338 23283 INFO dfs.DataNode$PacketResponder: Received block blk_1756121768958027379 of size 67108864 from /10.251.25.237
081111 073338 23311 INFO dfs.DataNode$DataXceiver: Receiving block blk_4218325015176810978 src: /10.251.214.32:55099 dest: /10.251.214.32:50010
081111 073338 23311 INFO dfs.DataNode$PacketResponder: PacketResponder 0 for block blk_7217108460443977407 terminating
081111 073338 23311 INFO dfs.DataNode$PacketResponder: Received block blk_7217108460443977407 of size 67108864 from /10.251.194.213
081111 073338 23317 INFO dfs.DataNode$PacketResponder: PacketResponder 0 for block blk_8984546788451133017 terminating
081111 073338 23317 INFO dfs.DataNode$PacketResponder: Received block blk_8984546788451133017 of size 67108864 from /10.251.42.84
081111 073338 23353 INFO dfs.DataNode$DataXceiver: Receiving block blk_-4488256882509535873 src: /10.251.65.203:46120 dest: /10.251.65.203:50010
081111 073338 23365 INFO dfs.DataNode$PacketResponder: PacketResponder 2 for block blk_8984546788451133017 terminating
081111 073338 23365 INFO dfs.DataNode$PacketResponder: Received block blk_8984546788451133017 of size 67108864 from /10.250.7.32
081111 073338 23384 INFO dfs.DataNode$DataXceiver: Receiving block blk_-6276894003275436018 src: /10.250.7.32:52547 dest: /10.250.7.32:50010
081111 073338 23386 INFO dfs.DataNode$PacketResponder: PacketResponder 1 for block blk_2518005448281327092 terminating
081111 073338 23386 INFO dfs.DataNode$PacketResponder: Received block blk_2518005448281327092 of size 67108864 from /10.251.195.52
081111 073338 23393 INFO dfs.DataNode$DataXceiver: Receiving block blk_-877544683815214902 src: /10.251.30.85:35331 dest: /10.251.30.85:50010
081111 073338 23395 INFO dfs.DataNode$DataXceiver: Receiving block blk_3115863966079698168 src: /10.251.39.144:47162 dest: /10.251.39.144:50010
081111 073338 23395 INFO dfs.DataNode$PacketResponder: PacketResponder 2 for block blk_-4601272596554473725 terminating
081111 073338 23395 INFO dfs.DataNode$PacketResponder: Received block blk_-4601272596554473725 of size 67108864 from /10.251.199.225
081111 073338 23399 INFO dfs.DataNode$DataXceiver: Receiving block blk_7039662903538802880 src: /10.251.43.21:45903 dest: /10.251.43.21:50010
081111 073338 23403 INFO dfs.DataNode$DataXceiver: Receiving block blk_5951641993000990769 src: /10.250.18.114:42532 dest: /10.250.18.114:50010
081111 073338 23405 INFO dfs.DataNode$DataXceiver: Receiving block blk_4218325015176810978 src: /10.251.199.225:60855 dest: /10.251.199.225:50010
081111 073338 23420 INFO dfs.DataNode$PacketResponder: PacketResponder 0 for block blk_3895348410713252929 terminating
081111 073338 23420 INFO dfs.DataNode$PacketResponder: Received block blk_3895348410713252929 of size 67108864 from /10.251.109.209
081111 073338 23424 INFO dfs.DataNode$PacketResponder: PacketResponder 2 for block blk_-5636150083797270866 terminating
081111 073338 23424 INFO dfs.DataNode$PacketResponder: Received block blk_-5636150083797270866 of size 67108864 from /10.250.19.227
081111 073338 23426 INFO dfs.DataNode$PacketResponder: PacketResponder 1 for block blk_6812810566353323755 terminating
081111 073338 23426 INFO dfs.DataNode$PacketResponder: Received block blk_6812810566353323755 of size 67108864 from /10.250.18.114
081111 073338 23433 INFO dfs.DataNode$DataXceiver: Receiving block blk_7425519937883797793 src: /10.250.19.227:59097 dest: /10.250.19.227:50010
081111 073338 23449 INFO dfs.DataNode$DataXceiver: Receiving block blk_7039662903538802880 src: /10.251.70.112:44259 dest: /10.251.70.112:50010
081111 073338 23450 INFO dfs.DataNode$DataXceiver: Receiving block blk_-4488256882509535873 src: /10.251.195.70:54512 dest: /10.251.195.70:50010
081111 073338 23466 INFO dfs.DataNode$PacketResponder: PacketResponder 1 for block blk_5560153332413551399 terminating
081111 073338 23466 INFO dfs.DataNode$PacketResponder: Received block blk_5560153332413551399 of size 67108864 from /10.251.201.204
081111 073338 23468 INFO dfs.DataNode$PacketResponder: PacketResponder 1 for block blk_-4360283761337057602 terminating
081111 073338 23468 INFO dfs.DataNode$PacketResponder: PacketResponder 1 for block blk_8984546788451133017 terminating
081111 073338 23468 INFO dfs.DataNode$PacketResponder: Received block blk_-4360283761337057602 of size 67108864 from /10.251.39.144
081111 073338 23468 INFO dfs.DataNode$PacketResponder: Received block blk_8984546788451133017 of size 67108864 from /10.250.7.32
081111 073338 23481 INFO dfs.DataNode$PacketResponder: PacketResponder 1 for block blk_-2629575861623295590 terminating
081111 073338 23481 INFO dfs.DataNode$PacketResponder: Received block blk_-2629575861623295590 of size 67108864 from /10.251.107.19
081111 073338 23482 INFO dfs.DataNode$PacketResponder: PacketResponder 0 for block blk_-4601272596554473725 terminating
081111 073338 23482 INFO dfs.DataNode$PacketResponder: Received block blk_-4601272596554473725 of size 67108864 from /10.251.125.174
081111 073338 23485 INFO dfs.DataNode$PacketResponder: PacketResponder 0 for block blk_5560153332413551399 terminating
081111 073338 23485 INFO dfs.DataNode$PacketResponder: Received block blk_5560153332413551399 of size 67108864 from /10.251.42.84
081111 073338 23509 INFO dfs.DataNode$DataXceiver: Receiving block blk_-1794524797508908826 src: /10.251.126.83:39967 dest: /10.251.126.83:50010
081111 073338 23530 INFO dfs.DataNode$DataXceiver: Receiving block blk_7425519937883797793 src: /10.250.19.227:36859 dest: /10.250.19.227:50010
081111 073338 23560 INFO dfs.DataNode$PacketResponder: PacketResponder 2 for block blk_6812810566353323755 terminating
081111 073338 23560 INFO dfs.DataNode$PacketResponder: Received block blk_6812810566353323755 of size 67108864 from /10.250.18.114
081111 073338 23570 INFO dfs.DataNode$PacketResponder: PacketResponder 0 for block blk_6812810566353323755 terminating
081111 073338 23570 INFO dfs.DataNode$PacketResponder: Received block blk_6812810566353323755 of size 67108864 from /10.251.105.189
081111 073338 23571 INFO dfs.DataNode$DataXceiver: Receiving block blk_5951641993000990769 src: /10.250.18.114:34984 dest: /10.250.18.114:50010
081111 073338 23576 INFO dfs.DataNode$DataXceiver: Receiving block blk_-1794524797508908826 src: /10.251.201.204:56233 dest: /10.251.201.204:50010
081111 073338 23600 INFO dfs.DataNode$PacketResponder: PacketResponder 2 for block blk_-2629575861623295590 terminating
081111 073338 23600 INFO dfs.DataNode$PacketResponder: Received block blk_-2629575861623295590 of size 67108864 from /10.251.107.19
081111 073338 23605 INFO dfs.DataNode$PacketResponder: PacketResponder 2 for block blk_-4360283761337057602 terminating
081111 073338 23605 INFO dfs.DataNode$PacketResponder: Received block blk_-4360283761337057602 of size 67108864 from /10.251.39.144
081111 073338 23612 INFO dfs.DataNode$DataXceiver: Receiving block blk_3115863966079698168 src: /10.251.39.144:36382 dest: /10.251.39.144:50010
081111 073338 23627 INFO dfs.DataNode$DataXceiver: Receiving block blk_-7810167391579511612 src: /10.251.107.19:43862 dest: /10.251.107.19:50010
081111 073338 23688 INFO dfs.DataNode$DataXceiver: Receiving block blk_-6763621222968941687 src: /10.251.25.237:41200 dest: /10.251.25.237:50010
081111 073338 26 INFO dfs.FSNamesystem: BLOCK* NameSystem.addStoredBlock: blockMap updated: 10.250.15.67:50010 is added to blk_-774883170120995333 size 67108864
081111 073338 26 INFO dfs.FSNamesystem: BLOCK* NameSystem.addStoredBlock: blockMap updated: 10.250.7.230:50010 is added to blk_-4360283761337057602 size 67108864
081111 073338 26 INFO dfs.FSNamesystem: BLOCK* NameSystem.allocateBlock: /user/root/rand6/_temporary/_task_200811101024_0013_m_001235_0/part-01235. blk_7425519937883797793
081111 073338 26 INFO dfs.FSNamesystem: BLOCK* NameSystem.allocateBlock: /user/root/rand6/_temporary/_task_200811101024_0013_m_001276_0/part-01276. blk_4218325015176810978
081111 073338 26 INFO dfs.FSNamesystem: BLOCK* NameSystem.allocateBlock: /user/root/rand6/_temporary/_task_200811101024_0013_m_001289_0/part-01289. blk_-7810167391579511612
081111 073338 27 INFO dfs.FSNamesystem: BLOCK* NameSystem.addStoredBlock: blockMap updated: 10.251.125.174:50010 is added to blk_-4601272596554473725 size 67108864
081111 073338 27 INFO dfs.FSNamesystem: BLOCK* NameSystem.addStoredBlock: blockMap updated: 10.251.39.160:50010 is added to blk_2518005448281327092 size 67108864
081111 073338 27 INFO dfs.FSNamesystem: BLOCK* NameSystem.allocateBlock: /user/root/rand6/_temporary/_task_200811101024_0013_m_001190_0/part-01190. blk_-6276894003275436018
081111 073338 27 INFO dfs.FSNamesystem: BLOCK* NameSystem.allocateBlock: /user/root/rand6/_temporary/_task_200811101024_0013_m_001196_0/part-01196. blk_-4488256882509535873
081111 073338 28 INFO dfs.FSNamesystem: BLOCK* NameSystem.addStoredBlock: blockMap updated: 10.251.201.204:50010 is added to blk_5560153332413551399 size 67108864
081111 073338 28 INFO dfs.FSNamesystem: BLOCK* NameSystem.addStoredBlock: blockMap updated: 10.251.203.179:50010 is added to blk_-774883170120995333 size 67108864
081111 073338 28 INFO dfs.FSNamesystem: BLOCK* NameSystem.addStoredBlock: blockMap updated: 10.251.39.242:50010 is added to blk_-2629575861623295590 size 67108864
081111 073338 28 INFO dfs.FSNamesystem: BLOCK* NameSystem.addStoredBlock: blockMap updated: 10.251.39.242:50010 is added to blk_5560153332413551399 size 67108864
081111 073338 28 INFO dfs.FSNamesystem: BLOCK* NameSystem.allocateBlock: /user/root/rand6/_temporary/_task_200811101024_0013_m_001401_0/part-01401. blk_5951641993000990769
081111 073338 28 INFO dfs.FSNamesystem: BLOCK* NameSystem.allocateBlock: /user/root/rand6/_temporary/_task_200811101024_0013_m_001558_0/part-01558. blk_-21814374532066268
081111 073338 29 INFO dfs.FSNamesystem: BLOCK* NameSystem.addStoredBlock: blockMap updated: 10.251.195.52:50010 is added to blk_2518005448281327092 size 67108864
081111 073338 29 INFO dfs.FSNamesystem: BLOCK* NameSystem.addStoredBlock: blockMap updated: 10.251.25.237:50010 is added to blk_1756121768958027379 size 67108864
081111 073338 29 INFO dfs.FSNamesystem: BLOCK* NameSystem.addStoredBlock: blockMap updated: 10.251.30.179:50010 is added to blk_-5959796335963962056 size 67108864
081111 073338 31 INFO dfs.FSNamesystem: BLOCK* NameSystem.addStoredBlock: blockMap updated: 10.250.19.227:50010 is added to blk_3895348410713252929 size 67108864
081111 073338 31 INFO dfs.FSNamesystem: BLOCK* NameSystem.addStoredBlock: blockMap updated: 10.250.19.227:50010 is added to blk_-5636150083797270866 size 67108864
081111 073338 31 INFO dfs.FSNamesystem: BLOCK* NameSystem.addStoredBlock: blockMap updated: 10.250.7.32:50010 is added to blk_8984546788451133017 size 67108864
081111 073338 31 INFO dfs.FSNamesystem: BLOCK* NameSystem.addStoredBlock: blockMap updated: 10.251.194.213:50010 is added to blk_1756121768958027379 size 67108864
081111 073338 31 INFO dfs.FSNamesystem: BLOCK* NameSystem.addStoredBlock: blockMap updated: 10.251.39.144:50010 is added to blk_-4360283761337057602 size 67108864
081111 073338 31 INFO dfs.FSNamesystem: BLOCK* NameSystem.allocateBlock: /user/root/rand6/_temporary/_task_200811101024_0013_m_001193_0/part-01193. blk_-1794524797508908826
081111 073338 32 INFO dfs.FSNamesystem: BLOCK* NameSystem.addStoredBlock: blockMap updated: 10.251.105.189:50010 is added to blk_6812810566353323755 size 67108864
081111 073338 32 INFO dfs.FSNamesystem: BLOCK* NameSystem.addStoredBlock: blockMap updated: 10.251.194.213:50010 is added to blk_7217108460443977407 size 67108864
081111 073338 32 INFO dfs.FSNamesystem: BLOCK* NameSystem.addStoredBlock: blockMap updated: 10.251.199.225:50010 is added to blk_-4601272596554473725 size 67108864
081111 073338 32 INFO dfs.FSNamesystem: BLOCK* NameSystem.addStoredBlock: blockMap updated: 10.251.31.5:50010 is added to blk_-4601272596554473725 size 67108864
081111 073338 32 INFO dfs.FSNamesystem: BLOCK* NameSystem.allocateBlock: /user/root/rand6/_temporary/_task_200811101024_0013_m_001394_0/part-01394. blk_-1503973432577682623
081111 073338 32 INFO dfs.FSNamesystem: BLOCK* NameSystem.allocateBlock: /user/root/rand6/_temporary/_task_200811101024_0013_m_001553_0/part-01553. blk_6826493528557620697
081111 073338 33 INFO dfs.FSNamesystem: BLOCK* NameSystem.addStoredBlock: blockMap updated: 10.250.7.244:50010 is added to blk_8984546788451133017 size 67108864
081111 073338 33 INFO dfs.FSNamesystem: BLOCK* NameSystem.addStoredBlock: blockMap updated: 10.251.42.84:50010 is added to blk_8984546788451133017 size 67108864
081111 073338 34 INFO dfs.FSNamesystem: BLOCK* NameSystem.addStoredBlock: blockMap updated: 10.250.10.223:50010 is added to blk_7217108460443977407 size 67108864
081111 073338 34 INFO dfs.FSNamesystem: BLOCK* NameSystem.addStoredBlock: blockMap updated: 10.250.18.114:50010 is added to blk_6812810566353323755 size 67108864
081111 073338 34 INFO dfs.FSNamesystem: BLOCK* NameSystem.addStoredBlock: blockMap updated: 10.251.107.19:50010 is added to blk_-2629575861623295590 size 67108864
081111 073338 34 INFO dfs.FSNamesystem: BLOCK* NameSystem.addStoredBlock: blockMap updated: 10.251.123.99:50010 is added to blk_1756121768958027379 size 67108864
081111 073338 34 INFO dfs.FSNamesystem: BLOCK* NameSystem.addStoredBlock: blockMap updated: 10.251.126.83:50010 is added to blk_-2629575861623295590 size 67108864
081111 073338 34 INFO dfs.FSNamesystem: BLOCK* NameSystem.addStoredBlock: blockMap updated: 10.251.42.84:50010 is added to blk_5560153332413551399 size 67108864
081111 073338 35 INFO dfs.FSNamesystem: BLOCK* NameSystem.addStoredBlock: blockMap updated: 10.250.17.225:50010 is added to blk_2518005448281327092 size 67108864
081111 073338 35 INFO dfs.FSNamesystem: BLOCK* NameSystem.addStoredBlock: blockMap updated: 10.251.25.237:50010 is added to blk_-3261375447701255365 size 67108864
081111 073338 35 INFO dfs.FSNamesystem: BLOCK* NameSystem.addStoredBlock: blockMap updated: 10.251.75.79:50010 is added to blk_6812810566353323755 size 67108864
081111 073338 35 INFO dfs.FSNamesystem: BLOCK* NameSystem.allocateBlock: /user/root/rand6/_temporary/_task_200811101024_0013_m_001389_0/part-01389. blk_3115863966079698168
081111 073339 13 INFO dfs.DataBlockScanner: Verification succeeded for blk_2711982565813891185
081111 073339 18156 INFO dfs.DataNode$PacketResponder: PacketResponder 0 for block blk_8844045896712965415 terminating
081111 073339 18156 INFO dfs.DataNode$PacketResponder: Received block blk_8844045896712965415 of size 67108864 from /10.251.107.227
081111 073339 22831 INFO dfs.DataNode$DataXceiver: Receiving block blk_-2356092732421197051 src: /10.250.19.227:36531 dest: /10.250.19.227:50010
081111 073339 22866 INFO dfs.DataNode$DataXceiver: Receiving block blk_2001569529009800012 src: /10.251.109.209:49706 dest: /10.251.109.209:50010
081111 073339 22868 INFO dfs.DataNode$DataXceiver: Receiving block blk_-4842364299449974274 src: /10.251.42.16:48343 dest: /10.251.42.16:50010
081111 073339 22981 INFO dfs.DataNode$PacketResponder: PacketResponder 2 for block blk_3895348410713252929 terminating
081111 073339 22981 INFO dfs.DataNode$PacketResponder: Received block blk_3895348410713252929 of size 67108864 from /10.251.111.37
081111 073339 22984 INFO dfs.DataNode$DataXceiver: Receiving block blk_-4318357216987553174 src: /10.251.111.37:44126 dest: /10.251.111.37:50010
081111 073339 23044 INFO dfs.DataNode$PacketResponder: PacketResponder 0 for block blk_-5321915263178692216 terminating
081111 073339 23044 INFO dfs.DataNode$PacketResponder: Received block blk_-5321915263178692216 of size 67108864 from /10.251.90.81
081111 073339 23083 INFO dfs.DataNode$PacketResponder: PacketResponder 1 for block blk_8844045896712965415 terminating
081111 073339 23083 INFO dfs.DataNode$PacketResponder: Received block blk_8844045896712965415 of size 67108864 from /10.251.123.1
081111 073339 23119 INFO dfs.DataNode$DataXceiver: Receiving block blk_-21814374532066268 src: /10.251.110.8:44762 dest: /10.251.110.8:50010
081111 073339 23139 INFO dfs.DataNode$PacketResponder: PacketResponder 1 for block blk_7415862773536721724 terminating
081111 073339 23139 INFO dfs.DataNode$PacketResponder: Received block blk_7415862773536721724 of size 67108864 from /10.251.70.5
081111 073339 23155 INFO dfs.DataNode$DataXceiver: Receiving block blk_-21814374532066268 src: /10.251.123.99:33955 dest: /10.251.123.99:50010
081111 073339 23176 INFO dfs.DataNode$DataXceiver: Receiving block blk_-8883635349153607792 src: /10.251.65.203:55896 dest: /10.251.65.203:50010
081111 073339 23199 INFO dfs.DataNode$PacketResponder: PacketResponder 1 for block blk_1544320004150854066 terminating
081111 073339 23199 INFO dfs.DataNode$PacketResponder: Received block blk_1544320004150854066 of size 67108864 from /10.251.111.209
081111 073339 23215 INFO dfs.DataNode$DataXceiver: Receiving block blk_1392145645017587505 src: /10.251.125.174:56159 dest: /10.251.125.174:50010
081111 073339 23220 INFO dfs.DataNode$PacketResponder: PacketResponder 2 for block blk_5063997650837138416 terminating
081111 073339 23220 INFO dfs.DataNode$PacketResponder: Received block blk_5063997650837138416 of size 67108864 from /10.251.65.203
081111 073339 23221 INFO dfs.DataNode$DataXceiver: Receiving block blk_6826493528557620697 src: /10.251.195.52:43315 dest: /10.251.195.52:50010
081111 073339 23222 INFO dfs.DataNode$DataXceiver: Receiving block blk_-4842364299449974274 src: /10.251.42.16:45003 dest: /10.251.42.16:50010
081111 073339 23233 INFO dfs.DataNode$DataXceiver: Receiving block blk_-4318357216987553174 src: /10.251.111.37:45362 dest: /10.251.111.37:50010
081111 073339 23233 INFO dfs.DataNode$DataXceiver: Receiving block blk_-8883635349153607792 src: /10.251.65.203:42669 dest: /10.251.65.203:50010
081111 073339 23253 INFO dfs.DataNode$DataXceiver: Receiving block blk_-1503973432577682623 src: /10.251.30.179:44768 dest: /10.251.30.179:50010
081111 073339 23258 INFO dfs.DataNode$PacketResponder: PacketResponder 0 for block blk_-1940246788291841956 terminating
081111 073339 23258 INFO dfs.DataNode$PacketResponder: Received block blk_-1940246788291841956 of size 67108864 from /10.251.125.174
081111 073339 23268 INFO dfs.DataNode$PacketResponder: PacketResponder 2 for block blk_7415862773536721724 terminating
081111 073339 23268 INFO dfs.DataNode$PacketResponder: Received block blk_7415862773536721724 of size 67108864 from /10.251.70.5
081111 073339 23273 INFO dfs.DataNode$DataXceiver: Receiving block blk_4560695115504354397 src: /10.251.70.5:37809 dest: /10.251.70.5:50010
081111 073339 23278 INFO dfs.DataNode$PacketResponder: PacketResponder 2 for block blk_3870444299342691292 terminating
081111 073339 23278 INFO dfs.DataNode$PacketResponder: Received block blk_3870444299342691292 of size 67108864 from /10.251.106.50
081111 073339 23279 INFO dfs.DataNode$PacketResponder: PacketResponder 1 for block blk_-1940246788291841956 terminating
081111 073339 23279 INFO dfs.DataNode$PacketResponder: Received block blk_-1940246788291841956 of size 67108864 from /10.250.17.177
081111 073339 23292 INFO dfs.DataNode$DataXceiver: Receiving block blk_1392145645017587505 src: /10.251.111.209:43197 dest: /10.251.111.209:50010
081111 073339 23292 INFO dfs.DataNode$DataXceiver: Receiving block blk_-8713348590176866515 src: /10.251.39.242:39450 dest: /10.251.39.242:50010
081111 073339 23292 INFO dfs.DataNode$PacketResponder: PacketResponder 0 for block blk_7415862773536721724 terminating
081111 073339 23292 INFO dfs.DataNode$PacketResponder: Received block blk_7415862773536721724 of size 67108864 from /10.251.123.132
081111 073339 23295 INFO dfs.DataNode$DataXceiver: Receiving block blk_6826493528557620697 src: /10.251.195.52:39353 dest: /10.251.195.52:50010
081111 073339 23297 INFO dfs.DataNode$DataXceiver: Receiving block blk_-4842364299449974274 src: /10.251.202.181:60753 dest: /10.251.202.181:50010
081111 073339 23301 INFO dfs.DataNode$PacketResponder: PacketResponder 1 for block blk_5063997650837138416 terminating
081111 073339 23301 INFO dfs.DataNode$PacketResponder: Received block blk_5063997650837138416 of size 67108864 from /10.251.65.203
081111 073339 23312 INFO dfs.DataNode$PacketResponder: PacketResponder 0 for block blk_1544320004150854066 terminating
081111 073339 23312 INFO dfs.DataNode$PacketResponder: Received block blk_1544320004150854066 of size 67108864 from /10.251.42.16
081111 073339 23334 INFO dfs.DataNode$PacketResponder: PacketResponder 1 for block blk_3895348410713252929 terminating
081111 073339 23334 INFO dfs.DataNode$PacketResponder: Received block blk_3895348410713252929 of size 67108864 from /10.251.111.37
081111 073339 23337 INFO dfs.DataNode$PacketResponder: PacketResponder 1 for block blk_570157893137896406 terminating
081111 073339 23337 INFO dfs.DataNode$PacketResponder: Received block blk_570157893137896406 of size 67108864 from /10.251.106.37
081111 073339 23338 INFO dfs.DataNode$PacketResponder: PacketResponder 1 for block blk_9008249210068160932 terminating
081111 073339 23338 INFO dfs.DataNode$PacketResponder: Received block blk_9008249210068160932 of size 67108864 from /10.250.10.144
081111 073339 23340 INFO dfs.DataNode$PacketResponder: PacketResponder 2 for block blk_7295797269059977855 terminating
081111 073339 23340 INFO dfs.DataNode$PacketResponder: Received block blk_7295797269059977855 of size 67108864 from /10.251.109.209
081111 073339 23341 INFO dfs.DataNode$PacketResponder: PacketResponder 2 for block blk_-3261375447701255365 terminating
081111 073339 23341 INFO dfs.DataNode$PacketResponder: Received block blk_-3261375447701255365 of size 67108864 from /10.250.10.213
081111 073339 23348 INFO dfs.DataNode$DataXceiver: Receiving block blk_-2356092732421197051 src: /10.250.10.213:54614 dest: /10.250.10.213:50010
081111 073339 23358 INFO dfs.DataNode$DataXceiver: Receiving block blk_6080505688939664821 src: /10.251.109.209:36433 dest: /10.251.109.209:50010
081111 073339 23364 INFO dfs.DataNode$PacketResponder: PacketResponder 0 for block blk_-3261375447701255365 terminating
081111 073339 23364 INFO dfs.DataNode$PacketResponder: Received block blk_-3261375447701255365 of size 67108864 from /10.251.25.237
081111 073339 23367 INFO dfs.DataNode$DataXceiver: Receiving block blk_5951641993000990769 src: /10.251.127.191:57980 dest: /10.251.127.191:50010
081111 073339 23370 INFO dfs.DataNode$DataXceiver: Receiving block blk_-6276894003275436018 src: /10.250.7.32:57942 dest: /10.250.7.32:50010
081111 073339 23371 INFO dfs.DataNode$PacketResponder: PacketResponder 0 for block blk_5063997650837138416 terminating
081111 073339 23371 INFO dfs.DataNode$PacketResponder: Received block blk_5063997650837138416 of size 67108864 from /10.250.5.161
081111 073339 23384 INFO dfs.DataNode$DataXceiver: Receiving block blk_-21814374532066268 src: /10.251.123.99:45818 dest: /10.251.123.99:50010
081111 073339 23399 INFO dfs.DataNode$DataXceiver: Receiving block blk_-1503973432577682623 src: /10.251.111.80:39051 dest: /10.251.111.80:50010
081111 073339 23434 INFO dfs.DataNode$DataXceiver: Receiving block blk_-2356092732421197051 src: /10.250.10.213:50435 dest: /10.250.10.213:50010
081111 073339 23504 INFO dfs.DataNode$PacketResponder: PacketResponder 2 for block blk_1544320004150854066 terminating
081111 073339 23504 INFO dfs.DataNode$PacketResponder: Received block blk_1544320004150854066 of size 67108864 from /10.251.111.209
081111 073339 23515 INFO dfs.DataNode$PacketResponder: PacketResponder 2 for block blk_570157893137896406 terminating
081111 073339 23515 INFO dfs.DataNode$PacketResponder: Received block blk_570157893137896406 of size 67108864 from /10.251.106.37
081111 073339 23520 INFO dfs.DataNode$DataXceiver: Receiving block blk_1392145645017587505 src: /10.251.111.209:60094 dest: /10.251.111.209:50010
081111 073339 23532 INFO dfs.DataNode$DataXceiver: Receiving block blk_5299863071343501935 src: /10.251.106.37:39393 dest: /10.251.106.37:50010
081111 073339 23565 INFO dfs.DataNode$DataXceiver: Receiving block blk_6080505688939664821 src: /10.251.109.209:45992 dest: /10.251.109.209:50010
081111 073339 23594 INFO dfs.DataNode$DataXceiver: Receiving block blk_7425519937883797793 src: /10.251.106.37:35378 dest: /10.251.106.37:50010
081111 073339 23679 INFO dfs.DataNode$PacketResponder: PacketResponder 2 for block blk_9008249210068160932 terminating
081111 073339 23679 INFO dfs.DataNode$PacketResponder: Received block blk_9008249210068160932 of size 67108864 from /10.250.10.144
081111 073339 23690 INFO dfs.DataNode$DataXceiver: Receiving block blk_-4318357216987553174 src: /10.251.39.64:40615 dest: /10.251.39.64:50010
081111 073339 23691 INFO dfs.DataNode$DataXceiver: Receiving block blk_6977930769261168035 src: /10.250.10.144:39643 dest: /10.250.10.144:50010
081111 073339 26 INFO dfs.FSNamesystem: BLOCK* NameSystem.addStoredBlock: blockMap updated: 10.251.106.50:50010 is added to blk_3870444299342691292 size 67108864
081111 073339 26 INFO dfs.FSNamesystem: BLOCK* NameSystem.addStoredBlock: blockMap updated: 10.251.125.237:50010 is added to blk_7415862773536721724 size 67108864
081111 073339 26 INFO dfs.FSNamesystem: BLOCK* NameSystem.addStoredBlock: blockMap updated: 10.251.70.5:50010 is added to blk_7415862773536721724 size 67108864
081111 073339 26 INFO dfs.FSNamesystem: BLOCK* NameSystem.allocateBlock: /user/root/rand6/_temporary/_task_200811101024_0013_m_001172_0/part-01172. blk_6080505688939664821
081111 073339 27 INFO dfs.FSNamesystem: BLOCK* NameSystem.addStoredBlock: blockMap updated: 10.251.106.37:50010 is added to blk_570157893137896406 size 67108864
081111 073339 27 INFO dfs.FSNamesystem: BLOCK* NameSystem.addStoredBlock: blockMap updated: 10.251.109.209:50010 is added to blk_7295797269059977855 size 67108864
081111 073339 27 INFO dfs.FSNamesystem: BLOCK* NameSystem.addStoredBlock: blockMap updated: 10.251.111.209:50010 is added to blk_1544320004150854066 size 67108864
081111 073339 27 INFO dfs.FSNamesystem: BLOCK* NameSystem.addStoredBlock: blockMap updated: 10.251.198.196:50010 is added to blk_-5321915263178692216 size 67108864
081111 073339 27 INFO dfs.FSNamesystem: BLOCK* NameSystem.addStoredBlock: blockMap updated: 10.251.26.177:50010 is added to blk_-3261375447701255365 size 67108864
081111 073339 28 INFO dfs.FSNamesystem: BLOCK* NameSystem.addStoredBlock: blockMap updated: 10.251.42.16:50010 is added to blk_1544320004150854066 size 67108864
081111 073339 28 INFO dfs.FSNamesystem: BLOCK* NameSystem.addStoredBlock: blockMap updated: 10.251.42.16:50010 is added to blk_-774883170120995333 size 67108864
081111 073339 29 INFO dfs.FSNamesystem: BLOCK* NameSystem.addStoredBlock: blockMap updated: 10.250.10.213:50010 is added to blk_-3261375447701255365 size 67108864
081111 073339 29 INFO dfs.FSNamesystem: BLOCK* NameSystem.addStoredBlock: blockMap updated: 10.251.67.4:50010 is added to blk_5063997650837138416 size 67108864
081111 073339 29 INFO dfs.FSNamesystem: BLOCK* NameSystem.allocateBlock: /user/root/rand6/_temporary/_task_200811101024_0013_m_001275_0/part-01275. blk_5299863071343501935
081111 073339 30 INFO dfs.FSNamesystem: BLOCK* NameSystem.addStoredBlock: blockMap updated: 10.250.10.144:50010 is added to blk_9008249210068160932 size 67108864
081111 073339 30 INFO dfs.FSNamesystem: BLOCK* NameSystem.allocateBlock: /user/root/rand6/_temporary/_task_200811101024_0013_m_001185_0/part-01185. blk_-8883635349153607792
081111 073339 30 INFO dfs.FSNamesystem: BLOCK* NameSystem.allocateBlock: /user/root/rand6/_temporary/_task_200811101024_0013_m_001274_0/part-01274. blk_-4842364299449974274
081111 073339 30 INFO dfs.FSNamesystem: BLOCK* NameSystem.allocateBlock: /user/root/rand6/_temporary/_task_200811101024_0013_m_001518_0/part-01518. blk_-2214715725667762234
081111 073339 31 INFO dfs.FSNamesystem: BLOCK* NameSystem.addStoredBlock: blockMap updated: 10.251.111.37:50010 is added to blk_3895348410713252929 size 67108864
081111 073339 31 INFO dfs.FSNamesystem: BLOCK* NameSystem.addStoredBlock: blockMap updated: 10.251.65.203:50010 is added to blk_5063997650837138416 size 67108864
081111 073339 31 INFO dfs.FSNamesystem: BLOCK* NameSystem.allocateBlock: /user/root/rand6/_temporary/_task_200811101024_0013_m_001238_0/part-01238. blk_1392145645017587505
081111 073339 31 INFO dfs.FSNamesystem: BLOCK* NameSystem.allocateBlock: /user/root/rand6/_temporary/_task_200811101024_0013_m_001243_0/part-01243. blk_4560695115504354397
081111 073339 32 INFO dfs.FSNamesystem: BLOCK* NameSystem.allocateBlock: /user/root/rand6/_temporary/_task_200811101024_0013_m_001233_0/part-01233. blk_-2356092732421197051
081111 073339 32 INFO dfs.FSNamesystem: BLOCK* NameSystem.allocateBlock: /user/root/rand6/_temporary/_task_200811101024_0013_m_001533_0/part-01533. blk_-4318357216987553174
081111 073339 33 INFO dfs.FSNamesystem: BLOCK* NameSystem.addStoredBlock: blockMap updated: 10.251.109.209:50010 is added to blk_3895348410713252929 size 67108864
081111 073339 33 INFO dfs.FSNamesystem: BLOCK* NameSystem.addStoredBlock: blockMap updated: 10.251.109.209:50010 is added to blk_570157893137896406 size 67108864
081111 073339 33 INFO dfs.FSNamesystem: BLOCK* NameSystem.addStoredBlock: blockMap updated: 10.251.109.209:50010 is added to blk_9008249210068160932 size 67108864
081111 073339 33 INFO dfs.FSNamesystem: BLOCK* NameSystem.addStoredBlock: blockMap updated: 10.251.30.179:50010 is added to blk_-1940246788291841956 size 67108864
081111 073339 34 INFO dfs.FSNamesystem: BLOCK* NameSystem.addStoredBlock: blockMap updated: 10.250.17.177:50010 is added to blk_-1940246788291841956 size 67108864
081111 073339 34 INFO dfs.FSNamesystem: BLOCK* NameSystem.addStoredBlock: blockMap updated: 10.251.123.132:50010 is added to blk_7415862773536721724 size 67108864
081111 073339 34 INFO dfs.FSNamesystem: BLOCK* NameSystem.addStoredBlock: blockMap updated: 10.251.38.214:50010 is added to blk_1544320004150854066 size 67108864
081111 073339 34 INFO dfs.FSNamesystem: BLOCK* NameSystem.addStoredBlock: blockMap updated: 10.251.39.160:50010 is added to blk_8844045896712965415 size 67108864
081111 073339 34 INFO dfs.FSNamesystem: BLOCK* NameSystem.allocateBlock: /user/root/rand6/_temporary/_task_200811101024_0013_m_001405_0/part-01405. blk_6977930769261168035
081111 073340 13 INFO dfs.DataBlockScanner: Verification succeeded for blk_-2196221760701057400
081111 073340 18161 INFO dfs.DataNode$PacketResponder: PacketResponder 2 for block blk_3085641870229674966 terminating
081111 073340 18161 INFO dfs.DataNode$PacketResponder: Received block blk_3085641870229674966 of size 67108864 from /10.251.39.160
081111 073340 18163 INFO dfs.DataNode$DataXceiver: Receiving block blk_8735823784662388403 src: /10.251.39.160:47389 dest: /10.251.39.160:50010
081111 073340 22100 INFO dfs.DataNode$PacketResponder: PacketResponder 0 for block blk_-7431124465813492950 terminating
081111 073340 22100 INFO dfs.DataNode$PacketResponder: Received block blk_-7431124465813492950 of size 67108864 from /10.251.26.8
081111 073340 22871 INFO dfs.DataNode$DataXceiver: Receiving block blk_4560695115504354397 src: /10.251.70.5:46924 dest: /10.251.70.5:50010
081111 073340 22891 INFO dfs.DataNode$PacketResponder: PacketResponder 1 for block blk_-4793046191300467554 terminating
081111 073340 22891 INFO dfs.DataNode$PacketResponder: Received block blk_-4793046191300467554 of size 67108864 from /10.251.30.179
081111 073340 23149 INFO dfs.DataNode$DataXceiver: Receiving block blk_5299863071343501935 src: /10.251.71.68:37701 dest: /10.251.71.68:50010
081111 073340 23149 INFO dfs.DataNode$DataXceiver: Receiving block blk_-7105727305513060014 src: /10.251.107.98:42780 dest: /10.251.107.98:50010
081111 073340 23154 INFO dfs.DataNode$DataXceiver: Receiving block blk_5299863071343501935 src: /10.251.106.37:48251 dest: /10.251.106.37:50010
081111 073340 23155 INFO dfs.DataNode$PacketResponder: PacketResponder 1 for block blk_6305605229820182204 terminating
081111 073340 23155 INFO dfs.DataNode$PacketResponder: Received block blk_6305605229820182204 of size 67108864 from /10.251.31.85
081111 073340 23166 INFO dfs.DataNode$DataXceiver: Receiving block blk_6977930769261168035 src: /10.251.90.239:48749 dest: /10.251.90.239:50010
081111 073340 23187 INFO dfs.DataNode$DataXceiver: Receiving block blk_-5442867938594213179 src: /10.251.26.8:47879 dest: /10.251.26.8:50010
081111 073340 23212 INFO dfs.DataNode$PacketResponder: PacketResponder 0 for block blk_-4793046191300467554 terminating
081111 073340 23212 INFO dfs.DataNode$PacketResponder: PacketResponder 1 for block blk_2283778432109238352 terminating
081111 073340 23212 INFO dfs.DataNode$PacketResponder: Received block blk_2283778432109238352 of size 67108864 from /10.251.197.226
081111 073340 23212 INFO dfs.DataNode$PacketResponder: Received block blk_-4793046191300467554 of size 67108864 from /10.251.203.246
081111 073340 23226 INFO dfs.DataNode$PacketResponder: PacketResponder 1 for block blk_-5490253918522798480 terminating
081111 073340 23226 INFO dfs.DataNode$PacketResponder: Received block blk_-5490253918522798480 of size 67108864 from /10.251.122.38
081111 073340 23235 INFO dfs.DataNode$PacketResponder: PacketResponder 2 for block blk_-1940246788291841956 terminating
081111 073340 23235 INFO dfs.DataNode$PacketResponder: Received block blk_-1940246788291841956 of size 67108864 from /10.250.17.177
081111 073340 23244 INFO dfs.DataNode$DataXceiver: Receiving block blk_-2214715725667762234 src: /10.250.17.177:42290 dest: /10.250.17.177:50010
081111 073340 23271 INFO dfs.DataNode$DataXceiver: Receiving block blk_692141688818841861 src: /10.250.14.143:38945 dest: /10.250.14.143:50010
081111 073340 23287 INFO dfs.DataNode$DataXceiver: Receiving block blk_-8459051261776350027 src: /10.251.106.50:56926 dest: /10.251.106.50:50010
081111 073340 23292 INFO dfs.DataNode$DataXceiver: Receiving block blk_1503223589284620295 src: /10.251.214.67:41397 dest: /10.251.214.67:50010
081111 073340 23292 INFO dfs.DataNode$PacketResponder: PacketResponder 1 for block blk_3085641870229674966 terminating
081111 073340 23292 INFO dfs.DataNode$PacketResponder: Received block blk_3085641870229674966 of size 67108864 from /10.251.39.160
081111 073340 23296 INFO dfs.DataNode$PacketResponder: PacketResponder 1 for block blk_2154572753951353335 terminating
081111 073340 23296 INFO dfs.DataNode$PacketResponder: Received block blk_2154572753951353335 of size 67108864 from /10.251.214.67
081111 073340 23307 INFO dfs.DataNode$PacketResponder: PacketResponder 2 for block blk_-5490253918522798480 terminating
081111 073340 23307 INFO dfs.DataNode$PacketResponder: Received block blk_-5490253918522798480 of size 67108864 from /10.251.122.38
081111 073340 23310 INFO dfs.DataNode$DataXceiver: Receiving block blk_192209024284812768 src: /10.251.122.38:36110 dest: /10.251.122.38:50010
081111 073340 23318 INFO dfs.DataNode$PacketResponder: PacketResponder 1 for block blk_-5234547749014849201 terminating
081111 073340 23318 INFO dfs.DataNode$PacketResponder: Received block blk_-5234547749014849201 of size 67108864 from /10.251.66.63
081111 073340 23335 INFO dfs.DataNode$DataXceiver: Receiving block blk_6977930769261168035 src: /10.250.10.144:41884 dest: /10.250.10.144:50010
081111 073340 23360 INFO dfs.DataNode$PacketResponder: PacketResponder 0 for block blk_6305605229820182204 terminating
081111 073340 23360 INFO dfs.DataNode$PacketResponder: Received block blk_6305605229820182204 of size 67108864 from /10.250.11.85
081111 073340 23369 INFO dfs.DataNode$DataXceiver: Receiving block blk_-6276894003275436018 src: /10.251.31.160:38168 dest: /10.251.31.160:50010
081111 073340 23372 INFO dfs.DataNode$DataXceiver: Receiving block blk_-8459051261776350027 src: /10.251.106.50:45563 dest: /10.251.106.50:50010
081111 073340 23376 INFO dfs.DataNode$DataXceiver: Receiving block blk_-2214715725667762234 src: /10.250.17.177:40534 dest: /10.250.17.177:50010
081111 073340 23378 INFO dfs.DataNode$PacketResponder: PacketResponder 0 for block blk_4771089604335004718 terminating
081111 073340 23378 INFO dfs.DataNode$PacketResponder: Received block blk_4771089604335004718 of size 67108864 from /10.251.27.63
081111 073340 23384 INFO dfs.DataNode$PacketResponder: PacketResponder 2 for block blk_-5234547749014849201 terminating
081111 073340 23384 INFO dfs.DataNode$PacketResponder: Received block blk_-5234547749014849201 of size 67108864 from /10.251.66.63
081111 073340 23385 INFO dfs.DataNode$DataXceiver: Receiving block blk_6080505688939664821 src: /10.251.71.240:35014 dest: /10.251.71.240:50010
081111 073340 23392 INFO dfs.DataNode$PacketResponder: PacketResponder 0 for block blk_-5490253918522798480 terminating
081111 073340 23392 INFO dfs.DataNode$PacketResponder: Received block blk_-5490253918522798480 of size 67108864 from /10.251.39.64
081111 073340 23395 INFO dfs.DataNode$PacketResponder: PacketResponder 0 for block blk_2283778432109238352 terminating
081111 073340 23395 INFO dfs.DataNode$PacketResponder: Received block blk_2283778432109238352 of size 67108864 from /10.251.73.188
081111 073340 23397 INFO dfs.DataNode$DataXceiver: Receiving block blk_5219584705794653254 src: /10.251.66.63:36263 dest: /10.251.66.63:50010
081111 073340 23400 INFO dfs.DataNode$DataXceiver: Receiving block blk_-7105727305513060014 src: /10.251.107.98:37936 dest: /10.251.107.98:50010
081111 073340 23402 INFO dfs.DataNode$PacketResponder: PacketResponder 2 for block blk_-9095026691535283603 terminating
081111 073340 23402 INFO dfs.DataNode$PacketResponder: Received block blk_-9095026691535283603 of size 67108864 from /10.251.71.16
081111 073340 23403 INFO dfs.DataNode$PacketResponder: PacketResponder 2 for block blk_2154572753951353335 terminating
081111 073340 23403 INFO dfs.DataNode$PacketResponder: Received block blk_2154572753951353335 of size 67108864 from /10.251.214.67
081111 073340 23409 INFO dfs.DataNode$DataXceiver: Receiving block blk_-1548679536446711427 src: /10.251.71.16:33487 dest: /10.251.71.16:50010
081111 073340 23410 INFO dfs.DataNode$DataXceiver: Receiving block blk_1503223589284620295 src: /10.251.214.67:50950 dest: /10.251.214.67:50010
081111 073340 23440 INFO dfs.DataNode$PacketResponder: PacketResponder 0 for block blk_-9095026691535283603 terminating
081111 073340 23440 INFO dfs.DataNode$PacketResponder: Received block blk_-9095026691535283603 of size 67108864 from /10.251.75.79
081111 073340 23443 INFO dfs.DataNode$PacketResponder: PacketResponder 2 for block blk_6305605229820182204 terminating
081111 073340 23443 INFO dfs.DataNode$PacketResponder: Received block blk_6305605229820182204 of size 67108864 from /10.251.31.85
081111 073340 23483 INFO dfs.DataNode$DataXceiver: Receiving block blk_1503223589284620295 src: /10.251.193.224:48461 dest: /10.251.193.224:50010
081111 073340 23491 INFO dfs.DataNode$DataXceiver: Receiving block blk_4560695115504354397 src: /10.251.126.255:40605 dest: /10.251.126.255:50010
081111 073340 23521 INFO dfs.DataNode$PacketResponder: PacketResponder 0 for block blk_3085641870229674966 terminating
081111 073340 23521 INFO dfs.DataNode$PacketResponder: Received block blk_3085641870229674966 of size 67108864 from /10.250.14.196
081111 073340 23523 INFO dfs.DataNode$PacketResponder: PacketResponder 0 for block blk_2154572753951353335 terminating
081111 073340 23523 INFO dfs.DataNode$PacketResponder: Received block blk_2154572753951353335 of size 67108864 from /10.251.199.150
081111 073340 23534 INFO dfs.DataNode$PacketResponder: PacketResponder 1 for block blk_-7431124465813492950 terminating
081111 073340 23534 INFO dfs.DataNode$PacketResponder: Received block blk_-7431124465813492950 of size 67108864 from /10.251.70.112
081111 073340 23566 INFO dfs.DataNode$PacketResponder: PacketResponder 0 for block blk_-5234547749014849201 terminating
081111 073340 23566 INFO dfs.DataNode$PacketResponder: Received block blk_-5234547749014849201 of size 67108864 from /10.251.71.146
081111 073340 23573 INFO dfs.DataNode$PacketResponder: PacketResponder 1 for block blk_-9095026691535283603 terminating
081111 073340 23573 INFO dfs.DataNode$PacketResponder: Received block blk_-9095026691535283603 of size 67108864 from /10.251.71.16
081111 073340 23581 INFO dfs.DataNode$PacketResponder: PacketResponder 1 for block blk_-5321915263178692216 terminating
081111 073340 23581 INFO dfs.DataNode$PacketResponder: Received block blk_-5321915263178692216 of size 67108864 from /10.251.75.163
081111 073340 23589 INFO dfs.DataNode$PacketResponder: PacketResponder 2 for block blk_-5321915263178692216 terminating
081111 073340 23589 INFO dfs.DataNode$PacketResponder: Received block blk_-5321915263178692216 of size 67108864 from /10.251.75.163
081111 073340 23598 INFO dfs.DataNode$DataXceiver: Receiving block blk_1502795304545675038 src: /10.251.75.163:57081 dest: /10.251.75.163:50010
081111 073340 23612 INFO dfs.DataNode$DataXceiver: Receiving block blk_-8883635349153607792 src: /10.251.67.113:52708 dest: /10.251.67.113:50010
081111 073340 23729 INFO dfs.DataNode$DataXceiver: Receiving block blk_692141688818841861 src: /10.250.14.143:44919 dest: /10.250.14.143:50010
081111 073340 26 INFO dfs.FSNamesystem: BLOCK* NameSystem.addStoredBlock: blockMap updated: 10.250.5.161:50010 is added to blk_5063997650837138416 size 67108864
081111 073340 26 INFO dfs.FSNamesystem: BLOCK* NameSystem.addStoredBlock: blockMap updated: 10.251.126.5:50010 is added to blk_2283778432109238352 size 67108864
081111 073340 26 INFO dfs.FSNamesystem: BLOCK* NameSystem.addStoredBlock: blockMap updated: 10.251.26.8:50010 is added to blk_-7431124465813492950 size 67108864
081111 073340 26 INFO dfs.FSNamesystem: BLOCK* NameSystem.addStoredBlock: blockMap updated: 10.251.71.146:50010 is added to blk_-5234547749014849201 size 67108864
081111 073340 27 INFO dfs.FSNamesystem: BLOCK* NameSystem.addStoredBlock: blockMap updated: 10.251.37.240:50010 is added to blk_-5490253918522798480 size 67108864
081111 073340 27 INFO dfs.FSNamesystem: BLOCK* NameSystem.addStoredBlock: blockMap updated: 10.251.73.188:50010 is added to blk_2283778432109238352 size 67108864
081111 073340 27 INFO dfs.FSNamesystem: BLOCK* NameSystem.addStoredBlock: blockMap updated: 10.251.75.163:50010 is added to blk_-5321915263178692216 size 67108864
081111 073340 28 INFO dfs.FSNamesystem: BLOCK* NameSystem.addStoredBlock: blockMap updated: 10.250.18.114:50010 is added to blk_-5234547749014849201 size 67108864
081111 073340 28 INFO dfs.FSNamesystem: BLOCK* NameSystem.addStoredBlock: blockMap updated: 10.251.125.174:50010 is added to blk_-1940246788291841956 size 67108864
081111 073340 28 INFO dfs.FSNamesystem: BLOCK* NameSystem.addStoredBlock: blockMap updated: 10.251.199.150:50010 is added to blk_2154572753951353335 size 67108864
081111 073340 28 INFO dfs.FSNamesystem: BLOCK* NameSystem.addStoredBlock: blockMap updated: 10.251.203.246:50010 is added to blk_-4793046191300467554 size 67108864
081111 073340 28 INFO dfs.FSNamesystem: BLOCK* NameSystem.addStoredBlock: blockMap updated: 10.251.31.85:50010 is added to blk_6305605229820182204 size 67108864
081111 073340 29 INFO dfs.FSNamesystem: BLOCK* NameSystem.addStoredBlock: blockMap updated: 10.251.106.10:50010 is added to blk_-7431124465813492950 size 67108864
081111 073340 29 INFO dfs.FSNamesystem: BLOCK* NameSystem.addStoredBlock: blockMap updated: 10.251.110.196:50010 is added to blk_3085641870229674966 size 67108864
081111 073340 29 INFO dfs.FSNamesystem: BLOCK* NameSystem.addStoredBlock: blockMap updated: 10.251.90.81:50010 is added to blk_-5321915263178692216 size 67108864
081111 073340 29 INFO dfs.FSNamesystem: BLOCK* NameSystem.allocateBlock: /user/root/rand6/_temporary/_task_200811101024_0013_m_001528_0/part-01528. blk_8735823784662388403
081111 073340 30 INFO dfs.FSNamesystem: BLOCK* NameSystem.addStoredBlock: blockMap updated: 10.250.11.85:50010 is added to blk_6305605229820182204 size 67108864
081111 073340 30 INFO dfs.FSNamesystem: BLOCK* NameSystem.addStoredBlock: blockMap updated: 10.251.107.227:50010 is added to blk_8844045896712965415 size 67108864
081111 073340 30 INFO dfs.FSNamesystem: BLOCK* NameSystem.addStoredBlock: blockMap updated: 10.251.110.196:50010 is added to blk_2154572753951353335 size 67108864
081111 073340 30 INFO dfs.FSNamesystem: BLOCK* NameSystem.addStoredBlock: blockMap updated: 10.251.71.16:50010 is added to blk_-9095026691535283603 size 67108864
081111 073340 30 INFO dfs.FSNamesystem: BLOCK* NameSystem.allocateBlock: /user/root/rand6/_temporary/_task_200811101024_0013_m_001455_0/part-01455. blk_1502795304545675038
081111 073340 31 INFO dfs.FSNamesystem: BLOCK* NameSystem.allocateBlock: /user/root/rand6/_temporary/_task_200811101024_0013_m_001314_0/part-01314. blk_-2334188801414874637
081111 073340 31 INFO dfs.FSNamesystem: BLOCK* NameSystem.allocateBlock: /user/root/rand6/_temporary/_task_200811101024_0013_m_001319_0/part-01319. blk_-8459051261776350027
081111 073340 31 INFO dfs.FSNamesystem: BLOCK* NameSystem.allocateBlock: /user/root/rand6/_temporary/_task_200811101024_0013_m_001566_0/part-01566. blk_692141688818841861
081111 073340 32 INFO dfs.FSNamesystem: BLOCK* NameSystem.addStoredBlock: blockMap updated: 10.250.14.196:50010 is added to blk_3085641870229674966 size 67108864
081111 073340 32 INFO dfs.FSNamesystem: BLOCK* NameSystem.addStoredBlock: blockMap updated: 10.251.195.52:50010 is added to blk_-4793046191300467554 size 67108864
081111 073340 32 INFO dfs.FSNamesystem: BLOCK* NameSystem.addStoredBlock: blockMap updated: 10.251.75.79:50010 is added to blk_-9095026691535283603 size 67108864
081111 073340 32 INFO dfs.FSNamesystem: BLOCK* NameSystem.allocateBlock: /user/root/rand6/_temporary/_task_200811101024_0013_m_001377_0/part-01377. blk_1503223589284620295
081111 073340 33 INFO dfs.FSNamesystem: BLOCK* NameSystem.addStoredBlock: blockMap updated: 10.251.122.38:50010 is added to blk_-5490253918522798480 size 67108864
081111 073340 33 INFO dfs.FSNamesystem: BLOCK* NameSystem.addStoredBlock: blockMap updated: 10.251.26.177:50010 is added to blk_6305605229820182204 size 67108864
081111 073340 33 INFO dfs.FSNamesystem: BLOCK* NameSystem.addStoredBlock: blockMap updated: 10.251.66.63:50010 is added to blk_-5234547749014849201 size 67108864
081111 073340 34 INFO dfs.FSNamesystem: BLOCK* NameSystem.addStoredBlock: blockMap updated: 10.251.194.129:50010 is added to blk_4771089604335004718 size 67108864
081111 073340 34 INFO dfs.FSNamesystem: BLOCK* NameSystem.addStoredBlock: blockMap updated: 10.251.214.67:50010 is added to blk_2154572753951353335 size 67108864
081111 073340 34 INFO dfs.FSNamesystem: BLOCK* NameSystem.addStoredBlock: blockMap updated: 10.251.75.49:50010 is added to blk_-9095026691535283603 size 67108864
081111 073340 34 INFO dfs.FSNamesystem: BLOCK* NameSystem.allocateBlock: /user/root/rand6/_temporary/_task_200811101024_0013_m_001485_0/part-01485. blk_-1548679536446711427
081111 073340 35 INFO dfs.FSNamesystem: BLOCK* NameSystem.addStoredBlock: blockMap updated: 10.251.39.160:50010 is added to blk_3085641870229674966 size 67108864
081111 073340 35 INFO dfs.FSNamesystem: BLOCK* NameSystem.addStoredBlock: blockMap updated: 10.251.39.64:50010 is added to blk_-5490253918522798480 size 67108864
081111 073340 35 INFO dfs.FSNamesystem: BLOCK* NameSystem.allocateBlock: /user/root/rand6/_temporary/_task_200811101024_0013_m_001390_0/part-01390. blk_192209024284812768
081111 073340 35 INFO dfs.FSNamesystem: BLOCK* NameSystem.allocateBlock: /user/root/rand6/_temporary/_task_200811101024_0013_m_001544_0/part-01544. blk_5219584705794653254
081111 073340 35 INFO dfs.FSNamesystem: BLOCK* NameSystem.allocateBlock: /user/root/rand6/_temporary/_task_200811101024_0013_m_001564_0/part-01564. blk_-7105727305513060014
081111 073341 13 INFO dfs.DataBlockScanner: Verification succeeded for blk_-1332698178950473653
081111 073341 22917 INFO dfs.DataNode$PacketResponder: PacketResponder 2 for block blk_1892216648497332130 terminating
081111 073341 22917 INFO dfs.DataNode$PacketResponder: Received block blk_1892216648497332130 of size 67108864 from /10.251.203.4
081111 073341 22924 INFO dfs.DataNode$DataXceiver: Receiving block blk_-810902837126132025 src: /10.251.203.4:59321 dest: /10.251.203.4:50010
081111 073341 22925 INFO dfs.DataNode$DataXceiver: Receiving block blk_8200328687477677803 src: /10.251.125.237:50945 dest: /10.251.125.237:50010
081111 073341 22963 INFO dfs.DataNode$DataXceiver: Receiving block blk_8982152179652636732 src: /10.251.70.112:37731 dest: /10.251.70.112:50010
081111 073341 22989 INFO dfs.DataNode$PacketResponder: PacketResponder 1 for block blk_3826620512442608332 terminating
081111 073341 22989 INFO dfs.DataNode$PacketResponder: Received block blk_3826620512442608332 of size 67108864 from /10.251.125.237
081111 073341 23023 INFO dfs.DataNode$PacketResponder: PacketResponder 2 for block blk_2793648538572191718 terminating
081111 073341 23023 INFO dfs.DataNode$PacketResponder: Received block blk_2793648538572191718 of size 67108864 from /10.250.15.67
081111 073341 23027 INFO dfs.DataNode$DataXceiver: Receiving block blk_4363946500084812978 src: /10.250.15.67:49602 dest: /10.250.15.67:50010
081111 073341 23054 INFO dfs.DataNode$PacketResponder: PacketResponder 1 for block blk_-2885010437446574900 terminating
081111 073341 23054 INFO dfs.DataNode$PacketResponder: Received block blk_-2885010437446574900 of size 67108864 from /10.251.125.174
081111 073341 23070 INFO dfs.DataNode$PacketResponder: PacketResponder 1 for block blk_2793648538572191718 terminating
081111 073341 23070 INFO dfs.DataNode$PacketResponder: Received block blk_2793648538572191718 of size 67108864 from /10.250.15.67
081111 073341 23144 INFO dfs.DataNode$DataXceiver: Receiving block blk_-1548679536446711427 src: /10.251.71.16:56032 dest: /10.251.71.16:50010
081111 073341 23156 INFO dfs.DataNode$DataXceiver: Receiving block blk_192209024284812768 src: /10.251.107.196:54390 dest: /10.251.107.196:50010
081111 073341 23156 INFO dfs.DataNode$DataXceiver: Receiving block blk_4363946500084812978 src: /10.250.15.67:52146 dest: /10.250.15.67:50010
081111 073341 23169 INFO dfs.DataNode$PacketResponder: PacketResponder 1 for block blk_1892216648497332130 terminating
081111 073341 23169 INFO dfs.DataNode$PacketResponder: Received block blk_1892216648497332130 of size 67108864 from /10.251.203.4
081111 073341 23170 INFO dfs.DataNode$PacketResponder: PacketResponder 1 for block blk_-2094682334695158220 terminating
081111 073341 23170 INFO dfs.DataNode$PacketResponder: Received block blk_-2094682334695158220 of size 67108864 from /10.251.127.191
081111 073341 23171 INFO dfs.DataNode$PacketResponder: PacketResponder 0 for block blk_2793648538572191718 terminating
081111 073341 23171 INFO dfs.DataNode$PacketResponder: Received block blk_2793648538572191718 of size 67108864 from /10.251.197.161
081111 073341 23178 INFO dfs.DataNode$DataXceiver: Receiving block blk_5219584705794653254 src: /10.251.66.63:36359 dest: /10.251.66.63:50010
081111 073341 23196 INFO dfs.DataNode$PacketResponder: PacketResponder 2 for block blk_8687740010360535130 terminating
081111 073341 23196 INFO dfs.DataNode$PacketResponder: Received block blk_8687740010360535130 of size 67108864 from /10.251.125.193
081111 073341 23199 INFO dfs.DataNode$DataXceiver: Receiving block blk_-2784200023761671900 src: /10.251.125.193:60372 dest: /10.251.125.193:50010
081111 073341 23203 INFO dfs.DataNode$PacketResponder: PacketResponder 1 for block blk_8645374862438660755 terminating
081111 073341 23203 INFO dfs.DataNode$PacketResponder: Received block blk_8645374862438660755 of size 67108864 from /10.251.26.177
081111 073341 23222 INFO dfs.DataNode$PacketResponder: PacketResponder 0 for block blk_-6428961893861330383 terminating
081111 073341 23222 INFO dfs.DataNode$PacketResponder: Received block blk_-6428961893861330383 of size 67108864 from /10.251.31.180
081111 073341 23235 INFO dfs.DataNode$DataXceiver: Receiving block blk_8967828389042130920 src: /10.251.197.226:42266 dest: /10.251.197.226:50010
081111 073341 23262 INFO dfs.DataNode$PacketResponder: PacketResponder 2 for block blk_-4793046191300467554 terminating
081111 073341 23262 INFO dfs.DataNode$PacketResponder: Received block blk_-4793046191300467554 of size 67108864 from /10.251.30.179
081111 073341 23276 INFO dfs.DataNode$PacketResponder: PacketResponder 0 for block blk_1892216648497332130 terminating
081111 073341 23276 INFO dfs.DataNode$PacketResponder: PacketResponder 2 for block blk_-2885010437446574900 terminating
081111 073341 23276 INFO dfs.DataNode$PacketResponder: Received block blk_1892216648497332130 of size 67108864 from /10.251.90.134
081111 073341 23276 INFO dfs.DataNode$PacketResponder: Received block blk_-2885010437446574900 of size 67108864 from /10.251.125.174
081111 073341 23283 INFO dfs.DataNode$DataXceiver: Receiving block blk_1216515695102055575 src: /10.251.30.179:47071 dest: /10.251.30.179:50010
081111 073341 23285 INFO dfs.DataNode$DataXceiver: Receiving block blk_8735823784662388403 src: /10.251.39.160:55850 dest: /10.251.39.160:50010
081111 073341 23286 INFO dfs.DataNode$PacketResponder: PacketResponder 2 for block blk_3826620512442608332 terminating
081111 073341 23286 INFO dfs.DataNode$PacketResponder: Received block blk_3826620512442608332 of size 67108864 from /10.251.125.237
081111 073341 23294 INFO dfs.DataNode$DataXceiver: Receiving block blk_-7810167391579511612 src: /10.251.107.19:51453 dest: /10.251.107.19:50010
081111 073341 23294 INFO dfs.DataNode$DataXceiver: Receiving block blk_-8459051261776350027 src: /10.251.31.160:34629 dest: /10.251.31.160:50010
081111 073341 23295 INFO dfs.DataNode$DataXceiver: Receiving block blk_-8934188182729729486 src: /10.251.125.174:34954 dest: /10.251.125.174:50010
081111 073341 23299 INFO dfs.DataNode$DataXceiver: Receiving block blk_-810902837126132025 src: /10.250.19.227:36545 dest: /10.250.19.227:50010
081111 073341 23301 INFO dfs.DataNode$DataXceiver: Receiving block blk_8200328687477677803 src: /10.251.125.237:33855 dest: /10.251.125.237:50010
081111 073341 23307 INFO dfs.DataNode$PacketResponder: PacketResponder 0 for block blk_-2885010437446574900 terminating
081111 073341 23307 INFO dfs.DataNode$PacketResponder: Received block blk_-2885010437446574900 of size 67108864 from /10.250.14.224
081111 073341 23313 INFO dfs.DataNode$PacketResponder: PacketResponder 0 for block blk_-2094682334695158220 terminating
081111 073341 23313 INFO dfs.DataNode$PacketResponder: Received block blk_-2094682334695158220 of size 67108864 from /10.251.106.214
081111 073341 23318 INFO dfs.DataNode$PacketResponder: PacketResponder 0 for block blk_8687740010360535130 terminating
081111 073341 23318 INFO dfs.DataNode$PacketResponder: Received block blk_8687740010360535130 of size 67108864 from /10.251.42.246
081111 073341 23347 INFO dfs.DataNode$DataXceiver: Receiving block blk_-2334188801414874637 src: /10.251.198.33:36048 dest: /10.251.198.33:50010
081111 073341 23358 INFO dfs.DataNode$PacketResponder: PacketResponder 2 for block blk_8645374862438660755 terminating
081111 073341 23358 INFO dfs.DataNode$PacketResponder: Received block blk_8645374862438660755 of size 67108864 from /10.251.26.177
081111 073341 23371 INFO dfs.DataNode$DataXceiver: Receiving block blk_-2644722253973096762 src: /10.251.26.177:50848 dest: /10.251.26.177:50010
081111 073341 23375 INFO dfs.DataNode$DataXceiver: Receiving block blk_192209024284812768 src: /10.251.122.38:49550 dest: /10.251.122.38:50010
081111 073341 23377 INFO dfs.DataNode$PacketResponder: PacketResponder 1 for block blk_8687740010360535130 terminating
081111 073341 23377 INFO dfs.DataNode$PacketResponder: Received block blk_8687740010360535130 of size 67108864 from /10.251.125.193
081111 073341 23378 INFO dfs.DataNode$DataXceiver: Receiving block blk_5219584705794653254 src: /10.251.67.113:59233 dest: /10.251.67.113:50010
081111 073341 23389 INFO dfs.DataNode$PacketResponder: PacketResponder 0 for block blk_8645374862438660755 terminating
081111 073341 23389 INFO dfs.DataNode$PacketResponder: Received block blk_8645374862438660755 of size 67108864 from /10.251.42.16
081111 073341 23392 INFO dfs.DataNode$PacketResponder: PacketResponder 2 for block blk_-7431124465813492950 terminating
081111 073341 23392 INFO dfs.DataNode$PacketResponder: Received block blk_-7431124465813492950 of size 67108864 from /10.251.70.112
081111 073341 23400 INFO dfs.DataNode$DataXceiver: Receiving block blk_8967828389042130920 src: /10.251.39.64:41265 dest: /10.251.39.64:50010
081111 073341 23401 INFO dfs.DataNode$DataXceiver: Receiving block blk_1502795304545675038 src: /10.251.75.163:43398 dest: /10.251.75.163:50010
081111 073341 23401 INFO dfs.DataNode$DataXceiver: Receiving block blk_-2214715725667762234 src: /10.251.75.143:38739 dest: /10.251.75.143:50010
081111 073341 23402 INFO dfs.DataNode$DataXceiver: Receiving block blk_8982152179652636732 src: /10.251.70.112:48363 dest: /10.251.70.112:50010
081111 073341 23437 INFO dfs.DataNode$DataXceiver: Receiving block blk_-810902837126132025 src: /10.251.203.4:45751 dest: /10.251.203.4:50010
081111 073341 23458 INFO dfs.DataNode$DataXceiver: Receiving block blk_-2334188801414874637 src: /10.251.31.85:47966 dest: /10.251.31.85:50010
081111 073341 23526 INFO dfs.DataNode$DataXceiver: Receiving block blk_-7105727305513060014 src: /10.251.65.237:56817 dest: /10.251.65.237:50010
081111 073341 23528 INFO dfs.DataNode$DataXceiver: Receiving block blk_-1548679536446711427 src: /10.250.9.207:56880 dest: /10.250.9.207:50010
081111 073341 23567 INFO dfs.DataNode$DataXceiver: Receiving block blk_1502795304545675038 src: /10.251.37.240:56118 dest: /10.251.37.240:50010
081111 073341 23571 INFO dfs.DataNode$PacketResponder: PacketResponder 2 for block blk_2283778432109238352 terminating
081111 073341 23571 INFO dfs.DataNode$PacketResponder: Received block blk_2283778432109238352 of size 67108864 from /10.251.197.226
081111 073341 23572 INFO dfs.DataNode$DataXceiver: Receiving block blk_8200328687477677803 src: /10.251.203.4:46908 dest: /10.251.203.4:50010
081111 073341 23585 INFO dfs.DataNode$DataXceiver: Receiving block blk_8967828389042130920 src: /10.251.197.226:54037 dest: /10.251.197.226:50010
081111 073341 23779 INFO dfs.DataNode$DataXceiver: Receiving block blk_-2334188801414874637 src: /10.251.31.85:54048 dest: /10.251.31.85:50010
081111 073341 26 INFO dfs.FSNamesystem: BLOCK* NameSystem.addStoredBlock: blockMap updated: 10.250.15.67:50010 is added to blk_2793648538572191718 size 67108864
081111 073341 26 INFO dfs.FSNamesystem: BLOCK* NameSystem.addStoredBlock: blockMap updated: 10.251.111.130:50010 is added to blk_-2094682334695158220 size 67108864
081111 073341 26 INFO dfs.FSNamesystem: BLOCK* NameSystem.addStoredBlock: blockMap updated: 10.251.122.65:50010 is added to blk_1892216648497332130 size 67108864
081111 073341 26 INFO dfs.FSNamesystem: BLOCK* NameSystem.allocateBlock: /user/root/rand6/_temporary/_task_200811101024_0013_m_001511_0/part-01511. blk_8982152179652636732
081111 073341 27 INFO dfs.FSNamesystem: BLOCK* NameSystem.addStoredBlock: blockMap updated: 10.250.15.101:50010 is added to blk_-2885010437446574900 size 67108864
081111 073341 27 INFO dfs.FSNamesystem: BLOCK* NameSystem.addStoredBlock: blockMap updated: 10.251.125.237:50010 is added to blk_3826620512442608332 size 67108864
081111 073341 27 INFO dfs.FSNamesystem: BLOCK* NameSystem.allocateBlock: /user/root/rand6/_temporary/_task_200811101024_0013_m_001395_0/part-01395. blk_8967828389042130920
081111 073341 28 INFO dfs.FSNamesystem: BLOCK* NameSystem.addStoredBlock: blockMap updated: 10.251.202.134:50010 is added to blk_3826620512442608332 size 67108864
081111 073341 28 INFO dfs.FSNamesystem: BLOCK* NameSystem.addStoredBlock: blockMap updated: 10.251.30.179:50010 is added to blk_-4793046191300467554 size 67108864
081111 073341 28 INFO dfs.FSNamesystem: BLOCK* NameSystem.addStoredBlock: blockMap updated: 10.251.70.112:50010 is added to blk_-7431124465813492950 size 67108864
081111 073341 28 INFO dfs.FSNamesystem: BLOCK* NameSystem.allocateBlock: /user/root/rand6/_temporary/_task_200811101024_0013_m_001294_0/part-01294. blk_-2644722253973096762
081111 073341 28 INFO dfs.FSNamesystem: BLOCK* NameSystem.allocateBlock: /user/root/rand6/_temporary/_task_200811101024_0013_m_001551_0/part-01551. blk_-8934188182729729486
081111 073341 29 INFO dfs.FSNamesystem: BLOCK* NameSystem.addStoredBlock: blockMap updated: 10.251.203.4:50010 is added to blk_1892216648497332130 size 67108864
081111 073341 29 INFO dfs.FSNamesystem: BLOCK* NameSystem.addStoredBlock: blockMap updated: 10.251.42.16:50010 is added to blk_8645374862438660755 size 67108864
081111 073341 29 INFO dfs.FSNamesystem: BLOCK* NameSystem.addStoredBlock: blockMap updated: 10.251.90.134:50010 is added to blk_1892216648497332130 size 67108864
081111 073341 29 INFO dfs.FSNamesystem: BLOCK* NameSystem.allocateBlock: /user/root/rand6/_temporary/_task_200811101024_0013_m_001316_0/part-01316. blk_1216515695102055575
081111 073341 29 INFO dfs.FSNamesystem: BLOCK* NameSystem.allocateBlock: /user/root/rand6/_temporary/_task_200811101024_0013_m_001524_0/part-01524. blk_-2784200023761671900
081111 073341 30 INFO dfs.FSNamesystem: BLOCK* NameSystem.addStoredBlock: blockMap updated: 10.251.125.174:50010 is added to blk_-2885010437446574900 size 67108864
081111 073341 30 INFO dfs.FSNamesystem: BLOCK* NameSystem.addStoredBlock: blockMap updated: 10.251.26.177:50010 is added to blk_8645374862438660755 size 67108864
081111 073341 30 INFO dfs.FSNamesystem: BLOCK* NameSystem.addStoredBlock: blockMap updated: 10.251.67.113:50010 is added to blk_2793648538572191718 size 67108864
081111 073341 31 INFO dfs.FSNamesystem: BLOCK* NameSystem.addStoredBlock: blockMap updated: 10.250.14.224:50010 is added to blk_-2885010437446574900 size 67108864
081111 073341 31 INFO dfs.FSNamesystem: BLOCK* NameSystem.addStoredBlock: blockMap updated: 10.251.197.226:50010 is added to blk_2283778432109238352 size 67108864
081111 073341 31 INFO dfs.FSNamesystem: BLOCK* NameSystem.addStoredBlock: blockMap updated: 10.251.42.246:50010 is added to blk_8687740010360535130 size 67108864
081111 073341 31 INFO dfs.FSNamesystem: BLOCK* NameSystem.addStoredBlock: blockMap updated: 10.251.74.192:50010 is added to blk_-6428961893861330383 size 67108864
081111 073341 31 INFO dfs.FSNamesystem: BLOCK* NameSystem.allocateBlock: /user/root/rand6/_temporary/_task_200811101024_0013_m_001230_0/part-01230. blk_8200328687477677803
081111 073341 33 INFO dfs.FSNamesystem: BLOCK* NameSystem.addStoredBlock: blockMap updated: 10.251.106.214:50010 is added to blk_-2094682334695158220 size 67108864
081111 073341 33 INFO dfs.FSNamesystem: BLOCK* NameSystem.addStoredBlock: blockMap updated: 10.251.125.193:50010 is added to blk_8687740010360535130 size 67108864
081111 073341 33 INFO dfs.FSNamesystem: BLOCK* NameSystem.allocateBlock: /user/root/rand6/_temporary/_task_200811101024_0013_m_001247_0/part-01247. blk_4363946500084812978
081111 073341 34 INFO dfs.FSNamesystem: BLOCK* NameSystem.addStoredBlock: blockMap updated: 10.251.197.161:50010 is added to blk_2793648538572191718 size 67108864
081111 073341 34 INFO dfs.FSNamesystem: BLOCK* NameSystem.addStoredBlock: blockMap updated: 10.251.38.214:50010 is added to blk_8687740010360535130 size 67108864
081111 073341 35 INFO dfs.FSNamesystem: BLOCK* NameSystem.addStoredBlock: blockMap updated: 10.251.199.225:50010 is added to blk_8645374862438660755 size 67108864
081111 073341 35 INFO dfs.FSNamesystem: BLOCK* NameSystem.allocateBlock: /user/root/rand6/_temporary/_task_200811101024_0013_m_001263_0/part-01263. blk_-810902837126132025
081111 073342 13 INFO dfs.DataBlockScanner: Verification succeeded for blk_-6737792409473293436
081111 073342 22843 INFO dfs.DataNode$PacketResponder: PacketResponder 0 for block blk_-307065810575993729 terminating
081111 073342 22843 INFO dfs.DataNode$PacketResponder: Received block blk_-307065810575993729 of size 67108864 from /10.251.70.112
081111 073342 22987 INFO dfs.DataNode$PacketResponder: Received block blk_8024821395567742257 of size 67108864 from /10.251.203.149
081111 073342 23028 INFO dfs.DataNode$DataXceiver: Receiving block blk_-8059093137859803042 src: /10.251.66.102:34759 dest: /10.251.66.102:50010
081111 073342 23040 INFO dfs.DataNode$PacketResponder: PacketResponder 1 for block blk_2340473159809560230 terminating
081111 073342 23040 INFO dfs.DataNode$PacketResponder: Received block blk_2340473159809560230 of size 67108864 from /10.251.70.37
081111 073342 23051 INFO dfs.DataNode$PacketResponder: PacketResponder 2 for block blk_-5866942658113677850 terminating
081111 073342 23051 INFO dfs.DataNode$PacketResponder: Received block blk_-5866942658113677850 of size 67108864 from /10.251.25.237
081111 073342 23068 INFO dfs.DataNode$DataXceiver: Receiving block blk_6278031386241923034 src: /10.251.25.237:34242 dest: /10.251.25.237:50010
081111 073342 23089 INFO dfs.DataNode$PacketResponder: PacketResponder 2 for block blk_1014801892501316412 terminating
081111 073342 23089 INFO dfs.DataNode$PacketResponder: Received block blk_1014801892501316412 of size 67108864 from /10.251.107.227
081111 073342 23120 INFO dfs.DataNode$PacketResponder: PacketResponder 0 for block blk_-4735531180061762580 terminating
081111 073342 23120 INFO dfs.DataNode$PacketResponder: Received block blk_-4735531180061762580 of size 67108864 from /10.251.66.102
081111 073342 23129 INFO dfs.DataNode$PacketResponder: PacketResponder 1 for block blk_-5866942658113677850 terminating
081111 073342 23129 INFO dfs.DataNode$PacketResponder: Received block blk_-5866942658113677850 of size 67108864 from /10.251.25.237
081111 073342 23171 INFO dfs.DataNode$PacketResponder: PacketResponder 0 for block blk_9043608893498251899 terminating
081111 073342 23171 INFO dfs.DataNode$PacketResponder: Received block blk_9043608893498251899 of size 67108864 from /10.251.203.129
081111 073342 23172 INFO dfs.DataNode$PacketResponder: PacketResponder 1 for block blk_-9015650209691468475 terminating
081111 073342 23172 INFO dfs.DataNode$PacketResponder: Received block blk_-9015650209691468475 of size 67108864 from /10.251.199.150
081111 073342 23182 INFO dfs.DataNode$DataXceiver: Receiving block blk_-5806079293678796227 src: /10.251.127.191:49976 dest: /10.251.127.191:50010
081111 073342 23184 INFO dfs.DataNode$PacketResponder: PacketResponder 2 for block blk_9079784135676131604 terminating
081111 073342 23184 INFO dfs.DataNode$PacketResponder: Received block blk_9079784135676131604 of size 67108864 from /10.251.39.192
081111 073342 23189 INFO dfs.DataNode$DataXceiver: Receiving block blk_8005333602567443971 src: /10.251.39.192:51011 dest: /10.251.39.192:50010
081111 073342 23192 INFO dfs.DataNode$PacketResponder: PacketResponder 0 for block blk_-3726753798038967271 terminating
081111 073342 23192 INFO dfs.DataNode$PacketResponder: Received block blk_-3726753798038967271 of size 67108864 from /10.251.215.70
081111 073342 23206 INFO dfs.DataNode$PacketResponder: PacketResponder 0 for block blk_-9015650209691468475 terminating
081111 073342 23206 INFO dfs.DataNode$PacketResponder: Received block blk_-9015650209691468475 of size 67108864 from /10.251.35.1
081111 073342 23224 INFO dfs.DataNode$DataXceiver: Receiving block blk_-2433912693055446444 src: /10.251.194.245:37403 dest: /10.251.194.245:50010
081111 073342 23237 INFO dfs.DataNode$DataXceiver: Receiving block blk_4720859995096477580 src: /10.251.199.150:48095 dest: /10.251.199.150:50010
081111 073342 23255 INFO dfs.DataNode$DataXceiver: Receiving block blk_1216515695102055575 src: /10.251.30.179:44770 dest: /10.251.30.179:50010
081111 073342 23269 INFO dfs.DataNode$DataXceiver: Receiving block blk_7139504027800218729 src: /10.251.111.228:33628 dest: /10.251.111.228:50010
081111 073342 23291 INFO dfs.DataNode$PacketResponder: PacketResponder 2 for block blk_-9015650209691468475 terminating
081111 073342 23291 INFO dfs.DataNode$PacketResponder: Received block blk_-9015650209691468475 of size 67108864 from /10.251.199.150
081111 073342 23292 INFO dfs.DataNode$PacketResponder: PacketResponder 0 for block blk_-5670792559883130128 terminating
081111 073342 23292 INFO dfs.DataNode$PacketResponder: Received block blk_-5670792559883130128 of size 67108864 from /10.250.11.194
081111 073342 23296 INFO dfs.DataNode$DataXceiver: Receiving block blk_-7810167391579511612 src: /10.251.125.174:55290 dest: /10.251.125.174:50010
081111 073342 23300 INFO dfs.DataNode$DataXceiver: Receiving block blk_692141688818841861 src: /10.251.27.63:58769 dest: /10.251.27.63:50010
081111 073342 23303 INFO dfs.DataNode$DataXceiver: Receiving block blk_4720859995096477580 src: /10.251.199.150:41995 dest: /10.251.199.150:50010
081111 073342 23305 INFO dfs.DataNode$PacketResponder: PacketResponder 1 for block blk_-375027493961395976 terminating
081111 073342 23305 INFO dfs.DataNode$PacketResponder: Received block blk_-375027493961395976 of size 67108864 from /10.251.39.179
081111 073342 23324 INFO dfs.DataNode$PacketResponder: PacketResponder 1 for block blk_7817238471381199700 terminating
081111 073342 23324 INFO dfs.DataNode$PacketResponder: PacketResponder 2 for block blk_-3726753798038967271 terminating
081111 073342 23324 INFO dfs.DataNode$PacketResponder: PacketResponder 2 for block blk_3770230745413588148 terminating
081111 073342 23324 INFO dfs.DataNode$PacketResponder: Received block blk_-3726753798038967271 of size 67108864 from /10.250.14.38
081111 073342 23324 INFO dfs.DataNode$PacketResponder: Received block blk_3770230745413588148 of size 67108864 from /10.251.71.146
081111 073342 23324 INFO dfs.DataNode$PacketResponder: Received block blk_7817238471381199700 of size 67108864 from /10.251.194.245
081111 073342 23326 INFO dfs.DataNode$DataXceiver: Receiving block blk_5993709233829451382 src: /10.251.110.196:43060 dest: /10.251.110.196:50010
081111 073342 23335 INFO dfs.DataNode$DataXceiver: Receiving block blk_-265350770204749 src: /10.250.14.38:55212 dest: /10.250.14.38:50010
081111 073342 23339 INFO dfs.DataNode$DataXceiver: Receiving block blk_8005333602567443971 src: /10.251.39.192:38065 dest: /10.251.39.192:50010
081111 073342 23367 INFO dfs.DataNode$PacketResponder: PacketResponder 1 for block blk_9079784135676131604 terminating
081111 073342 23367 INFO dfs.DataNode$PacketResponder: Received block blk_9079784135676131604 of size 67108864 from /10.251.39.192
081111 073342 23374 INFO dfs.DataNode$PacketResponder: PacketResponder 0 for block blk_7817238471381199700 terminating
081111 073342 23374 INFO dfs.DataNode$PacketResponder: Received block blk_7817238471381199700 of size 67108864 from /10.250.13.188
081111 073342 23375 INFO dfs.DataNode$PacketResponder: PacketResponder 0 for block blk_1014801892501316412 terminating
081111 073342 23375 INFO dfs.DataNode$PacketResponder: Received block blk_1014801892501316412 of size 67108864 from /10.251.39.242
081111 073342 23382 INFO dfs.DataNode$DataXceiver: Receiving block blk_-265350770204749 src: /10.251.43.210:56758 dest: /10.251.43.210:50010
081111 073342 23391 INFO dfs.DataNode$PacketResponder: PacketResponder 2 for block blk_-2094682334695158220 terminating
081111 073342 23391 INFO dfs.DataNode$PacketResponder: Received block blk_-2094682334695158220 of size 67108864 from /10.251.127.191
081111 073342 23398 INFO dfs.DataNode$PacketResponder: PacketResponder 1 for block blk_-307065810575993729 terminating
081111 073342 23398 INFO dfs.DataNode$PacketResponder: Received block blk_-307065810575993729 of size 67108864 from /10.251.202.209
081111 073342 23400 INFO dfs.DataNode$DataXceiver: Receiving block blk_4720859995096477580 src: /10.251.39.64:37566 dest: /10.251.39.64:50010
081111 073342 23402 INFO dfs.DataNode$DataXceiver: Receiving block blk_-773151868318070077 src: /10.251.43.210:50367 dest: /10.251.43.210:50010
081111 073342 23405 INFO dfs.DataNode$DataXceiver: Receiving block blk_-5806079293678796227 src: /10.251.127.191:55167 dest: /10.251.127.191:50010
081111 073342 23406 INFO dfs.DataNode$PacketResponder: PacketResponder 1 for block blk_3770230745413588148 terminating
081111 073342 23406 INFO dfs.DataNode$PacketResponder: Received block blk_3770230745413588148 of size 67108864 from /10.251.71.146
081111 073342 23408 INFO dfs.DataNode$DataXceiver: Receiving block blk_-8934188182729729486 src: /10.251.111.228:35896 dest: /10.251.111.228:50010
081111 073342 23413 INFO dfs.DataNode$PacketResponder: PacketResponder 1 for block blk_-3726753798038967271 terminating
081111 073342 23413 INFO dfs.DataNode$PacketResponder: Received block blk_-3726753798038967271 of size 67108864 from /10.250.14.38
081111 073342 23415 INFO dfs.DataNode$PacketResponder: PacketResponder 2 for block blk_4771089604335004718 terminating
081111 073342 23415 INFO dfs.DataNode$PacketResponder: Received block blk_4771089604335004718 of size 67108864 from /10.251.66.102
081111 073342 23417 INFO dfs.DataNode$PacketResponder: PacketResponder 1 for block blk_-4735531180061762580 terminating
081111 073342 23417 INFO dfs.DataNode$PacketResponder: Received block blk_-4735531180061762580 of size 67108864 from /10.250.11.53
081111 073342 23428 INFO dfs.DataNode$DataXceiver: Receiving block blk_-773151868318070077 src: /10.251.91.84:47774 dest: /10.251.91.84:50010
081111 073342 23430 INFO dfs.DataNode$DataXceiver: Receiving block blk_-265350770204749 src: /10.250.14.38:59660 dest: /10.250.14.38:50010
081111 073342 23432 INFO dfs.DataNode$PacketResponder: PacketResponder 0 for block blk_3770230745413588148 terminating
081111 073342 23432 INFO dfs.DataNode$PacketResponder: Received block blk_3770230745413588148 of size 67108864 from /10.251.43.147
081111 073342 23434 INFO dfs.DataNode$DataXceiver: Receiving block blk_-8059093137859803042 src: /10.251.66.102:50716 dest: /10.251.66.102:50010
081111 073342 23444 INFO dfs.DataNode$PacketResponder: PacketResponder 1 for block blk_-3058999126228682722 terminating
081111 073342 23444 INFO dfs.DataNode$PacketResponder: Received block blk_-3058999126228682722 of size 67108864 from /10.251.111.228
081111 073342 23446 INFO dfs.DataNode$PacketResponder: PacketResponder 0 for block blk_-5866942658113677850 terminating
081111 073342 23446 INFO dfs.DataNode$PacketResponder: Received block blk_-5866942658113677850 of size 67108864 from /10.250.9.207
081111 073342 23448 INFO dfs.DataNode$PacketResponder: PacketResponder 2 for block blk_2340473159809560230 terminating
081111 073342 23448 INFO dfs.DataNode$PacketResponder: Received block blk_2340473159809560230 of size 67108864 from /10.251.70.37
081111 073342 23450 INFO dfs.DataNode$PacketResponder: PacketResponder 0 for block blk_-375027493961395976 terminating
081111 073342 23450 INFO dfs.DataNode$PacketResponder: Received block blk_-375027493961395976 of size 67108864 from /10.250.15.101
081111 073342 23452 INFO dfs.DataNode$PacketResponder: PacketResponder 0 for block blk_2340473159809560230 terminating
081111 073342 23452 INFO dfs.DataNode$PacketResponder: Received block blk_2340473159809560230 of size 67108864 from /10.251.198.196
081111 073342 23459 INFO dfs.DataNode$DataXceiver: Receiving block blk_3942297677224731090 src: /10.251.70.37:43005 dest: /10.251.70.37:50010
081111 073342 23469 INFO dfs.DataNode$PacketResponder: PacketResponder 2 for block blk_-375027493961395976 terminating
081111 073342 23469 INFO dfs.DataNode$PacketResponder: Received block blk_-375027493961395976 of size 67108864 from /10.251.39.179
081111 073342 23472 INFO dfs.DataNode$PacketResponder: PacketResponder 0 for block blk_8237979389988980392 terminating
081111 073342 23472 INFO dfs.DataNode$PacketResponder: Received block blk_8237979389988980392 of size 67108864 from /10.251.197.226
081111 073342 23475 INFO dfs.DataNode$PacketResponder: PacketResponder 2 for block blk_8237979389988980392 terminating
081111 073342 23475 INFO dfs.DataNode$PacketResponder: Received block blk_8237979389988980392 of size 67108864 from /10.251.91.84
081111 073342 23476 INFO dfs.DataNode$PacketResponder: PacketResponder 2 for block blk_7817238471381199700 terminating
081111 073342 23476 INFO dfs.DataNode$PacketResponder: Received block blk_7817238471381199700 of size 67108864 from /10.251.194.245
081111 073342 23485 INFO dfs.DataNode$DataXceiver: Receiving block blk_-2433912693055446444 src: /10.251.194.245:58311 dest: /10.251.194.245:50010
081111 073342 23486 INFO dfs.DataNode$DataXceiver: Receiving block blk_-773151868318070077 src: /10.251.91.84:53860 dest: /10.251.91.84:50010
081111 073342 23488 INFO dfs.DataNode$DataXceiver: Receiving block blk_-473094930526873393 src: /10.251.39.179:43490 dest: /10.251.39.179:50010
081111 073342 23491 INFO dfs.DataNode$PacketResponder: PacketResponder 1 for block blk_1014801892501316412 terminating
081111 073342 23491 INFO dfs.DataNode$PacketResponder: Received block blk_1014801892501316412 of size 67108864 from /10.251.107.227
081111 073342 23504 INFO dfs.DataNode$PacketResponder: PacketResponder 0 for block blk_9079784135676131604 terminating
081111 073342 23504 INFO dfs.DataNode$PacketResponder: Received block blk_9079784135676131604 of size 67108864 from /10.251.31.160
081111 073342 23515 INFO dfs.DataNode$PacketResponder: Received block blk_-4878487336929774518 of size 67108864 from /10.251.110.196
081111 073342 23518 INFO dfs.DataNode$PacketResponder: PacketResponder 2 for block blk_-3058999126228682722 terminating
081111 073342 23518 INFO dfs.DataNode$PacketResponder: Received block blk_-3058999126228682722 of size 67108864 from /10.251.111.228
081111 073342 23523 INFO dfs.DataNode$DataXceiver: Receiving block blk_6826493528557620697 src: /10.251.194.213:36836 dest: /10.251.194.213:50010
081111 073342 23524 INFO dfs.DataNode$PacketResponder: PacketResponder 2 for block blk_-5670792559883130128 terminating
081111 073342 23524 INFO dfs.DataNode$PacketResponder: Received block blk_-5670792559883130128 of size 67108864 from /10.251.111.228
081111 073342 23537 INFO dfs.DataNode$DataXceiver: Receiving block blk_-8934188182729729486 src: /10.251.125.174:59608 dest: /10.251.125.174:50010
081111 073342 23539 INFO dfs.DataNode$DataXceiver: Receiving block blk_7139504027800218729 src: /10.251.111.228:40615 dest: /10.251.111.228:50010
081111 073342 23540 INFO dfs.DataNode$DataXceiver: Receiving block blk_5452440009958640421 src: /10.251.111.228:40617 dest: /10.251.111.228:50010
081111 073342 23547 INFO dfs.DataNode$PacketResponder: PacketResponder 0 for block blk_-4878487336929774518 terminating
081111 073342 23547 INFO dfs.DataNode$PacketResponder: Received block blk_-4878487336929774518 of size 67108864 from /10.250.11.194
081111 073342 23566 INFO dfs.DataNode$PacketResponder: PacketResponder 1 for block blk_8237979389988980392 terminating
081111 073342 23566 INFO dfs.DataNode$PacketResponder: Received block blk_8237979389988980392 of size 67108864 from /10.251.91.84
081111 073342 23584 INFO dfs.DataNode$DataXceiver: Receiving block blk_6278031386241923034 src: /10.251.25.237:60909 dest: /10.251.25.237:50010
081111 073342 23600 INFO dfs.DataNode$DataXceiver: Receiving block blk_5452440009958640421 src: /10.251.111.228:48344 dest: /10.251.111.228:50010
081111 073342 23710 INFO dfs.DataNode$PacketResponder: PacketResponder 1 for block blk_4771089604335004718 terminating
081111 073342 23710 INFO dfs.DataNode$PacketResponder: Received block blk_4771089604335004718 of size 67108864 from /10.251.66.102
081111 073342 23718 INFO dfs.DataNode$PacketResponder: PacketResponder 0 for block blk_7163623571127905930 terminating
081111 073342 23718 INFO dfs.DataNode$PacketResponder: Received block blk_7163623571127905930 of size 67108864 from /10.251.31.242
081111 073342 23834 INFO dfs.DataNode$PacketResponder: PacketResponder 1 for block blk_-4878487336929774518 terminating
081111 073342 23834 INFO dfs.DataNode$PacketResponder: Received block blk_-4878487336929774518 of size 67108864 from /10.251.110.196
081111 073342 23837 INFO dfs.DataNode$PacketResponder: PacketResponder 1 for block blk_-5670792559883130128 terminating
081111 073342 23837 INFO dfs.DataNode$PacketResponder: Received block blk_-5670792559883130128 of size 67108864 from /10.251.111.228
081111 073342 26 INFO dfs.FSNamesystem: BLOCK* NameSystem.addStoredBlock: blockMap updated: 10.250.11.194:50010 is added to blk_-5670792559883130128 size 67108864
081111 073342 26 INFO dfs.FSNamesystem: BLOCK* NameSystem.addStoredBlock: blockMap updated: 10.250.13.188:50010 is added to blk_7817238471381199700 size 67108864
081111 073342 26 INFO dfs.FSNamesystem: BLOCK* NameSystem.addStoredBlock: blockMap updated: 10.250.15.101:50010 is added to blk_-375027493961395976 size 67108864
081111 073342 26 INFO dfs.FSNamesystem: BLOCK* NameSystem.addStoredBlock: blockMap updated: 10.251.43.147:50010 is added to blk_3770230745413588148 size 67108864
081111 073342 26 INFO dfs.FSNamesystem: BLOCK* NameSystem.addStoredBlock: blockMap updated: 10.251.90.134:50010 is added to blk_9043608893498251899 size 67108864
081111 073342 27 INFO dfs.FSNamesystem: BLOCK* NameSystem.allocateBlock: /user/root/rand6/_temporary/_task_200811101024_0013_m_001166_0/part-01166. blk_-473094930526873393
081111 073342 27 INFO dfs.FSNamesystem: BLOCK* NameSystem.allocateBlock: /user/root/rand6/_temporary/_task_200811101024_0013_m_001192_0/part-01192. blk_-265350770204749
081111 073342 28 INFO dfs.FSNamesystem: BLOCK* NameSystem.addStoredBlock: blockMap updated: 10.251.199.150:50010 is added to blk_-5670792559883130128 size 67108864
081111 073342 28 INFO dfs.FSNamesystem: BLOCK* NameSystem.addStoredBlock: blockMap updated: 10.251.67.4:50010 is added to blk_1014801892501316412 size 67108864
081111 073342 28 INFO dfs.FSNamesystem: BLOCK* NameSystem.addStoredBlock: blockMap updated: 10.251.71.146:50010 is added to blk_3770230745413588148 size 67108864
081111 073342 29 INFO dfs.FSNamesystem: BLOCK* NameSystem.addStoredBlock: blockMap updated: 10.251.198.196:50010 is added to blk_2340473159809560230 size 67108864
081111 073342 29 INFO dfs.FSNamesystem: BLOCK* NameSystem.addStoredBlock: blockMap updated: 10.251.214.18:50010 is added to blk_-3058999126228682722 size 67108864
081111 073342 29 INFO dfs.FSNamesystem: BLOCK* NameSystem.addStoredBlock: blockMap updated: 10.251.214.18:50010 is added to blk_-375027493961395976 size 67108864
081111 073342 29 INFO dfs.FSNamesystem: BLOCK* NameSystem.addStoredBlock: blockMap updated: 10.251.25.237:50010 is added to blk_-5866942658113677850 size 67108864
081111 073342 29 INFO dfs.FSNamesystem: BLOCK* NameSystem.addStoredBlock: blockMap updated: 10.251.66.102:50010 is added to blk_4771089604335004718 size 67108864
081111 073342 29 INFO dfs.FSNamesystem: BLOCK* NameSystem.addStoredBlock: blockMap updated: 10.251.91.84:50010 is added to blk_8237979389988980392 size 67108864
081111 073342 30 INFO dfs.FSNamesystem: BLOCK* NameSystem.addStoredBlock: blockMap updated: 10.251.127.191:50010 is added to blk_-2094682334695158220 size 67108864
081111 073342 30 INFO dfs.FSNamesystem: BLOCK* NameSystem.addStoredBlock: blockMap updated: 10.251.214.18:50010 is added to blk_2340473159809560230 size 67108864
081111 073342 30 INFO dfs.FSNamesystem: BLOCK* NameSystem.addStoredBlock: blockMap updated: 10.251.214.18:50010 is added to blk_-5866942658113677850 size 67108864
081111 073342 30 INFO dfs.FSNamesystem: BLOCK* NameSystem.addStoredBlock: blockMap updated: 10.251.42.246:50010 is added to blk_7817238471381199700 size 67108864
081111 073342 30 INFO dfs.FSNamesystem: BLOCK* NameSystem.addStoredBlock: blockMap updated: 10.251.43.115:50010 is added to blk_3770230745413588148 size 67108864
081111 073342 30 INFO dfs.FSNamesystem: BLOCK* NameSystem.addStoredBlock: blockMap updated: 10.251.73.188:50010 is added to blk_-9015650209691468475 size 67108864
081111 073342 30 INFO dfs.FSNamesystem: BLOCK* NameSystem.allocateBlock: /user/root/rand6/_temporary/_task_200811101024_0013_m_001252_0/part-01252. blk_-8059093137859803042
081111 073342 31 INFO dfs.FSNamesystem: BLOCK* NameSystem.addStoredBlock: blockMap updated: 10.250.11.194:50010 is added to blk_-4878487336929774518 size 67108864
081111 073342 31 INFO dfs.FSNamesystem: BLOCK* NameSystem.addStoredBlock: blockMap updated: 10.250.14.38:50010 is added to blk_-3726753798038967271 size 67108864
081111 073342 31 INFO dfs.FSNamesystem: BLOCK* NameSystem.addStoredBlock: blockMap updated: 10.251.111.228:50010 is added to blk_-3058999126228682722 size 67108864
081111 073342 31 INFO dfs.FSNamesystem: BLOCK* NameSystem.addStoredBlock: blockMap updated: 10.251.111.228:50010 is added to blk_-5670792559883130128 size 67108864
081111 073342 31 INFO dfs.FSNamesystem: BLOCK* NameSystem.addStoredBlock: blockMap updated: 10.251.197.226:50010 is added to blk_8237979389988980392 size 67108864
081111 073342 31 INFO dfs.FSNamesystem: BLOCK* NameSystem.addStoredBlock: blockMap updated: 10.251.39.192:50010 is added to blk_9079784135676131604 size 67108864
081111 073342 31 INFO dfs.FSNamesystem: BLOCK* NameSystem.allocateBlock: /user/root/rand6/_temporary/_task_200811101024_0013_m_001288_0/part-01288. blk_4720859995096477580
081111 073342 32 INFO dfs.FSNamesystem: BLOCK* NameSystem.addStoredBlock: blockMap updated: 10.251.203.129:50010 is added to blk_-307065810575993729 size 67108864
081111 073342 32 INFO dfs.FSNamesystem: BLOCK* NameSystem.addStoredBlock: blockMap updated: 10.251.214.32:50010 is added to blk_-4735531180061762580 size 67108864
081111 073342 32 INFO dfs.FSNamesystem: BLOCK* NameSystem.addStoredBlock: blockMap updated: 10.251.70.37:50010 is added to blk_2340473159809560230 size 67108864
081111 073342 33 INFO dfs.FSNamesystem: BLOCK* NameSystem.addStoredBlock: blockMap updated: 10.250.9.207:50010 is added to blk_-5866942658113677850 size 67108864
081111 073342 33 INFO dfs.FSNamesystem: BLOCK* NameSystem.addStoredBlock: blockMap updated: 10.251.110.196:50010 is added to blk_-4878487336929774518 size 67108864
081111 073342 33 INFO dfs.FSNamesystem: BLOCK* NameSystem.addStoredBlock: blockMap updated: 10.251.199.150:50010 is added to blk_-9015650209691468475 size 67108864
081111 073342 33 INFO dfs.FSNamesystem: BLOCK* NameSystem.addStoredBlock: blockMap updated: 10.251.215.50:50010 is added to blk_9079784135676131604 size 67108864
081111 073342 33 INFO dfs.FSNamesystem: BLOCK* NameSystem.addStoredBlock: blockMap updated: 10.251.39.242:50010 is added to blk_1014801892501316412 size 67108864
081111 073342 33 INFO dfs.FSNamesystem: BLOCK* NameSystem.addStoredBlock: blockMap updated: 10.251.66.102:50010 is added to blk_-4735531180061762580 size 67108864
081111 073342 33 INFO dfs.FSNamesystem: BLOCK* NameSystem.allocateBlock: /user/root/rand6/_temporary/_task_200811101024_0013_m_001267_0/part-01267. blk_7139504027800218729
081111 073342 33 INFO dfs.FSNamesystem: BLOCK* NameSystem.allocateBlock: /user/root/rand6/_temporary/_task_200811101024_0013_m_001270_0/part-01270. blk_8005333602567443971
081111 073342 33 INFO dfs.FSNamesystem: BLOCK* NameSystem.allocateBlock: /user/root/rand6/_temporary/_task_200811101024_0013_m_001347_0/part-01347. blk_-2433912693055446444
081111 073342 34 INFO dfs.FSNamesystem: BLOCK* NameSystem.addStoredBlock: blockMap updated: 10.250.7.230:50010 is added to blk_8237979389988980392 size 67108864
081111 073342 34 INFO dfs.FSNamesystem: BLOCK* NameSystem.addStoredBlock: blockMap updated: 10.251.107.227:50010 is added to blk_1014801892501316412 size 67108864
081111 073342 34 INFO dfs.FSNamesystem: BLOCK* NameSystem.addStoredBlock: blockMap updated: 10.251.193.175:50010 is added to blk_-4878487336929774518 size 67108864
081111 073342 34 INFO dfs.FSNamesystem: BLOCK* NameSystem.addStoredBlock: blockMap updated: 10.251.215.70:50010 is added to blk_-3726753798038967271 size 67108864
081111 073342 34 INFO dfs.FSNamesystem: BLOCK* NameSystem.addStoredBlock: blockMap updated: 10.251.39.179:50010 is added to blk_-375027493961395976 size 67108864
081111 073342 34 INFO dfs.FSNamesystem: BLOCK* NameSystem.addStoredBlock: blockMap updated: 10.251.70.112:50010 is added to blk_-307065810575993729 size 67108864
081111 073342 34 INFO dfs.FSNamesystem: BLOCK* NameSystem.addStoredBlock: blockMap updated: 10.251.74.227:50010 is added to blk_-3726753798038967271 size 67108864
081111 073342 34 INFO dfs.FSNamesystem: BLOCK* NameSystem.allocateBlock: /user/root/rand6/_temporary/_task_200811101024_0013_m_001265_0/part-01265. blk_6278031386241923034
081111 073342 34 INFO dfs.FSNamesystem: BLOCK* NameSystem.allocateBlock: /user/root/rand6/_temporary/_task_200811101024_0013_m_001552_0/part-01552. blk_3942297677224731090
081111 073342 34 INFO dfs.FSNamesystem: BLOCK* NameSystem.allocateBlock: /user/root/rand6/_temporary/_task_200811101024_0013_m_001554_0/part-01554. blk_-5806079293678796227
081111 073342 35 INFO dfs.FSNamesystem: BLOCK* NameSystem.addStoredBlock: blockMap updated: 10.251.194.245:50010 is added to blk_7817238471381199700 size 67108864
081111 073342 35 INFO dfs.FSNamesystem: BLOCK* NameSystem.addStoredBlock: blockMap updated: 10.251.27.63:50010 is added to blk_4771089604335004718 size 67108864
081111 073342 35 INFO dfs.FSNamesystem: BLOCK* NameSystem.addStoredBlock: blockMap updated: 10.251.27.63:50010 is added to blk_7163623571127905930 size 67108864
081111 073342 35 INFO dfs.FSNamesystem: BLOCK* NameSystem.addStoredBlock: blockMap updated: 10.251.31.160:50010 is added to blk_9079784135676131604 size 67108864
081111 073342 35 INFO dfs.FSNamesystem: BLOCK* NameSystem.addStoredBlock: blockMap updated: 10.251.35.1:50010 is added to blk_-9015650209691468475 size 67108864
081111 073342 35 INFO dfs.FSNamesystem: BLOCK* NameSystem.allocateBlock: /user/root/rand6/_temporary/_task_200811101024_0013_m_001246_0/part-01246. blk_5452440009958640421
081111 073342 35 INFO dfs.FSNamesystem: BLOCK* NameSystem.allocateBlock: /user/root/rand6/_temporary/_task_200811101024_0013_m_001326_0/part-01326. blk_-773151868318070077
081111 073343 17843 INFO dfs.DataNode$PacketResponder: PacketResponder 1 for block blk_-3559876508723029345 terminating
081111 073343 17843 INFO dfs.DataNode$PacketResponder: Received block blk_-3559876508723029345 of size 67108864 from /10.251.43.192
081111 073343 22837 INFO dfs.DataNode$PacketResponder: PacketResponder 1 for block blk_9043608893498251899 terminating
081111 073343 22837 INFO dfs.DataNode$PacketResponder: Received block blk_9043608893498251899 of size 67108864 from /10.251.67.113
081111 073343 22881 INFO dfs.DataNode$PacketResponder: PacketResponder 1 for block blk_6818619966925376239 terminating
081111 073343 22881 INFO dfs.DataNode$PacketResponder: Received block blk_6818619966925376239 of size 67108864 from /10.251.75.143
081111 073343 22905 INFO dfs.DataNode$DataXceiver: Receiving block blk_5993709233829451382 src: /10.251.38.214:39785 dest: /10.251.38.214:50010
081111 073343 22987 INFO dfs.DataNode$PacketResponder: PacketResponder 0 for block blk_8024821395567742257 terminating
081111 073343 23096 INFO dfs.DataNode$DataXceiver: Receiving block blk_-8168959140394498140 src: /10.251.107.227:43331 dest: /10.251.107.227:50010
081111 073343 23156 INFO dfs.DataNode$PacketResponder: PacketResponder 1 for block blk_8024821395567742257 terminating
081111 073343 23156 INFO dfs.DataNode$PacketResponder: Received block blk_8024821395567742257 of size 67108864 from /10.251.42.191
081111 073343 23157 INFO dfs.DataNode$PacketResponder: PacketResponder 2 for block blk_1820894515946848826 terminating
081111 073343 23157 INFO dfs.DataNode$PacketResponder: Received block blk_1820894515946848826 of size 67108864 from /10.251.90.64
081111 073343 23165 INFO dfs.DataNode$PacketResponder: PacketResponder 2 for block blk_9043608893498251899 terminating
081111 073343 23165 INFO dfs.DataNode$PacketResponder: Received block blk_9043608893498251899 of size 67108864 from /10.251.67.113
081111 073343 23177 INFO dfs.DataNode$PacketResponder: PacketResponder 0 for block blk_-3559876508723029345 terminating
081111 073343 23177 INFO dfs.DataNode$PacketResponder: Received block blk_-3559876508723029345 of size 67108864 from /10.251.123.33
081111 073343 23180 INFO dfs.DataNode$DataXceiver: Receiving block blk_5622461068352482319 src: /10.251.67.113:58682 dest: /10.251.67.113:50010
081111 073343 23205 INFO dfs.DataNode$DataXceiver: Receiving block blk_-8059093137859803042 src: /10.250.15.67:39782 dest: /10.250.15.67:50010
081111 073343 23227 INFO dfs.DataNode$PacketResponder: PacketResponder 2 for block blk_-6428961893861330383 terminating
081111 073343 23227 INFO dfs.DataNode$PacketResponder: Received block blk_-6428961893861330383 of size 67108864 from /10.250.6.214
081111 073343 23232 INFO dfs.DataNode$DataXceiver: Receiving block blk_7788303790280049662 src: /10.250.6.214:58773 dest: /10.250.6.214:50010
081111 073343 23240 INFO dfs.DataNode$PacketResponder: PacketResponder 2 for block blk_-7961054785760117992 terminating
081111 073343 23240 INFO dfs.DataNode$PacketResponder: Received block blk_-7961054785760117992 of size 67108864 from /10.251.111.80
081111 073343 23256 INFO dfs.DataNode$DataXceiver: Receiving block blk_-2769623277268587194 src: /10.251.111.80:52442 dest: /10.251.111.80:50010
081111 073343 23258 INFO dfs.DataNode$PacketResponder: PacketResponder 1 for block blk_1820894515946848826 terminating
081111 073343 23258 INFO dfs.DataNode$PacketResponder: Received block blk_1820894515946848826 of size 67108864 from /10.251.90.64
081111 073343 23262 INFO dfs.DataNode$PacketResponder: PacketResponder 1 for block blk_-6428961893861330383 terminating
081111 073343 23262 INFO dfs.DataNode$PacketResponder: Received block blk_-6428961893861330383 of size 67108864 from /10.250.6.214
081111 073343 23265 INFO dfs.DataNode$PacketResponder: PacketResponder 2 for block blk_8024821395567742257 terminating
081111 073343 23265 INFO dfs.DataNode$PacketResponder: Received block blk_8024821395567742257 of size 67108864 from /10.251.42.191
081111 073343 23267 INFO dfs.DataNode$DataXceiver: Receiving block blk_-2433912693055446444 src: /10.251.42.16:53518 dest: /10.251.42.16:50010
081111 073343 23276 INFO dfs.DataNode$DataXceiver: Receiving block blk_-3845930587461164056 src: /10.251.42.191:52171 dest: /10.251.42.191:50010
081111 073343 23287 INFO dfs.DataNode$PacketResponder: PacketResponder 2 for block blk_7163623571127905930 terminating
081111 073343 23287 INFO dfs.DataNode$PacketResponder: Received block blk_7163623571127905930 of size 67108864 from /10.251.194.213
081111 073343 23294 INFO dfs.DataNode$DataXceiver: Receiving block blk_-875877404606817760 src: /10.251.43.192:50685 dest: /10.251.43.192:50010
081111 073343 23296 INFO dfs.DataNode$PacketResponder: PacketResponder 0 for block blk_7404971915425330637 terminating
081111 073343 23296 INFO dfs.DataNode$PacketResponder: Received block blk_7404971915425330637 of size 67108864 from /10.250.7.146
081111 073343 23298 INFO dfs.DataNode$DataXceiver: Receiving block blk_-7519930114642244735 src: /10.251.194.213:55078 dest: /10.251.194.213:50010
081111 073343 23300 INFO dfs.DataNode$PacketResponder: PacketResponder 0 for block blk_1820894515946848826 terminating
081111 073343 23300 INFO dfs.DataNode$PacketResponder: Received block blk_1820894515946848826 of size 67108864 from /10.251.31.180
081111 073343 23302 INFO dfs.DataNode$DataXceiver: Receiving block blk_5622461068352482319 src: /10.251.67.113:58868 dest: /10.251.67.113:50010
081111 073343 23309 INFO dfs.DataNode$PacketResponder: PacketResponder 0 for block blk_-7961054785760117992 terminating
081111 073343 23309 INFO dfs.DataNode$PacketResponder: Received block blk_-7961054785760117992 of size 67108864 from /10.251.107.196
081111 073343 23331 INFO dfs.DataNode$DataXceiver: Receiving block blk_3931804273946198490 src: /10.251.71.146:47781 dest: /10.251.71.146:50010
081111 073343 23357 INFO dfs.DataNode$PacketResponder: PacketResponder 1 for block blk_-7961054785760117992 terminating
081111 073343 23357 INFO dfs.DataNode$PacketResponder: Received block blk_-7961054785760117992 of size 67108864 from /10.251.111.80
081111 073343 23372 INFO dfs.DataNode$DataXceiver: Receiving block blk_-7519930114642244735 src: /10.251.67.225:53755 dest: /10.251.67.225:50010
081111 073343 23385 INFO dfs.DataNode$DataXceiver: Receiving block blk_-3845930587461164056 src: /10.251.42.191:38891 dest: /10.251.42.191:50010
081111 073343 23386 INFO dfs.DataNode$PacketResponder: PacketResponder 0 for block blk_6080505688939664821 terminating
081111 073343 23386 INFO dfs.DataNode$PacketResponder: Received block blk_6080505688939664821 of size 3540938 from /10.251.71.240
081111 073343 23388 INFO dfs.DataNode$DataXceiver: Receiving block blk_6278031386241923034 src: /10.251.75.79:34943 dest: /10.251.75.79:50010
081111 073343 23395 INFO dfs.DataNode$PacketResponder: PacketResponder 1 for block blk_-8760167514548859729 terminating
081111 073343 23395 INFO dfs.DataNode$PacketResponder: Received block blk_-8760167514548859729 of size 67108864 from /10.251.215.50
081111 073343 23442 INFO dfs.DataNode$PacketResponder: PacketResponder 0 for block blk_6818619966925376239 terminating
081111 073343 23442 INFO dfs.DataNode$PacketResponder: Received block blk_6818619966925376239 of size 67108864 from /10.251.203.80
081111 073343 23454 INFO dfs.DataNode$PacketResponder: PacketResponder 0 for block blk_-8760167514548859729 terminating
081111 073343 23454 INFO dfs.DataNode$PacketResponder: Received block blk_-8760167514548859729 of size 67108864 from /10.251.127.191
081111 073343 23466 INFO dfs.DataNode$DataXceiver: Receiving block blk_3931804273946198490 src: /10.251.71.146:38851 dest: /10.251.71.146:50010
081111 073343 23486 INFO dfs.DataNode$PacketResponder: PacketResponder 2 for block blk_8460451136861358800 terminating
081111 073343 23486 INFO dfs.DataNode$PacketResponder: Received block blk_8460451136861358800 of size 67108864 from /10.251.122.79
081111 073343 23494 INFO dfs.DataNode$PacketResponder: PacketResponder 1 for block blk_7163623571127905930 terminating
081111 073343 23494 INFO dfs.DataNode$PacketResponder: Received block blk_7163623571127905930 of size 67108864 from /10.251.194.213
081111 073343 23499 INFO dfs.DataNode$DataXceiver: Receiving block blk_6100081906353394799 src: /10.251.122.79:55154 dest: /10.251.122.79:50010
081111 073343 23515 INFO dfs.DataNode$PacketResponder: PacketResponder 2 for block blk_-4878487336929774518 terminating
081111 073343 23530 INFO dfs.DataNode$DataXceiver: Receiving block blk_5993709233829451382 src: /10.251.110.196:40845 dest: /10.251.110.196:50010
081111 073343 23566 INFO dfs.DataNode$PacketResponder: PacketResponder 1 for block blk_6080505688939664821 terminating
081111 073343 23566 INFO dfs.DataNode$PacketResponder: Received block blk_6080505688939664821 of size 3540938 from /10.251.109.209
081111 073343 23594 INFO dfs.DataNode$DataXceiver: Receiving block blk_-7519930114642244735 src: /10.251.194.213:36843 dest: /10.251.194.213:50010
081111 073343 23596 INFO dfs.DataNode$DataXceiver: Receiving block blk_4363946500084812978 src: /10.251.71.68:41514 dest: /10.251.71.68:50010
081111 073343 23606 INFO dfs.DataNode$PacketResponder: PacketResponder 0 for block blk_-8607746050380457148 terminating
081111 073343 23606 INFO dfs.DataNode$PacketResponder: Received block blk_-8607746050380457148 of size 67108864 from /10.251.29.239
081111 073343 23674 INFO dfs.DataNode$PacketResponder: PacketResponder 2 for block blk_-3559876508723029345 terminating
081111 073343 23674 INFO dfs.DataNode$PacketResponder: Received block blk_-3559876508723029345 of size 67108864 from /10.251.43.192
081111 073343 23685 INFO dfs.DataNode$DataXceiver: Receiving block blk_-875877404606817760 src: /10.251.43.192:34445 dest: /10.251.43.192:50010
081111 073343 26 INFO dfs.FSNamesystem: BLOCK* NameSystem.addStoredBlock: blockMap updated: 10.251.123.33:50010 is added to blk_-3559876508723029345 size 67108864
081111 073343 26 INFO dfs.FSNamesystem: BLOCK* NameSystem.addStoredBlock: blockMap updated: 10.251.67.113:50010 is added to blk_9043608893498251899 size 67108864
081111 073343 26 INFO dfs.FSNamesystem: BLOCK* NameSystem.allocateBlock: /user/root/rand6/_temporary/_task_200811101024_0013_m_001236_0/part-01236. blk_-3845930587461164056
081111 073343 26 INFO dfs.FSNamesystem: BLOCK* NameSystem.allocateBlock: /user/root/rand6/_temporary/_task_200811101024_0013_m_001397_0/part-01397. blk_3931804273946198490
081111 073343 26 INFO dfs.FSNamesystem: BLOCK* NameSystem.allocateBlock: /user/root/rand6/_temporary/_task_200811101024_0013_m_001420_0/part-01420. blk_-2769623277268587194
081111 073343 27 INFO dfs.FSNamesystem: BLOCK* NameSystem.addStoredBlock: blockMap updated: 10.250.6.223:50010 is added to blk_-8760167514548859729 size 67108864
081111 073343 27 INFO dfs.FSNamesystem: BLOCK* NameSystem.allocateBlock: /user/root/rand6/_temporary/_task_200811101024_0013_m_001198_0/part-01198. blk_5622461068352482319
081111 073343 28 INFO dfs.FSNamesystem: BLOCK* NameSystem.addStoredBlock: blockMap updated: 10.251.31.85:50010 is added to blk_6818619966925376239 size 67108864
081111 073343 28 INFO dfs.FSNamesystem: BLOCK* NameSystem.allocateBlock: /user/root/rand6/_temporary/_task_200811101024_0013_m_001177_0/part-01177. blk_-875877404606817760
081111 073343 28 INFO dfs.FSNamesystem: BLOCK* NameSystem.allocateBlock: /user/root/rand6/_temporary/_task_200811101024_0013_m_001209_0/part-01209. blk_7788303790280049662
081111 073343 29 INFO dfs.FSNamesystem: BLOCK* NameSystem.addStoredBlock: blockMap updated: 10.250.15.101:50010 is added to blk_-7961054785760117992 size 67108864
081111 073343 29 INFO dfs.FSNamesystem: BLOCK* NameSystem.addStoredBlock: blockMap updated: 10.251.107.19:50010 is added to blk_-8607746050380457148 size 67108864
081111 073343 29 INFO dfs.FSNamesystem: BLOCK* NameSystem.addStoredBlock: blockMap updated: 10.251.194.147:50010 is added to blk_1820894515946848826 size 67108864
081111 073343 29 INFO dfs.FSNamesystem: BLOCK* NameSystem.allocateBlock: /user/root/rand6/_temporary/_task_200811101024_0013_m_001232_0/part-01232. blk_6100081906353394799
081111 073343 30 INFO dfs.FSNamesystem: BLOCK* NameSystem.addStoredBlock: blockMap updated: 10.250.5.161:50010 is added to blk_7404971915425330637 size 67108864
081111 073343 30 INFO dfs.FSNamesystem: BLOCK* NameSystem.addStoredBlock: blockMap updated: 10.251.203.129:50010 is added to blk_9043608893498251899 size 67108864
081111 073343 30 INFO dfs.FSNamesystem: BLOCK* NameSystem.addStoredBlock: blockMap updated: 10.251.203.149:50010 is added to blk_8024821395567742257 size 67108864
081111 073343 30 INFO dfs.FSNamesystem: BLOCK* NameSystem.addStoredBlock: blockMap updated: 10.251.31.180:50010 is added to blk_1820894515946848826 size 67108864
081111 073343 30 INFO dfs.FSNamesystem: BLOCK* NameSystem.addStoredBlock: blockMap updated: 10.251.43.192:50010 is added to blk_-3559876508723029345 size 67108864
081111 073343 31 INFO dfs.FSNamesystem: BLOCK* NameSystem.addStoredBlock: blockMap updated: 10.251.127.191:50010 is added to blk_-8760167514548859729 size 67108864
081111 073343 31 INFO dfs.FSNamesystem: BLOCK* NameSystem.addStoredBlock: blockMap updated: 10.251.42.191:50010 is added to blk_8024821395567742257 size 67108864
081111 073343 32 INFO dfs.FSNamesystem: BLOCK* NameSystem.addStoredBlock: blockMap updated: 10.250.6.214:50010 is added to blk_-6428961893861330383 size 67108864
081111 073343 32 INFO dfs.FSNamesystem: BLOCK* NameSystem.addStoredBlock: blockMap updated: 10.251.107.196:50010 is added to blk_-7961054785760117992 size 67108864
081111 073343 32 INFO dfs.FSNamesystem: BLOCK* NameSystem.addStoredBlock: blockMap updated: 10.251.194.213:50010 is added to blk_7163623571127905930 size 67108864
081111 073343 32 INFO dfs.FSNamesystem: BLOCK* NameSystem.allocateBlock: /user/root/rand6/_temporary/_task_200811101024_0013_m_001339_0/part-01339. blk_7842492954955242141
081111 073343 33 INFO dfs.FSNamesystem: BLOCK* NameSystem.addStoredBlock: blockMap updated: 10.250.7.32:50010 is added to blk_6080505688939664821 size 3540938
081111 073343 33 INFO dfs.FSNamesystem: BLOCK* NameSystem.addStoredBlock: blockMap updated: 10.251.31.242:50010 is added to blk_7163623571127905930 size 67108864
081111 073343 33 INFO dfs.FSNamesystem: BLOCK* NameSystem.allocateBlock: /user/root/rand6/_temporary/_task_200811101024_0013_m_001522_0/part-01522. blk_5993709233829451382
081111 073343 33 INFO dfs.FSNamesystem: BLOCK* NameSystem.allocateBlock: /user/root/rand6/_temporary/_task_200811101024_0013_m_001556_0/part-01556. blk_-706699699546262545
081111 073343 34 INFO dfs.FSNamesystem: BLOCK* NameSystem.addStoredBlock: blockMap updated: 10.251.31.180:50010 is added to blk_-6428961893861330383 size 67108864
081111 073343 34 INFO dfs.FSNamesystem: BLOCK* NameSystem.addStoredBlock: blockMap updated: 10.251.90.134:50010 is added to blk_-3559876508723029345 size 67108864
081111 073343 34 INFO dfs.FSNamesystem: BLOCK* NameSystem.allocateBlock: /user/root/rand6/_temporary/_task_200811101024_0013_m_001540_0/part-01540. blk_-7519930114642244735
081111 073343 35 INFO dfs.FSNamesystem: BLOCK* NameSystem.addStoredBlock: blockMap updated: 10.251.111.80:50010 is added to blk_-7961054785760117992 size 67108864
081111 073343 35 INFO dfs.FSNamesystem: BLOCK* NameSystem.addStoredBlock: blockMap updated: 10.251.122.79:50010 is added to blk_8460451136861358800 size 67108864
081111 073343 35 INFO dfs.FSNamesystem: BLOCK* NameSystem.addStoredBlock: blockMap updated: 10.251.202.134:50010 is added to blk_8024821395567742257 size 67108864
081111 073343 35 INFO dfs.FSNamesystem: BLOCK* NameSystem.addStoredBlock: blockMap updated: 10.251.215.50:50010 is added to blk_-8760167514548859729 size 67108864
081111 073343 35 INFO dfs.FSNamesystem: BLOCK* NameSystem.allocateBlock: /user/root/rand6/_temporary/_task_200811101024_0013_m_001391_0/part-01391. blk_-8168959140394498140
081111 073344 13 INFO dfs.DataBlockScanner: Verification succeeded for blk_1844954684970018498
081111 073344 22898 INFO dfs.DataNode$DataXceiver: Receiving block blk_8982152179652636732 src: /10.251.123.195:57597 dest: /10.251.123.195:50010
081111 073344 23016 INFO dfs.DataNode$PacketResponder: PacketResponder 1 for block blk_-6473249744576736208 terminating
081111 073344 23016 INFO dfs.DataNode$PacketResponder: Received block blk_-6473249744576736208 of size 67108864 from /10.251.111.80
081111 073344 23087 INFO dfs.DataNode$PacketResponder: PacketResponder 2 for block blk_-8607746050380457148 terminating
081111 073344 23087 INFO dfs.DataNode$PacketResponder: Received block blk_-8607746050380457148 of size 67108864 from /10.251.107.227
081111 073344 23097 INFO dfs.DataNode$DataXceiver: Receiving block blk_2079503837302308520 src: /10.251.107.227:43333 dest: /10.251.107.227:50010
081111 073344 23112 INFO dfs.DataNode$PacketResponder: PacketResponder 2 for block blk_-307065810575993729 terminating
081111 073344 23112 INFO dfs.DataNode$PacketResponder: Received block blk_-307065810575993729 of size 67108864 from /10.251.202.209
081111 073344 23118 INFO dfs.DataNode$PacketResponder: Received block blk_5877096081244369351 of size 67108864 from /10.251.214.32
081111 073344 23121 INFO dfs.DataNode$DataXceiver: Receiving block blk_5182916776433948505 src: /10.251.202.209:52943 dest: /10.251.202.209:50010
081111 073344 23168 INFO dfs.DataNode$DataXceiver: Receiving block blk_7842492954955242141 src: /10.251.90.64:47403 dest: /10.251.90.64:50010
081111 073344 23171 INFO dfs.DataNode$PacketResponder: PacketResponder 1 for block blk_7404971915425330637 terminating
081111 073344 23171 INFO dfs.DataNode$PacketResponder: Received block blk_7404971915425330637 of size 67108864 from /10.251.30.101
081111 073344 23181 INFO dfs.DataNode$DataXceiver: Receiving block blk_-3965886569486112014 src: /10.251.74.79:36353 dest: /10.251.74.79:50010
081111 073344 23184 INFO dfs.DataNode$PacketResponder: PacketResponder 1 for block blk_5877096081244369351 terminating
081111 073344 23184 INFO dfs.DataNode$PacketResponder: Received block blk_5877096081244369351 of size 67108864 from /10.251.214.32
081111 073344 23186 INFO dfs.DataNode$DataXceiver: Receiving block blk_441569801798888607 src: /10.251.42.246:52703 dest: /10.251.42.246:50010
081111 073344 23194 INFO dfs.DataNode$DataXceiver: Receiving block blk_-8168959140394498140 src: /10.251.107.227:45215 dest: /10.251.107.227:50010
081111 073344 23206 INFO dfs.DataNode$DataXceiver: Receiving block blk_-8168959140394498140 src: /10.250.7.146:49173 dest: /10.250.7.146:50010
081111 073344 23225 INFO dfs.DataNode$PacketResponder: PacketResponder 1 for block blk_-6882159705363809001 terminating
081111 073344 23225 INFO dfs.DataNode$PacketResponder: Received block blk_-6882159705363809001 of size 67108864 from /10.251.74.79
081111 073344 23239 INFO dfs.DataNode$DataXceiver: Receiving block blk_-8761986458129476143 src: /10.250.13.188:46811 dest: /10.250.13.188:50010
081111 073344 23244 INFO dfs.DataNode$PacketResponder: PacketResponder 2 for block blk_-6473249744576736208 terminating
081111 073344 23244 INFO dfs.DataNode$PacketResponder: Received block blk_-6473249744576736208 of size 67108864 from /10.251.111.80
081111 073344 23257 INFO dfs.DataNode$DataXceiver: Receiving block blk_-8761986458129476143 src: /10.251.111.80:52444 dest: /10.251.111.80:50010
081111 073344 23266 INFO dfs.DataNode$PacketResponder: PacketResponder 0 for block blk_-1808992505794891339 terminating
081111 073344 23266 INFO dfs.DataNode$PacketResponder: PacketResponder 2 for block blk_-6882159705363809001 terminating
081111 073344 23266 INFO dfs.DataNode$PacketResponder: Received block blk_-1808992505794891339 of size 67108864 from /10.250.7.244
081111 073344 23266 INFO dfs.DataNode$PacketResponder: Received block blk_-6882159705363809001 of size 67108864 from /10.251.74.79
081111 073344 23270 INFO dfs.DataNode$PacketResponder: PacketResponder 0 for block blk_-526280762793773153 terminating
081111 073344 23270 INFO dfs.DataNode$PacketResponder: Received block blk_-526280762793773153 of size 67108864 from /10.251.214.225
081111 073344 23271 INFO dfs.DataNode$DataXceiver: Receiving block blk_-2769623277268587194 src: /10.251.111.80:49188 dest: /10.251.111.80:50010
081111 073344 23273 INFO dfs.DataNode$PacketResponder: PacketResponder 2 for block blk_7217108460443977407 terminating
081111 073344 23273 INFO dfs.DataNode$PacketResponder: Received block blk_7217108460443977407 of size 67108864 from /10.251.42.207
081111 073344 23275 INFO dfs.DataNode$DataXceiver: Receiving block blk_-389276667730755034 src: /10.251.42.207:48440 dest: /10.251.42.207:50010
081111 073344 23277 INFO dfs.DataNode$DataXceiver: Receiving block blk_-3965886569486112014 src: /10.251.74.79:47740 dest: /10.251.74.79:50010
081111 073344 23279 INFO dfs.DataNode$DataXceiver: Receiving block blk_-706699699546262545 src: /10.251.215.50:54107 dest: /10.251.215.50:50010
081111 073344 23280 INFO dfs.DataNode$PacketResponder: PacketResponder 0 for block blk_-957174655489399714 terminating
081111 073344 23280 INFO dfs.DataNode$PacketResponder: PacketResponder 1 for block blk_-957174655489399714 terminating
081111 073344 23280 INFO dfs.DataNode$PacketResponder: Received block blk_-957174655489399714 of size 67108864 from /10.251.106.50
081111 073344 23280 INFO dfs.DataNode$PacketResponder: Received block blk_-957174655489399714 of size 67108864 from /10.251.89.155
081111 073344 23286 INFO dfs.DataNode$PacketResponder: PacketResponder 1 for block blk_331093311915256171 terminating
081111 073344 23286 INFO dfs.DataNode$PacketResponder: Received block blk_331093311915256171 of size 67108864 from /10.251.91.229
081111 073344 23287 INFO dfs.DataNode$DataXceiver: Receiving block blk_-389276667730755034 src: /10.251.42.207:34712 dest: /10.251.42.207:50010
081111 073344 23290 INFO dfs.DataNode$PacketResponder: PacketResponder 2 for block blk_-5134694599948676121 terminating
081111 073344 23290 INFO dfs.DataNode$PacketResponder: Received block blk_-5134694599948676121 of size 67108864 from /10.250.14.196
081111 073344 23295 INFO dfs.DataNode$PacketResponder: PacketResponder 0 for block blk_-5134694599948676121 terminating
081111 073344 23295 INFO dfs.DataNode$PacketResponder: Received block blk_-5134694599948676121 of size 67108864 from /10.251.195.70
081111 073344 23298 INFO dfs.DataNode$DataXceiver: Receiving block blk_5622461068352482319 src: /10.250.14.196:42290 dest: /10.250.14.196:50010
081111 073344 23299 INFO dfs.DataNode$DataXceiver: Receiving block blk_681843931050502734 src: /10.250.14.196:42292 dest: /10.250.14.196:50010
081111 073344 23300 INFO dfs.DataNode$DataXceiver: Receiving block blk_8735823784662388403 src: /10.251.42.207:42361 dest: /10.251.42.207:50010
081111 073344 23300 INFO dfs.DataNode$PacketResponder: PacketResponder 1 for block blk_-8607746050380457148 terminating
081111 073344 23300 INFO dfs.DataNode$PacketResponder: Received block blk_-8607746050380457148 of size 67108864 from /10.251.107.227
081111 073344 23303 INFO dfs.DataNode$DataXceiver: Receiving block blk_681843931050502734 src: /10.250.14.196:49382 dest: /10.250.14.196:50010
081111 073344 23335 INFO dfs.DataNode$DataXceiver: Receiving block blk_-8761986458129476143 src: /10.251.111.80:54908 dest: /10.251.111.80:50010
081111 073344 23360 INFO dfs.DataNode$PacketResponder: PacketResponder 0 for block blk_-6473249744576736208 terminating
081111 073344 23360 INFO dfs.DataNode$PacketResponder: PacketResponder 2 for block blk_6080505688939664821 terminating
081111 073344 23360 INFO dfs.DataNode$PacketResponder: Received block blk_6080505688939664821 of size 3540938 from /10.251.109.209
081111 073344 23360 INFO dfs.DataNode$PacketResponder: Received block blk_-6473249744576736208 of size 67108864 from /10.251.201.204
081111 073344 23363 INFO dfs.DataNode$PacketResponder: PacketResponder 2 for block blk_6818619966925376239 terminating
081111 073344 23363 INFO dfs.DataNode$PacketResponder: Received block blk_6818619966925376239 of size 67108864 from /10.251.75.143
081111 073344 23365 INFO dfs.DataNode$PacketResponder: PacketResponder 0 for block blk_3447954076409472470 terminating
081111 073344 23365 INFO dfs.DataNode$PacketResponder: Received block blk_3447954076409472470 of size 67108864 from /10.251.71.193
081111 073344 23370 INFO dfs.DataNode$DataXceiver: Receiving block blk_3942297677224731090 src: /10.251.70.37:36130 dest: /10.251.70.37:50010
081111 073344 23380 INFO dfs.DataNode$DataXceiver: Receiving block blk_441569801798888607 src: /10.251.75.143:47372 dest: /10.251.75.143:50010
081111 073344 23388 INFO dfs.DataNode$DataXceiver: Receiving block blk_441569801798888607 src: /10.251.75.143:37164 dest: /10.251.75.143:50010
081111 073344 23391 INFO dfs.DataNode$DataXceiver: Receiving block blk_7842492954955242141 src: /10.251.90.64:55901 dest: /10.251.90.64:50010
081111 073344 23394 INFO dfs.DataNode$DataXceiver: Receiving block blk_3931804273946198490 src: /10.251.91.15:45867 dest: /10.251.91.15:50010
081111 073344 23397 INFO dfs.DataNode$PacketResponder: PacketResponder 0 for block blk_3179040291841759600 terminating
081111 073344 23397 INFO dfs.DataNode$PacketResponder: Received block blk_3179040291841759600 of size 67108864 from /10.251.199.159
081111 073344 23398 INFO dfs.DataNode$DataXceiver: Receiving block blk_-3845930587461164056 src: /10.251.110.8:44000 dest: /10.251.110.8:50010
081111 073344 23399 INFO dfs.DataNode$DataXceiver: Receiving block blk_-3965886569486112014 src: /10.251.106.214:34446 dest: /10.251.106.214:50010
081111 073344 23411 INFO dfs.DataNode$DataXceiver: Receiving block blk_6100081906353394799 src: /10.251.122.79:33593 dest: /10.251.122.79:50010
081111 073344 23414 INFO dfs.DataNode$PacketResponder: PacketResponder 0 for block blk_331093311915256171 terminating
081111 073344 23414 INFO dfs.DataNode$PacketResponder: Received block blk_331093311915256171 of size 67108864 from /10.251.194.213
081111 073344 23424 INFO dfs.DataNode$DataXceiver: Receiving block blk_2079503837302308520 src: /10.251.107.227:41587 dest: /10.251.107.227:50010
081111 073344 23434 INFO dfs.DataNode$PacketResponder: PacketResponder 1 for block blk_-5134694599948676121 terminating
081111 073344 23434 INFO dfs.DataNode$PacketResponder: Received block blk_-5134694599948676121 of size 67108864 from /10.250.14.196
081111 073344 23444 INFO dfs.DataNode$PacketResponder: PacketResponder 0 for block blk_-6882159705363809001 terminating
081111 073344 23444 INFO dfs.DataNode$PacketResponder: Received block blk_-6882159705363809001 of size 67108864 from /10.250.6.214
081111 073344 23454 INFO dfs.DataNode$DataXceiver: Receiving block blk_2079503837302308520 src: /10.251.215.70:44847 dest: /10.251.215.70:50010
081111 073344 23460 INFO dfs.DataNode$DataXceiver: Receiving block blk_-2644722253973096762 src: /10.251.26.177:57355 dest: /10.251.26.177:50010
081111 073344 23464 INFO dfs.DataNode$DataXceiver: Receiving block blk_-389276667730755034 src: /10.251.70.5:38742 dest: /10.251.70.5:50010
081111 073344 23500 INFO dfs.DataNode$PacketResponder: PacketResponder 2 for block blk_-8760167514548859729 terminating
081111 073344 23500 INFO dfs.DataNode$PacketResponder: Received block blk_-8760167514548859729 of size 67108864 from /10.251.215.50
081111 073344 23506 INFO dfs.DataNode$PacketResponder: PacketResponder 2 for block blk_-957174655489399714 terminating
081111 073344 23506 INFO dfs.DataNode$PacketResponder: Received block blk_-957174655489399714 of size 67108864 from /10.251.89.155
081111 073344 23507 INFO dfs.DataNode$PacketResponder: PacketResponder 1 for block blk_3179040291841759600 terminating
081111 073344 23507 INFO dfs.DataNode$PacketResponder: Received block blk_3179040291841759600 of size 67108864 from /10.251.122.79
081111 073344 23511 INFO dfs.DataNode$DataXceiver: Receiving block blk_-706699699546262545 src: /10.251.215.50:35632 dest: /10.251.215.50:50010
081111 073344 23512 INFO dfs.DataNode$DataXceiver: Receiving block blk_3807754624267143486 src: /10.251.89.155:35842 dest: /10.251.89.155:50010
081111 073344 23525 INFO dfs.DataNode$DataXceiver: Receiving block blk_6100081906353394799 src: /10.251.71.16:40005 dest: /10.251.71.16:50010
081111 073344 23540 INFO dfs.DataNode$PacketResponder: PacketResponder 0 for block blk_5877096081244369351 terminating
081111 073344 23540 INFO dfs.DataNode$PacketResponder: Received block blk_5877096081244369351 of size 67108864 from /10.250.10.100
081111 073344 23578 INFO dfs.DataNode$DataXceiver: Receiving block blk_6068209439328703746 src: /10.251.126.22:43766 dest: /10.251.126.22:50010
081111 073344 23614 INFO dfs.DataNode$DataXceiver: Receiving block blk_1216515695102055575 src: /10.251.111.80:35094 dest: /10.251.111.80:50010
081111 073344 23617 INFO dfs.DataNode$PacketResponder: PacketResponder 2 for block blk_7404971915425330637 terminating
081111 073344 23617 INFO dfs.DataNode$PacketResponder: Received block blk_7404971915425330637 of size 67108864 from /10.251.30.101
081111 073344 23681 INFO dfs.DataNode$PacketResponder: PacketResponder 2 for block blk_-4735531180061762580 terminating
081111 073344 23681 INFO dfs.DataNode$PacketResponder: Received block blk_-4735531180061762580 of size 67108864 from /10.250.11.53
081111 073344 23694 INFO dfs.DataNode$DataXceiver: Receiving block blk_-5157609740503524954 src: /10.250.11.53:53504 dest: /10.250.11.53:50010
081111 073344 26 INFO dfs.FSNamesystem: BLOCK* NameSystem.addStoredBlock: blockMap updated: 10.251.195.70:50010 is added to blk_-5134694599948676121 size 67108864
081111 073344 26 INFO dfs.FSNamesystem: BLOCK* NameSystem.addStoredBlock: blockMap updated: 10.251.71.240:50010 is added to blk_6080505688939664821 size 3540938
081111 073344 26 INFO dfs.FSNamesystem: BLOCK* NameSystem.addStoredBlock: blockMap updated: 10.251.75.49:50010 is added to blk_-6882159705363809001 size 67108864
081111 073344 27 INFO dfs.FSNamesystem: BLOCK* NameSystem.addStoredBlock: blockMap updated: 10.250.6.214:50010 is added to blk_-6882159705363809001 size 67108864
081111 073344 27 INFO dfs.FSNamesystem: BLOCK* NameSystem.addStoredBlock: blockMap updated: 10.251.201.204:50010 is added to blk_-6473249744576736208 size 67108864
081111 073344 27 INFO dfs.FSNamesystem: BLOCK* NameSystem.addStoredBlock: blockMap updated: 10.251.202.209:50010 is added to blk_-307065810575993729 size 67108864
081111 073344 27 INFO dfs.FSNamesystem: BLOCK* NameSystem.addStoredBlock: blockMap updated: 10.251.42.207:50010 is added to blk_-957174655489399714 size 67108864
081111 073344 27 INFO dfs.FSNamesystem: BLOCK* NameSystem.addStoredBlock: blockMap updated: 10.251.66.192:50010 is added to blk_-5134694599948676121 size 67108864
081111 073344 28 INFO dfs.FSNamesystem: BLOCK* NameSystem.addStoredBlock: blockMap updated: 10.251.109.209:50010 is added to blk_6080505688939664821 size 3540938
081111 073344 28 INFO dfs.FSNamesystem: BLOCK* NameSystem.addStoredBlock: blockMap updated: 10.251.214.32:50010 is added to blk_5877096081244369351 size 67108864
081111 073344 28 INFO dfs.FSNamesystem: BLOCK* NameSystem.addStoredBlock: blockMap updated: 10.251.26.8:50010 is added to blk_5877096081244369351 size 67108864
081111 073344 28 INFO dfs.FSNamesystem: BLOCK* NameSystem.addStoredBlock: blockMap updated: 10.251.90.64:50010 is added to blk_1820894515946848826 size 67108864
081111 073344 28 INFO dfs.FSNamesystem: BLOCK* NameSystem.allocateBlock: /user/root/rand6/_temporary/_task_200811101024_0013_m_001244_0/part-01244. blk_-5157609740503524954
081111 073344 29 INFO dfs.FSNamesystem: BLOCK* NameSystem.addStoredBlock: blockMap updated: 10.251.194.213:50010 is added to blk_331093311915256171 size 67108864
081111 073344 29 INFO dfs.FSNamesystem: BLOCK* NameSystem.addStoredBlock: blockMap updated: 10.251.29.239:50010 is added to blk_-8607746050380457148 size 67108864
081111 073344 29 INFO dfs.FSNamesystem: BLOCK* NameSystem.addStoredBlock: blockMap updated: 10.251.89.155:50010 is added to blk_-957174655489399714 size 67108864
081111 073344 30 INFO dfs.FSNamesystem: BLOCK* NameSystem.addStoredBlock: blockMap updated: 10.250.10.100:50010 is added to blk_5877096081244369351 size 67108864
081111 073344 30 INFO dfs.FSNamesystem: BLOCK* NameSystem.addStoredBlock: blockMap updated: 10.250.6.4:50010 is added to blk_-6473249744576736208 size 67108864
081111 073344 30 INFO dfs.FSNamesystem: BLOCK* NameSystem.addStoredBlock: blockMap updated: 10.251.30.101:50010 is added to blk_7404971915425330637 size 67108864
081111 073344 30 INFO dfs.FSNamesystem: BLOCK* NameSystem.addStoredBlock: blockMap updated: 10.251.75.143:50010 is added to blk_6818619966925376239 size 67108864
081111 073344 31 INFO dfs.FSNamesystem: BLOCK* NameSystem.addStoredBlock: blockMap updated: 10.251.106.50:50010 is added to blk_-957174655489399714 size 67108864
081111 073344 31 INFO dfs.FSNamesystem: BLOCK* NameSystem.addStoredBlock: blockMap updated: 10.251.107.227:50010 is added to blk_-8607746050380457148 size 67108864
081111 073344 31 INFO dfs.FSNamesystem: BLOCK* NameSystem.addStoredBlock: blockMap updated: 10.251.199.159:50010 is added to blk_3179040291841759600 size 67108864
081111 073344 31 INFO dfs.FSNamesystem: BLOCK* NameSystem.addStoredBlock: blockMap updated: 10.251.42.207:50010 is added to blk_-526280762793773153 size 67108864
081111 073344 31 INFO dfs.FSNamesystem: BLOCK* NameSystem.allocateBlock: /user/root/rand6/_temporary/_task_200811101024_0013_m_001369_0/part-01369. blk_5182916776433948505
081111 073344 32 INFO dfs.FSNamesystem: BLOCK* NameSystem.allocateBlock: /user/root/rand6/_temporary/_task_200811101024_0013_m_001201_0/part-01201. blk_-3965886569486112014
081111 073344 32 INFO dfs.FSNamesystem: BLOCK* NameSystem.allocateBlock: /user/root/rand6/_temporary/_task_200811101024_0013_m_001261_0/part-01261. blk_-389276667730755034
081111 073344 32 INFO dfs.FSNamesystem: BLOCK* NameSystem.allocateBlock: /user/root/rand6/_temporary/_task_200811101024_0013_m_001427_0/part-01427. blk_3807754624267143486
081111 073344 33 INFO dfs.FSNamesystem: BLOCK* NameSystem.addStoredBlock: blockMap updated: 10.250.11.100:50010 is added to blk_331093311915256171 size 67108864
081111 073344 33 INFO dfs.FSNamesystem: BLOCK* NameSystem.addStoredBlock: blockMap updated: 10.250.14.196:50010 is added to blk_-5134694599948676121 size 67108864
081111 073344 33 INFO dfs.FSNamesystem: BLOCK* NameSystem.addStoredBlock: blockMap updated: 10.251.111.80:50010 is added to blk_-6473249744576736208 size 67108864
081111 073344 33 INFO dfs.FSNamesystem: BLOCK* NameSystem.allocateBlock: /user/root/rand6/_temporary/_task_200811101024_0013_m_001351_0/part-01351. blk_681843931050502734
081111 073344 33 INFO dfs.FSNamesystem: BLOCK* NameSystem.allocateBlock: /user/root/rand6/_temporary/_task_200811101024_0013_m_001461_0/part-01461. blk_441569801798888607
081111 073344 34 INFO dfs.FSNamesystem: BLOCK* NameSystem.addStoredBlock: blockMap updated: 10.250.11.53:50010 is added to blk_-4735531180061762580 size 67108864
081111 073344 34 INFO dfs.FSNamesystem: BLOCK* NameSystem.addStoredBlock: blockMap updated: 10.250.17.225:50010 is added to blk_3179040291841759600 size 67108864
081111 073344 34 INFO dfs.FSNamesystem: BLOCK* NameSystem.addStoredBlock: blockMap updated: 10.251.203.80:50010 is added to blk_6818619966925376239 size 67108864
081111 073344 34 INFO dfs.FSNamesystem: BLOCK* NameSystem.addStoredBlock: blockMap updated: 10.251.74.79:50010 is added to blk_-6882159705363809001 size 67108864
081111 073344 34 INFO dfs.FSNamesystem: BLOCK* NameSystem.allocateBlock: /user/root/rand6/_temporary/_task_200811101024_0013_m_001194_0/part-01194. blk_2079503837302308520
081111 073344 34 INFO dfs.FSNamesystem: BLOCK* NameSystem.allocateBlock: /user/root/rand6/_temporary/_task_200811101024_0013_m_001384_0/part-01384. blk_4692809614617742408
081111 073344 35 INFO dfs.FSNamesystem: BLOCK* NameSystem.addStoredBlock: blockMap updated: 10.250.7.146:50010 is added to blk_7404971915425330637 size 67108864
081111 073344 35 INFO dfs.FSNamesystem: BLOCK* NameSystem.addStoredBlock: blockMap updated: 10.251.42.207:50010 is added to blk_-1808992505794891339 size 67108864
081111 073344 35 INFO dfs.FSNamesystem: BLOCK* NameSystem.addStoredBlock: blockMap updated: 10.251.42.207:50010 is added to blk_7217108460443977407 size 67108864
081111 073344 35 INFO dfs.FSNamesystem: BLOCK* NameSystem.addStoredBlock: blockMap updated: 10.251.75.143:50010 is added to blk_3447954076409472470 size 67108864
081111 073344 35 INFO dfs.FSNamesystem: BLOCK* NameSystem.allocateBlock: /user/root/rand6/_temporary/_task_200811101024_0013_m_001431_0/part-01431. blk_-8761986458129476143
081111 073345 22907 INFO dfs.DataNode$DataXceiver: Receiving block blk_-473094930526873393 src: /10.251.39.179:38866 dest: /10.251.39.179:50010
081111 073345 22909 INFO dfs.DataNode$DataXceiver: Receiving block blk_2258818193270502935 src: /10.251.122.79:51620 dest: /10.251.122.79:50010
081111 073345 22988 INFO dfs.DataNode$DataXceiver: Receiving block blk_5309492538338644781 src: /10.251.127.47:42771 dest: /10.251.127.47:50010
081111 073345 23023 INFO dfs.DataNode$DataXceiver: Receiving block blk_681843931050502734 src: /10.251.125.174:57591 dest: /10.251.125.174:50010
081111 073345 23057 INFO dfs.DataNode$DataXceiver: Receiving block blk_-6279791285957145410 src: /10.251.110.68:59001 dest: /10.251.110.68:50010
081111 073345 23093 INFO dfs.DataNode$PacketResponder: PacketResponder 0 for block blk_369319234170001129 terminating
081111 073345 23093 INFO dfs.DataNode$PacketResponder: Received block blk_369319234170001129 of size 67108864 from /10.251.39.179
081111 073345 23100 INFO dfs.DataNode$DataXceiver: Receiving block blk_-2784200023761671900 src: /10.250.10.223:38126 dest: /10.250.10.223:50010
081111 073345 23118 INFO dfs.DataNode$PacketResponder: PacketResponder 2 for block blk_5877096081244369351 terminating
081111 073345 23131 INFO dfs.DataNode$DataXceiver: Receiving block blk_-6633365349970431485 src: /10.251.214.32:54165 dest: /10.251.214.32:50010
081111 073345 23168 INFO dfs.DataNode$DataXceiver: Receiving block blk_-706699699546262545 src: /10.251.199.19:52615 dest: /10.251.199.19:50010
081111 073345 23241 INFO dfs.DataNode$DataXceiver: Receiving block blk_1468531938219941023 src: /10.251.70.112:60943 dest: /10.251.70.112:50010
081111 073345 23242 INFO dfs.DataNode$DataXceiver: Receiving block blk_5309492538338644781 src: /10.251.39.64:56914 dest: /10.251.39.64:50010
081111 073345 23279 INFO dfs.DataNode$DataXceiver: Receiving block blk_-396585923727413068 src: /10.251.67.211:35400 dest: /10.251.67.211:50010
081111 073345 23302 INFO dfs.DataNode$PacketResponder: PacketResponder 0 for block blk_-6276334701000025935 terminating
081111 073345 23302 INFO dfs.DataNode$PacketResponder: Received block blk_-6276334701000025935 of size 67108864 from /10.251.71.240
081111 073345 23305 INFO dfs.DataNode$DataXceiver: Receiving block blk_1468531938219941023 src: /10.251.39.64:39100 dest: /10.251.39.64:50010
081111 073345 23314 INFO dfs.DataNode$PacketResponder: PacketResponder 1 for block blk_-1808992505794891339 terminating
081111 073345 23314 INFO dfs.DataNode$PacketResponder: Received block blk_-1808992505794891339 of size 67108864 from /10.251.70.112
081111 073345 23324 INFO dfs.DataNode$DataXceiver: Receiving block blk_-2784200023761671900 src: /10.251.125.193:53102 dest: /10.251.125.193:50010
081111 073345 23339 INFO dfs.DataNode$PacketResponder: PacketResponder 0 for block blk_2616843979388918186 terminating
081111 073345 23339 INFO dfs.DataNode$PacketResponder: Received block blk_2616843979388918186 of size 67108864 from /10.251.30.101
081111 073345 23367 INFO dfs.DataNode$PacketResponder: PacketResponder 0 for block blk_5352605570580094458 terminating
081111 073345 23367 INFO dfs.DataNode$PacketResponder: Received block blk_5352605570580094458 of size 67108864 from /10.251.66.63
081111 073345 23376 INFO dfs.DataNode$PacketResponder: PacketResponder 1 for block blk_5352605570580094458 terminating
081111 073345 23376 INFO dfs.DataNode$PacketResponder: Received block blk_5352605570580094458 of size 67108864 from /10.250.6.4
081111 073345 23390 INFO dfs.DataNode$PacketResponder: PacketResponder 2 for block blk_-1808992505794891339 terminating
081111 073345 23390 INFO dfs.DataNode$PacketResponder: Received block blk_-1808992505794891339 of size 67108864 from /10.251.70.112
081111 073345 23395 INFO dfs.DataNode$DataXceiver: Receiving block blk_5182916776433948505 src: /10.251.202.209:52679 dest: /10.251.202.209:50010
081111 073345 23401 INFO dfs.DataNode$DataXceiver: Receiving block blk_5182916776433948505 src: /10.251.215.192:44424 dest: /10.251.215.192:50010
081111 073345 23404 INFO dfs.DataNode$DataXceiver: Receiving block blk_3807754624267143486 src: /10.251.89.155:44378 dest: /10.251.89.155:50010
081111 073345 23405 INFO dfs.DataNode$DataXceiver: Receiving block blk_1468531938219941023 src: /10.251.70.112:48365 dest: /10.251.70.112:50010
081111 073345 23428 INFO dfs.DataNode$PacketResponder: PacketResponder 2 for block blk_-6276334701000025935 terminating
081111 073345 23428 INFO dfs.DataNode$PacketResponder: Received block blk_-6276334701000025935 of size 67108864 from /10.251.105.189
081111 073345 23462 INFO dfs.DataNode$PacketResponder: PacketResponder 0 for block blk_1228325705758244158 terminating
081111 073345 23462 INFO dfs.DataNode$PacketResponder: Received block blk_1228325705758244158 of size 67108864 from /10.251.74.134
081111 073345 23475 INFO dfs.DataNode$PacketResponder: PacketResponder 0 for block blk_4193377752603356502 terminating
081111 073345 23475 INFO dfs.DataNode$PacketResponder: Received block blk_4193377752603356502 of size 67108864 from /10.251.123.1
081111 073345 23481 INFO dfs.DataNode$DataXceiver: Receiving block blk_5309492538338644781 src: /10.251.39.64:49110 dest: /10.251.39.64:50010
081111 073345 23487 INFO dfs.DataNode$DataXceiver: Receiving block blk_3807754624267143486 src: /10.251.65.237:57901 dest: /10.251.65.237:50010
081111 073345 23487 INFO dfs.DataNode$DataXceiver: Receiving block blk_-396585923727413068 src: /10.251.74.79:51941 dest: /10.251.74.79:50010
081111 073345 23488 INFO dfs.DataNode$DataXceiver: Receiving block blk_-6633365349970431485 src: /10.251.214.32:58670 dest: /10.251.214.32:50010
081111 073345 23490 INFO dfs.DataNode$PacketResponder: PacketResponder 2 for block blk_3179040291841759600 terminating
081111 073345 23490 INFO dfs.DataNode$PacketResponder: Received block blk_3179040291841759600 of size 67108864 from /10.251.122.79
081111 073345 23500 INFO dfs.DataNode$DataXceiver: Receiving block blk_-5157609740503524954 src: /10.250.11.53:39154 dest: /10.250.11.53:50010
081111 073345 23501 INFO dfs.DataNode$PacketResponder: PacketResponder 0 for block blk_6622839769211615041 terminating
081111 073345 23501 INFO dfs.DataNode$PacketResponder: Received block blk_6622839769211615041 of size 67108864 from /10.251.66.63
081111 073345 23502 INFO dfs.DataNode$DataXceiver: Receiving block blk_2258818193270502935 src: /10.251.122.79:55156 dest: /10.251.122.79:50010
081111 073345 23519 INFO dfs.DataNode$PacketResponder: PacketResponder 2 for block blk_3447954076409472470 terminating
081111 073345 23519 INFO dfs.DataNode$PacketResponder: Received block blk_3447954076409472470 of size 67108864 from /10.251.67.211
081111 073345 23528 INFO dfs.DataNode$DataXceiver: Receiving block blk_-396585923727413068 src: /10.251.67.211:59376 dest: /10.251.67.211:50010
081111 073345 23529 INFO dfs.DataNode$DataXceiver: Receiving block blk_-473094930526873393 src: /10.251.203.246:38653 dest: /10.251.203.246:50010
081111 073345 23532 INFO dfs.DataNode$PacketResponder: PacketResponder 2 for block blk_1228325705758244158 terminating
081111 073345 23532 INFO dfs.DataNode$PacketResponder: Received block blk_1228325705758244158 of size 67108864 from /10.251.26.8
081111 073345 23535 INFO dfs.DataNode$PacketResponder: PacketResponder 0 for block blk_-9127581185513968069 terminating
081111 073345 23535 INFO dfs.DataNode$PacketResponder: Received block blk_-9127581185513968069 of size 67108864 from /10.250.10.6
081111 073345 23538 INFO dfs.DataNode$PacketResponder: PacketResponder 2 for block blk_2616843979388918186 terminating
081111 073345 23538 INFO dfs.DataNode$PacketResponder: Received block blk_2616843979388918186 of size 67108864 from /10.251.110.68
081111 073345 23539 INFO dfs.DataNode$PacketResponder: PacketResponder 2 for block blk_331093311915256171 terminating
081111 073345 23539 INFO dfs.DataNode$PacketResponder: Received block blk_331093311915256171 of size 67108864 from /10.251.91.229
081111 073345 23544 INFO dfs.DataNode$DataXceiver: Receiving block blk_3253728711940347877 src: /10.251.91.229:45652 dest: /10.251.91.229:50010
081111 073345 23551 INFO dfs.DataNode$DataXceiver: Receiving block blk_-2291884404855118312 src: /10.251.26.8:60471 dest: /10.251.26.8:50010
081111 073345 23553 INFO dfs.DataNode$DataXceiver: Receiving block blk_-6279791285957145410 src: /10.251.110.68:53517 dest: /10.251.110.68:50010
081111 073345 23554 INFO dfs.DataNode$PacketResponder: PacketResponder 1 for block blk_-6276334701000025935 terminating
081111 073345 23554 INFO dfs.DataNode$PacketResponder: Received block blk_-6276334701000025935 of size 67108864 from /10.251.105.189
081111 073345 23580 INFO dfs.DataNode$DataXceiver: Receiving block blk_-6279791285957145410 src: /10.251.198.196:59503 dest: /10.251.198.196:50010
081111 073345 23595 INFO dfs.DataNode$PacketResponder: PacketResponder 1 for block blk_3447954076409472470 terminating
081111 073345 23595 INFO dfs.DataNode$PacketResponder: Received block blk_3447954076409472470 of size 67108864 from /10.251.67.211
081111 073345 23615 INFO dfs.DataNode$PacketResponder: PacketResponder 1 for block blk_2616843979388918186 terminating
081111 073345 23615 INFO dfs.DataNode$PacketResponder: Received block blk_2616843979388918186 of size 67108864 from /10.251.110.68
081111 073345 23632 INFO dfs.DataNode$DataXceiver: Receiving block blk_4692809614617742408 src: /10.251.30.101:59307 dest: /10.251.30.101:50010
081111 073345 23633 INFO dfs.DataNode$DataXceiver: Receiving block blk_-2291884404855118312 src: /10.251.26.8:52483 dest: /10.251.26.8:50010
081111 073345 23641 INFO dfs.DataNode$DataXceiver: Receiving block blk_3253728711940347877 src: /10.251.91.229:51176 dest: /10.251.91.229:50010
081111 073345 23740 INFO dfs.DataNode$PacketResponder: PacketResponder 1 for block blk_1228325705758244158 terminating
081111 073345 23740 INFO dfs.DataNode$PacketResponder: Received block blk_1228325705758244158 of size 67108864 from /10.251.26.8
081111 073345 23781 INFO dfs.DataNode$DataXceiver: Receiving block blk_5452440009958640421 src: /10.251.75.163:48620 dest: /10.251.75.163:50010
081111 073345 26 INFO dfs.FSNamesystem: BLOCK* NameSystem.addStoredBlock: blockMap updated: 10.251.122.79:50010 is added to blk_3179040291841759600 size 67108864
081111 073345 26 INFO dfs.FSNamesystem: BLOCK* NameSystem.addStoredBlock: blockMap updated: 10.251.29.239:50010 is added to blk_-6276334701000025935 size 67108864
081111 073345 26 INFO dfs.FSNamesystem: BLOCK* NameSystem.addStoredBlock: blockMap updated: 10.251.70.112:50010 is added to blk_-1808992505794891339 size 67108864
081111 073345 27 INFO dfs.FSNamesystem: BLOCK* NameSystem.addStoredBlock: blockMap updated: 10.251.26.8:50010 is added to blk_1228325705758244158 size 67108864
081111 073345 27 INFO dfs.FSNamesystem: BLOCK* NameSystem.addStoredBlock: blockMap updated: 10.251.67.211:50010 is added to blk_3447954076409472470 size 67108864
081111 073345 28 INFO dfs.FSNamesystem: BLOCK* NameSystem.allocateBlock: /user/root/rand6/_temporary/_task_200811101024_0013_m_001510_0/part-01510. blk_-396585923727413068
081111 073345 29 INFO dfs.FSNamesystem: BLOCK* NameSystem.addStoredBlock: blockMap updated: 10.250.5.237:50010 is added to blk_6622839769211615041 size 67108864
081111 073345 29 INFO dfs.FSNamesystem: BLOCK* NameSystem.allocateBlock: /user/root/rand6/_temporary/_task_200811101024_0013_m_001567_0/part-01567. blk_5309492538338644781
081111 073345 31 INFO dfs.FSNamesystem: BLOCK* NameSystem.addStoredBlock: blockMap updated: 10.250.10.6:50010 is added to blk_2616843979388918186 size 67108864
081111 073345 31 INFO dfs.FSNamesystem: BLOCK* NameSystem.addStoredBlock: blockMap updated: 10.251.127.47:50010 is added to blk_1228325705758244158 size 67108864
081111 073345 31 INFO dfs.FSNamesystem: BLOCK* NameSystem.addStoredBlock: blockMap updated: 10.251.31.5:50010 is added to blk_4193377752603356502 size 67108864
081111 073345 31 INFO dfs.FSNamesystem: BLOCK* NameSystem.allocateBlock: /user/root/rand6/_temporary/_task_200811101024_0013_m_001228_0/part-01228. blk_2258818193270502935
081111 073345 31 INFO dfs.FSNamesystem: BLOCK* NameSystem.allocateBlock: /user/root/rand6/_temporary/_task_200811101024_0013_m_001454_0/part-01454. blk_-6633365349970431485
081111 073345 32 INFO dfs.FSNamesystem: BLOCK* NameSystem.addStoredBlock: blockMap updated: 10.251.105.189:50010 is added to blk_-6276334701000025935 size 67108864
081111 073345 32 INFO dfs.FSNamesystem: BLOCK* NameSystem.allocateBlock: /user/root/rand6/_temporary/_task_200811101024_0013_m_001527_0/part-01527. blk_3253728711940347877
081111 073345 33 INFO dfs.FSNamesystem: BLOCK* NameSystem.addStoredBlock: blockMap updated: 10.251.42.246:50010 is added to blk_5352605570580094458 size 67108864
081111 073345 33 INFO dfs.FSNamesystem: BLOCK* NameSystem.addStoredBlock: blockMap updated: 10.251.91.229:50010 is added to blk_-9127581185513968069 size 67108864
081111 073345 33 INFO dfs.FSNamesystem: BLOCK* NameSystem.allocateBlock: /user/root/rand6/_temporary/_task_200811101024_0013_m_001178_0/part-01178. blk_1468531938219941023
081111 073345 33 INFO dfs.FSNamesystem: BLOCK* NameSystem.allocateBlock: /user/root/rand6/_temporary/_task_200811101024_0013_m_001526_0/part-01526. blk_-6279791285957145410
081111 073345 34 INFO dfs.FSNamesystem: BLOCK* NameSystem.addStoredBlock: blockMap updated: 10.251.110.68:50010 is added to blk_2616843979388918186 size 67108864
081111 073345 34 INFO dfs.FSNamesystem: BLOCK* NameSystem.addStoredBlock: blockMap updated: 10.251.30.101:50010 is added to blk_2616843979388918186 size 67108864
081111 073345 34 INFO dfs.FSNamesystem: BLOCK* NameSystem.addStoredBlock: blockMap updated: 10.251.71.193:50010 is added to blk_3447954076409472470 size 67108864
081111 073345 34 INFO dfs.FSNamesystem: BLOCK* NameSystem.addStoredBlock: blockMap updated: 10.251.91.229:50010 is added to blk_331093311915256171 size 67108864
081111 073345 35 INFO dfs.FSNamesystem: BLOCK* NameSystem.addStoredBlock: blockMap updated: 10.251.71.240:50010 is added to blk_-6276334701000025935 size 67108864
081111 073345 35 INFO dfs.FSNamesystem: BLOCK* NameSystem.addStoredBlock: blockMap updated: 10.251.74.134:50010 is added to blk_1228325705758244158 size 67108864
081111 073345 35 INFO dfs.FSNamesystem: BLOCK* NameSystem.allocateBlock: /user/root/rand6/_temporary/_task_200811101024_0013_m_001428_0/part-01428. blk_-2291884404855118312
081111 073346 22102 INFO dfs.DataNode$PacketResponder: PacketResponder 0 for block blk_1035635096267132775 terminating
081111 073346 22102 INFO dfs.DataNode$PacketResponder: Received block blk_1035635096267132775 of size 67108864 from /10.251.126.22
081111 073346 23066 INFO dfs.DataNode$PacketResponder: PacketResponder 2 for block blk_6563183684523014369 terminating
081111 073346 23066 INFO dfs.DataNode$PacketResponder: Received block blk_6563183684523014369 of size 67108864 from /10.251.197.161
081111 073346 23096 INFO dfs.DataNode$PacketResponder: PacketResponder 1 for block blk_1338662818884342812 terminating
081111 073346 23096 INFO dfs.DataNode$PacketResponder: Received block blk_1338662818884342812 of size 67108864 from /10.250.9.207
081111 073346 23102 INFO dfs.DataNode$PacketResponder: PacketResponder 2 for block blk_4332230194978029336 terminating
081111 073346 23102 INFO dfs.DataNode$PacketResponder: Received block blk_4332230194978029336 of size 67108864 from /10.251.202.209
081111 073346 23122 INFO dfs.DataNode$DataXceiver: Receiving block blk_-4413764282465478802 src: /10.251.202.209:52945 dest: /10.251.202.209:50010
081111 073346 23181 INFO dfs.DataNode$PacketResponder: PacketResponder 0 for block blk_4332230194978029336 terminating
081111 073346 23181 INFO dfs.DataNode$PacketResponder: Received block blk_4332230194978029336 of size 67108864 from /10.251.75.79
081111 073346 23185 INFO dfs.DataNode$PacketResponder: PacketResponder 1 for block blk_-526280762793773153 terminating
081111 073346 23185 INFO dfs.DataNode$PacketResponder: Received block blk_-526280762793773153 of size 67108864 from /10.250.11.194
081111 073346 23189 INFO dfs.DataNode$DataXceiver: writeBlock blk_8005333602567443971 received exception java.io.IOException: Could not read from stream
081111 073346 23207 INFO dfs.DataNode$DataXceiver: Receiving block blk_-4413764282465478802 src: /10.251.202.209:51122 dest: /10.251.202.209:50010
081111 073346 23213 INFO dfs.DataNode$PacketResponder: PacketResponder 0 for block blk_-1091369836808299568 terminating
081111 073346 23213 INFO dfs.DataNode$PacketResponder: Received block blk_-1091369836808299568 of size 67108864 from /10.251.91.84
081111 073346 23223 INFO dfs.DataNode$DataXceiver: Receiving block blk_-2769623277268587194 src: /10.251.43.21:51370 dest: /10.251.43.21:50010
081111 073346 23258 INFO dfs.DataNode$PacketResponder: PacketResponder 0 for block blk_-6539501983137584939 terminating
081111 073346 23258 INFO dfs.DataNode$PacketResponder: Received block blk_-6539501983137584939 of size 67108864 from /10.251.66.63
081111 073346 23260 INFO dfs.DataNode$PacketResponder: PacketResponder 1 for block blk_6563183684523014369 terminating
081111 073346 23260 INFO dfs.DataNode$PacketResponder: Received block blk_6563183684523014369 of size 67108864 from /10.251.197.161
081111 073346 23282 INFO dfs.DataNode$DataXceiver: Receiving block blk_-1173396190544470045 src: /10.251.67.225:45689 dest: /10.251.67.225:50010
081111 073346 23309 INFO dfs.DataNode$PacketResponder: PacketResponder 2 for block blk_8925602585641617411 terminating
081111 073346 23309 INFO dfs.DataNode$PacketResponder: Received block blk_8925602585641617411 of size 67108864 from /10.251.122.38
081111 073346 23312 INFO dfs.DataNode$DataXceiver: Receiving block blk_6124634351317540997 src: /10.251.122.38:36112 dest: /10.251.122.38:50010
081111 073346 23325 INFO dfs.DataNode$PacketResponder: PacketResponder 0 for block blk_1236581743236009284 terminating
081111 073346 23325 INFO dfs.DataNode$PacketResponder: Received block blk_1236581743236009284 of size 67108864 from /10.251.89.155
081111 073346 23328 INFO dfs.DataNode$PacketResponder: PacketResponder 0 for block blk_-7914825174300765459 terminating
081111 073346 23328 INFO dfs.DataNode$PacketResponder: Received block blk_-7914825174300765459 of size 67108864 from /10.251.90.81
081111 073346 23352 INFO dfs.DataNode$PacketResponder: PacketResponder 2 for block blk_5352605570580094458 terminating
081111 073346 23352 INFO dfs.DataNode$PacketResponder: Received block blk_5352605570580094458 of size 67108864 from /10.250.6.4
081111 073346 23355 INFO dfs.DataNode$DataXceiver: Receiving block blk_7788303790280049662 src: /10.251.106.37:54660 dest: /10.251.106.37:50010
081111 073346 23371 INFO dfs.DataNode$DataXceiver: Receiving block blk_-1173396190544470045 src: /10.250.6.4:37093 dest: /10.250.6.4:50010
081111 073346 23371 INFO dfs.DataNode$PacketResponder: PacketResponder 0 for block blk_8061824895551920911 terminating
081111 073346 23371 INFO dfs.DataNode$PacketResponder: Received block blk_8061824895551920911 of size 67108864 from /10.250.11.53
081111 073346 23386 INFO dfs.DataNode$PacketResponder: PacketResponder 1 for block blk_-6539501983137584939 terminating
081111 073346 23386 INFO dfs.DataNode$PacketResponder: Received block blk_-6539501983137584939 of size 67108864 from /10.250.15.198
081111 073346 23390 INFO dfs.DataNode$DataXceiver: Receiving block blk_7842492954955242141 src: /10.251.194.129:53917 dest: /10.251.194.129:50010
081111 073346 23390 INFO dfs.DataNode$PacketResponder: PacketResponder 1 for block blk_6622839769211615041 terminating
081111 073346 23390 INFO dfs.DataNode$PacketResponder: Received block blk_6622839769211615041 of size 67108864 from /10.250.11.53
081111 073346 23392 INFO dfs.DataNode$DataXceiver: Receiving block blk_-6548351530913434035 src: /10.251.111.209:50432 dest: /10.251.111.209:50010
081111 073346 23406 INFO dfs.DataNode$DataXceiver: Receiving block blk_4031051221965647075 src: /10.251.70.211:46847 dest: /10.251.70.211:50010
081111 073346 23423 INFO dfs.DataNode$DataXceiver: Receiving block blk_4031051221965647075 src: /10.251.105.189:56523 dest: /10.251.105.189:50010
081111 073346 23439 INFO dfs.DataNode$DataXceiver: Receiving block blk_-2291884404855118312 src: /10.251.30.101:46108 dest: /10.251.30.101:50010
081111 073346 23439 INFO dfs.DataNode$DataXceiver: Receiving block blk_8021517396547911567 src: /10.251.126.83:44258 dest: /10.251.126.83:50010
081111 073346 23440 INFO dfs.DataNode$DataXceiver: Receiving block blk_4031051221965647075 src: /10.251.105.189:39506 dest: /10.251.105.189:50010
081111 073346 23452 INFO dfs.DataNode$PacketResponder: PacketResponder 0 for block blk_6563183684523014369 terminating
081111 073346 23452 INFO dfs.DataNode$PacketResponder: Received block blk_6563183684523014369 of size 67108864 from /10.251.214.175
081111 073346 23461 INFO dfs.DataNode$DataXceiver: Receiving block blk_-5157609740503524954 src: /10.251.122.79:55518 dest: /10.251.122.79:50010
081111 073346 23479 INFO dfs.DataNode$PacketResponder: PacketResponder 1 for block blk_-1091369836808299568 terminating
081111 073346 23479 INFO dfs.DataNode$PacketResponder: Received block blk_-1091369836808299568 of size 67108864 from /10.251.67.225
081111 073346 23483 INFO dfs.DataNode$PacketResponder: PacketResponder 1 for block blk_369319234170001129 terminating
081111 073346 23483 INFO dfs.DataNode$PacketResponder: Received block blk_369319234170001129 of size 67108864 from /10.250.15.198
081111 073346 23485 INFO dfs.DataNode$PacketResponder: PacketResponder 0 for block blk_1338662818884342812 terminating
081111 073346 23485 INFO dfs.DataNode$PacketResponder: Received block blk_1338662818884342812 of size 67108864 from /10.251.109.236
081111 073346 23488 INFO dfs.DataNode$DataXceiver: Receiving block blk_2258818193270502935 src: /10.251.203.246:52976 dest: /10.251.203.246:50010
081111 073346 23492 INFO dfs.DataNode$PacketResponder: PacketResponder 1 for block blk_8925602585641617411 terminating
081111 073346 23492 INFO dfs.DataNode$PacketResponder: Received block blk_8925602585641617411 of size 67108864 from /10.251.122.38
081111 073346 23504 INFO dfs.DataNode$DataXceiver: Receiving block blk_4692809614617742408 src: /10.251.30.101:54894 dest: /10.251.30.101:50010
081111 073346 23522 INFO dfs.DataNode$DataXceiver: Receiving block blk_-6548351530913434035 src: /10.250.11.53:54568 dest: /10.250.11.53:50010
081111 073346 23530 INFO dfs.DataNode$PacketResponder: PacketResponder 0 for block blk_8925602585641617411 terminating
081111 073346 23530 INFO dfs.DataNode$PacketResponder: Received block blk_8925602585641617411 of size 67108864 from /10.251.122.79
081111 073346 23534 INFO dfs.DataNode$DataXceiver: Receiving block blk_7788303790280049662 src: /10.250.6.214:56147 dest: /10.250.6.214:50010
081111 073346 23571 INFO dfs.DataNode$PacketResponder: PacketResponder 1 for block blk_4332230194978029336 terminating
081111 073346 23571 INFO dfs.DataNode$PacketResponder: Received block blk_4332230194978029336 of size 67108864 from /10.251.202.209
081111 073346 23582 INFO dfs.DataNode$DataXceiver: Receiving block blk_8021517396547911567 src: /10.251.67.225:32945 dest: /10.251.67.225:50010
081111 073346 23583 INFO dfs.DataNode$PacketResponder: PacketResponder 1 for block blk_-7914825174300765459 terminating
081111 073346 23583 INFO dfs.DataNode$PacketResponder: Received block blk_-7914825174300765459 of size 67108864 from /10.251.43.147
081111 073346 23591 INFO dfs.DataNode$PacketResponder: PacketResponder 2 for block blk_-1091369836808299568 terminating
081111 073346 23591 INFO dfs.DataNode$PacketResponder: Received block blk_-1091369836808299568 of size 67108864 from /10.251.67.225
081111 073346 23596 INFO dfs.DataNode$DataXceiver: Receiving block blk_-1173396190544470045 src: /10.250.6.4:44877 dest: /10.250.6.4:50010
081111 073346 23597 INFO dfs.DataNode$DataXceiver: Receiving block blk_8021517396547911567 src: /10.251.67.225:39614 dest: /10.251.67.225:50010
081111 073346 23679 INFO dfs.DataNode$PacketResponder: PacketResponder 1 for block blk_8061824895551920911 terminating
081111 073346 23679 INFO dfs.DataNode$PacketResponder: Received block blk_8061824895551920911 of size 67108864 from /10.251.42.207
081111 073346 23683 INFO dfs.DataNode$PacketResponder: PacketResponder 2 for block blk_6622839769211615041 terminating
081111 073346 23683 INFO dfs.DataNode$PacketResponder: Received block blk_6622839769211615041 of size 67108864 from /10.250.11.53
081111 073346 23695 INFO dfs.DataNode$DataXceiver: Receiving block blk_-6548351530913434035 src: /10.250.11.53:53506 dest: /10.250.11.53:50010
081111 073346 23839 INFO dfs.DataNode$PacketResponder: PacketResponder 2 for block blk_-526280762793773153 terminating
081111 073346 23839 INFO dfs.DataNode$PacketResponder: Received block blk_-526280762793773153 of size 67108864 from /10.250.11.194
081111 073346 23846 INFO dfs.DataNode$DataXceiver: Receiving block blk_3738735615794309864 src: /10.250.11.194:40204 dest: /10.250.11.194:50010
081111 073346 26 INFO dfs.FSNamesystem: BLOCK* NameSystem.addStoredBlock: blockMap updated: 10.250.6.4:50010 is added to blk_5352605570580094458 size 67108864
081111 073346 26 INFO dfs.FSNamesystem: BLOCK* NameSystem.addStoredBlock: blockMap updated: 10.251.107.227:50010 is added to blk_369319234170001129 size 67108864
081111 073346 26 INFO dfs.FSNamesystem: BLOCK* NameSystem.addStoredBlock: blockMap updated: 10.251.214.175:50010 is added to blk_-6539501983137584939 size 67108864
081111 073346 26 INFO dfs.FSNamesystem: BLOCK* NameSystem.addStoredBlock: blockMap updated: 10.251.214.175:50010 is added to blk_6563183684523014369 size 67108864
081111 073346 26 INFO dfs.FSNamesystem: BLOCK* NameSystem.addStoredBlock: blockMap updated: 10.251.75.79:50010 is added to blk_4332230194978029336 size 67108864
081111 073346 26 INFO dfs.FSNamesystem: BLOCK* NameSystem.addStoredBlock: blockMap updated: 10.251.90.81:50010 is added to blk_-7914825174300765459 size 67108864
081111 073346 27 INFO dfs.FSNamesystem: BLOCK* NameSystem.addStoredBlock: blockMap updated: 10.251.39.179:50010 is added to blk_369319234170001129 size 67108864
081111 073346 27 INFO dfs.FSNamesystem: BLOCK* NameSystem.allocateBlock: /user/root/rand6/_temporary/_task_200811101024_0013_m_001535_0/part-01535. blk_6124634351317540997
081111 073346 28 INFO dfs.FSNamesystem: BLOCK* NameSystem.addStoredBlock: blockMap updated: 10.250.6.223:50010 is added to blk_6563183684523014369 size 67108864
081111 073346 28 INFO dfs.FSNamesystem: BLOCK* NameSystem.addStoredBlock: blockMap updated: 10.251.122.38:50010 is added to blk_8925602585641617411 size 67108864
081111 073346 28 INFO dfs.FSNamesystem: BLOCK* NameSystem.addStoredBlock: blockMap updated: 10.251.67.225:50010 is added to blk_-1091369836808299568 size 67108864
081111 073346 29 INFO dfs.FSNamesystem: BLOCK* NameSystem.addStoredBlock: blockMap updated: 10.251.26.131:50010 is added to blk_1236581743236009284 size 67108864
081111 073346 29 INFO dfs.FSNamesystem: BLOCK* NameSystem.addStoredBlock: blockMap updated: 10.251.42.246:50010 is added to blk_8061824895551920911 size 67108864
081111 073346 30 INFO dfs.FSNamesystem: BLOCK* NameSystem.addStoredBlock: blockMap updated: 10.251.109.236:50010 is added to blk_1338662818884342812 size 67108864
081111 073346 30 INFO dfs.FSNamesystem: BLOCK* NameSystem.addStoredBlock: blockMap updated: 10.251.122.79:50010 is added to blk_8925602585641617411 size 67108864
081111 073346 30 INFO dfs.FSNamesystem: BLOCK* NameSystem.allocateBlock: /user/root/rand6/_temporary/_task_200811101024_0013_m_001199_0/part-01199. blk_3738735615794309864
081111 073346 31 INFO dfs.FSNamesystem: BLOCK* NameSystem.addStoredBlock: blockMap updated: 10.251.202.209:50010 is added to blk_4332230194978029336 size 67108864
081111 073346 31 INFO dfs.FSNamesystem: BLOCK* NameSystem.addStoredBlock: blockMap updated: 10.251.42.16:50010 is added to blk_-1091369836808299568 size 67108864
081111 073346 31 INFO dfs.FSNamesystem: BLOCK* NameSystem.allocateBlock: /user/root/rand6/_temporary/_task_200811101024_0013_m_001492_0/part-01492. blk_4031051221965647075
081111 073346 32 INFO dfs.FSNamesystem: BLOCK* NameSystem.addStoredBlock: blockMap updated: 10.250.11.53:50010 is added to blk_6622839769211615041 size 67108864
081111 073346 32 INFO dfs.FSNamesystem: BLOCK* NameSystem.addStoredBlock: blockMap updated: 10.250.11.53:50010 is added to blk_8061824895551920911 size 67108864
081111 073346 32 INFO dfs.FSNamesystem: BLOCK* NameSystem.addStoredBlock: blockMap updated: 10.251.106.10:50010 is added to blk_1035635096267132775 size 67108864
081111 073346 32 INFO dfs.FSNamesystem: BLOCK* NameSystem.allocateBlock: /user/root/rand6/_temporary/_task_200811101024_0013_m_001336_0/part-01336. blk_8021517396547911567
081111 073346 33 INFO dfs.FSNamesystem: BLOCK* NameSystem.addStoredBlock: blockMap updated: 10.251.197.161:50010 is added to blk_6563183684523014369 size 67108864
081111 073346 33 INFO dfs.FSNamesystem: BLOCK* NameSystem.addStoredBlock: blockMap updated: 10.251.214.225:50010 is added to blk_4332230194978029336 size 67108864
081111 073346 33 INFO dfs.FSNamesystem: BLOCK* NameSystem.addStoredBlock: blockMap updated: 10.251.214.225:50010 is added to blk_-526280762793773153 size 67108864
081111 073346 34 INFO dfs.FSNamesystem: BLOCK* NameSystem.addStoredBlock: blockMap updated: 10.251.111.228:50010 is added to blk_8925602585641617411 size 67108864
081111 073346 34 INFO dfs.FSNamesystem: BLOCK* NameSystem.addStoredBlock: blockMap updated: 10.251.39.179:50010 is added to blk_1338662818884342812 size 67108864
081111 073346 34 INFO dfs.FSNamesystem: BLOCK* NameSystem.addStoredBlock: blockMap updated: 10.251.66.63:50010 is added to blk_5352605570580094458 size 67108864
081111 073346 34 INFO dfs.FSNamesystem: BLOCK* NameSystem.addStoredBlock: blockMap updated: 10.251.66.63:50010 is added to blk_6622839769211615041 size 67108864
081111 073346 34 INFO dfs.FSNamesystem: BLOCK* NameSystem.allocateBlock: /user/root/rand6/_temporary/_task_200811101024_0013_m_001321_0/part-01321. blk_-1173396190544470045
081111 073346 34 INFO dfs.FSNamesystem: BLOCK* NameSystem.allocateBlock: /user/root/rand6/_temporary/_task_200811101024_0013_m_001338_0/part-01338. blk_-6548351530913434035
081111 073346 35 INFO dfs.FSNamesystem: BLOCK* NameSystem.addStoredBlock: blockMap updated: 10.250.11.194:50010 is added to blk_-526280762793773153 size 67108864
081111 073346 35 INFO dfs.FSNamesystem: BLOCK* NameSystem.addStoredBlock: blockMap updated: 10.251.66.63:50010 is added to blk_-6539501983137584939 size 67108864
081111 073346 35 INFO dfs.FSNamesystem: BLOCK* NameSystem.addStoredBlock: blockMap updated: 10.251.91.84:50010 is added to blk_-1091369836808299568 size 67108864
081111 073346 35 INFO dfs.FSNamesystem: BLOCK* NameSystem.allocateBlock: /user/root/rand6/_temporary/_task_200811101024_0013_m_001506_0/part-01506. blk_-4413764282465478802
081111 073347 22104 INFO dfs.DataNode$PacketResponder: PacketResponder 1 for block blk_-9073841470350325352 terminating
081111 073347 22104 INFO dfs.DataNode$PacketResponder: Received block blk_-9073841470350325352 of size 67108864 from /10.251.110.160
081111 073347 22822 INFO dfs.DataNode$PacketResponder: PacketResponder 1 for block blk_229947046836809408 terminating
081111 073347 22822 INFO dfs.DataNode$PacketResponder: Received block blk_229947046836809408 of size 67108864 from /10.251.91.229
081111 073347 22870 INFO dfs.DataNode$DataXceiver: Receiving block blk_-1917987228462665000 src: /10.251.71.16:52101 dest: /10.251.71.16:50010
081111 073347 22900 INFO dfs.DataNode$DataXceiver: Receiving block blk_-2329574939885202282 src: /10.251.199.86:40110 dest: /10.251.199.86:50010
081111 073347 22921 INFO dfs.DataNode$PacketResponder: PacketResponder 2 for block blk_-135303886968620495 terminating
081111 073347 22921 INFO dfs.DataNode$PacketResponder: Received block blk_-135303886968620495 of size 67108864 from /10.251.203.4
081111 073347 22928 INFO dfs.DataNode$DataXceiver: Receiving block blk_-2644722253973096762 src: /10.251.31.85:40596 dest: /10.251.31.85:50010
081111 073347 22930 INFO dfs.DataNode$DataXceiver: Receiving block blk_-7621344193401312163 src: /10.251.203.4:59324 dest: /10.251.203.4:50010
081111 073347 22951 INFO dfs.DataNode$PacketResponder: PacketResponder 2 for block blk_-8200219794105893798 terminating
081111 073347 22951 INFO dfs.DataNode$PacketResponder: Received block blk_-8200219794105893798 of size 67108864 from /10.251.107.242
081111 073347 22954 INFO dfs.DataNode$DataXceiver: Receiving block blk_1426826358019418354 src: /10.251.107.242:42021 dest: /10.251.107.242:50010
081111 073347 23014 INFO dfs.DataNode$PacketResponder: PacketResponder 1 for block blk_-2823578640965945004 terminating
081111 073347 23014 INFO dfs.DataNode$PacketResponder: Received block blk_-2823578640965945004 of size 67108864 from /10.251.31.5
081111 073347 23079 INFO dfs.DataNode$DataXceiver: Receiving block blk_6811667203151931196 src: /10.251.197.161:57377 dest: /10.251.197.161:50010
081111 073347 23142 INFO dfs.DataNode$PacketResponder: PacketResponder 1 for block blk_4334818095652801275 terminating
081111 073347 23142 INFO dfs.DataNode$PacketResponder: Received block blk_4334818095652801275 of size 67108864 from /10.251.215.70
081111 073347 23151 INFO dfs.DataNode$DataXceiver: Receiving block blk_1732150297260923629 src: /10.250.19.16:55141 dest: /10.250.19.16:50010
081111 073347 23160 INFO dfs.DataNode$PacketResponder: PacketResponder 0 for block blk_-4417781757913884459 terminating
081111 073347 23160 INFO dfs.DataNode$PacketResponder: Received block blk_-4417781757913884459 of size 67108864 from /10.251.30.101
081111 073347 23171 INFO dfs.DataNode$PacketResponder: PacketResponder 2 for block blk_-6539501983137584939 terminating
081111 073347 23171 INFO dfs.DataNode$PacketResponder: Received block blk_-6539501983137584939 of size 67108864 from /10.250.15.198
081111 073347 23179 INFO dfs.DataNode$PacketResponder: PacketResponder 2 for block blk_369319234170001129 terminating
081111 073347 23179 INFO dfs.DataNode$PacketResponder: Received block blk_369319234170001129 of size 67108864 from /10.250.15.198
081111 073347 23183 INFO dfs.DataNode$DataXceiver: Receiving block blk_-3613472297285974266 src: /10.250.15.198:43655 dest: /10.250.15.198:50010
081111 073347 23184 INFO dfs.DataNode$DataXceiver: Receiving block blk_1426826358019418354 src: /10.251.107.242:37513 dest: /10.251.107.242:50010
081111 073347 23184 INFO dfs.DataNode$PacketResponder: PacketResponder 1 for block blk_-135303886968620495 terminating
081111 073347 23184 INFO dfs.DataNode$PacketResponder: Received block blk_-135303886968620495 of size 67108864 from /10.251.203.4
081111 073347 23185 INFO dfs.DataNode$DataXceiver: Receiving block blk_7736424380523326771 src: /10.250.15.198:43656 dest: /10.250.15.198:50010
081111 073347 23198 INFO dfs.DataNode$PacketResponder: PacketResponder 0 for block blk_-135303886968620495 terminating
081111 073347 23198 INFO dfs.DataNode$PacketResponder: Received block blk_-135303886968620495 of size 67108864 from /10.251.30.6
081111 073347 23201 INFO dfs.DataNode$DataXceiver: Receiving block blk_-7223941031085831805 src: /10.251.43.115:38431 dest: /10.251.43.115:50010
081111 073347 23208 INFO dfs.DataNode$DataXceiver: Receiving block blk_3078998199205783613 src: /10.251.31.5:40081 dest: /10.251.31.5:50010
081111 073347 23226 INFO dfs.DataNode$DataXceiver: Receiving block blk_-875877404606817760 src: /10.251.193.224:49465 dest: /10.251.193.224:50010
081111 073347 23258 INFO dfs.DataNode$PacketResponder: PacketResponder 0 for block blk_4334818095652801275 terminating
081111 073347 23258 INFO dfs.DataNode$PacketResponder: Received block blk_4334818095652801275 of size 67108864 from /10.251.123.132
081111 073347 23273 INFO dfs.DataNode$PacketResponder: PacketResponder 1 for block blk_3091804715696214205 terminating
081111 073347 23273 INFO dfs.DataNode$PacketResponder: Received block blk_3091804715696214205 of size 67108864 from /10.251.67.211
081111 073347 23274 INFO dfs.DataNode$PacketResponder: PacketResponder 2 for block blk_8061824895551920911 terminating
081111 073347 23274 INFO dfs.DataNode$PacketResponder: Received block blk_8061824895551920911 of size 67108864 from /10.251.42.207
081111 073347 23280 INFO dfs.DataNode$PacketResponder: PacketResponder 0 for block blk_229947046836809408 terminating
081111 073347 23280 INFO dfs.DataNode$PacketResponder: Received block blk_229947046836809408 of size 67108864 from /10.251.203.179
081111 073347 23289 INFO dfs.DataNode$DataXceiver: Receiving block blk_8942240224537746334 src: /10.251.42.207:34714 dest: /10.251.42.207:50010
081111 073347 23297 INFO dfs.DataNode$PacketResponder: PacketResponder 0 for block blk_-4271615488532227978 terminating
081111 073347 23297 INFO dfs.DataNode$PacketResponder: Received block blk_-4271615488532227978 of size 67108864 from /10.251.70.112
081111 073347 23305 INFO dfs.DataNode$PacketResponder: PacketResponder 2 for block blk_-4271615488532227978 terminating
081111 073347 23305 INFO dfs.DataNode$PacketResponder: Received block blk_-4271615488532227978 of size 67108864 from /10.250.5.161
081111 073347 23318 INFO dfs.DataNode$DataXceiver: Receiving block blk_9032278627621545295 src: /10.250.6.4:34378 dest: /10.250.6.4:50010
081111 073347 23328 INFO dfs.DataNode$PacketResponder: PacketResponder 1 for block blk_-7392773373242035930 terminating
081111 073347 23328 INFO dfs.DataNode$PacketResponder: Received block blk_-7392773373242035930 of size 67108864 from /10.251.110.68
081111 073347 23340 INFO dfs.DataNode$PacketResponder: PacketResponder 0 for block blk_-7392773373242035930 terminating
081111 073347 23340 INFO dfs.DataNode$PacketResponder: Received block blk_-7392773373242035930 of size 67108864 from /10.251.26.131
081111 073347 23346 INFO dfs.DataNode$PacketResponder: PacketResponder 0 for block blk_-2823578640965945004 terminating
081111 073347 23346 INFO dfs.DataNode$PacketResponder: Received block blk_-2823578640965945004 of size 67108864 from /10.251.201.204
081111 073347 23370 INFO dfs.DataNode$PacketResponder: PacketResponder 0 for block blk_-8200219794105893798 terminating
081111 073347 23370 INFO dfs.DataNode$PacketResponder: Received block blk_-8200219794105893798 of size 67108864 from /10.251.71.240
081111 073347 23373 INFO dfs.DataNode$DataXceiver: Receiving block blk_9032278627621545295 src: /10.251.67.211:34788 dest: /10.251.67.211:50010
081111 073347 23380 INFO dfs.DataNode$PacketResponder: PacketResponder 1 for block blk_1035635096267132775 terminating
081111 073347 23380 INFO dfs.DataNode$PacketResponder: Received block blk_1035635096267132775 of size 67108864 from /10.250.17.225
081111 073347 23385 INFO dfs.DataNode$PacketResponder: PacketResponder 0 for block blk_-994656219646716088 terminating
081111 073347 23385 INFO dfs.DataNode$PacketResponder: Received block blk_-994656219646716088 of size 67108864 from /10.251.123.1
081111 073347 23387 INFO dfs.DataNode$PacketResponder: PacketResponder 2 for block blk_1035635096267132775 terminating
081111 073347 23387 INFO dfs.DataNode$PacketResponder: Received block blk_1035635096267132775 of size 67108864 from /10.250.17.225
081111 073347 23396 INFO dfs.DataNode$PacketResponder: PacketResponder 1 for block blk_-4271615488532227978 terminating
081111 073347 23396 INFO dfs.DataNode$PacketResponder: Received block blk_-4271615488532227978 of size 67108864 from /10.250.5.161
081111 073347 23400 INFO dfs.DataNode$DataXceiver: Receiving block blk_3786444765018184547 src: /10.250.17.225:50009 dest: /10.250.17.225:50010
081111 073347 23407 INFO dfs.DataNode$PacketResponder: PacketResponder 2 for block blk_-7914825174300765459 terminating
081111 073347 23407 INFO dfs.DataNode$PacketResponder: Received block blk_-7914825174300765459 of size 67108864 from /10.251.43.147
081111 073347 23410 INFO dfs.DataNode$DataXceiver: Receiving block blk_3508083856000507755 src: /10.251.43.147:58370 dest: /10.251.43.147:50010
081111 073347 23413 INFO dfs.DataNode$DataXceiver: Receiving block blk_-1917987228462665000 src: /10.251.91.229:55800 dest: /10.251.91.229:50010
081111 073347 23415 INFO dfs.DataNode$PacketResponder: PacketResponder 2 for block blk_4334818095652801275 terminating
081111 073347 23415 INFO dfs.DataNode$PacketResponder: Received block blk_4334818095652801275 of size 67108864 from /10.251.215.70
081111 073347 23427 INFO dfs.DataNode$DataXceiver: Receiving block blk_-7349490781709326071 src: /10.251.215.70:55401 dest: /10.251.215.70:50010
081111 073347 23433 INFO dfs.DataNode$PacketResponder: PacketResponder 2 for block blk_1236581743236009284 terminating
081111 073347 23433 INFO dfs.DataNode$PacketResponder: Received block blk_1236581743236009284 of size 67108864 from /10.251.43.115
081111 073347 23436 INFO dfs.DataNode$DataXceiver: Receiving block blk_-7223941031085831805 src: /10.251.43.115:56210 dest: /10.251.43.115:50010
081111 073347 23436 INFO dfs.DataNode$PacketResponder: PacketResponder 0 for block blk_3091804715696214205 terminating
081111 073347 23436 INFO dfs.DataNode$PacketResponder: Received block blk_3091804715696214205 of size 67108864 from /10.251.42.191
081111 073347 23468 INFO dfs.DataNode$DataXceiver: Receiving block blk_-5806079293678796227 src: /10.250.15.198:33361 dest: /10.250.15.198:50010
081111 073347 23483 INFO dfs.DataNode$DataXceiver: Receiving block blk_8942240224537746334 src: /10.251.42.207:46053 dest: /10.251.42.207:50010
081111 073347 23484 INFO dfs.DataNode$DataXceiver: Receiving block blk_3078998199205783613 src: /10.251.74.227:50259 dest: /10.251.74.227:50010
081111 073347 23484 INFO dfs.DataNode$PacketResponder: PacketResponder 2 for block blk_-2823578640965945004 terminating
081111 073347 23484 INFO dfs.DataNode$PacketResponder: Received block blk_-2823578640965945004 of size 67108864 from /10.251.31.5
081111 073347 23489 INFO dfs.DataNode$DataXceiver: Receiving block blk_7736424380523326771 src: /10.250.15.198:46230 dest: /10.250.15.198:50010
081111 073347 23493 INFO dfs.DataNode$DataXceiver: Receiving block blk_3078998199205783613 src: /10.251.31.5:58589 dest: /10.251.31.5:50010
081111 073347 23507 INFO dfs.DataNode$PacketResponder: PacketResponder 1 for block blk_1236581743236009284 terminating
081111 073347 23507 INFO dfs.DataNode$PacketResponder: Received block blk_1236581743236009284 of size 67108864 from /10.251.43.115
081111 073347 23514 INFO dfs.DataNode$DataXceiver: Receiving block blk_-4413764282465478802 src: /10.251.74.227:40344 dest: /10.251.74.227:50010
081111 073347 23525 INFO dfs.DataNode$PacketResponder: PacketResponder 2 for block blk_3091804715696214205 terminating
081111 073347 23525 INFO dfs.DataNode$PacketResponder: Received block blk_3091804715696214205 of size 67108864 from /10.251.67.211
081111 073347 23531 INFO dfs.DataNode$DataXceiver: Receiving block blk_9032278627621545295 src: /10.251.67.211:59378 dest: /10.251.67.211:50010
081111 073347 23537 INFO dfs.DataNode$PacketResponder: PacketResponder 2 for block blk_229947046836809408 terminating
081111 073347 23537 INFO dfs.DataNode$PacketResponder: Received block blk_229947046836809408 of size 67108864 from /10.251.91.229
081111 073347 23540 INFO dfs.DataNode$PacketResponder: PacketResponder 2 for block blk_-7392773373242035930 terminating
081111 073347 23540 INFO dfs.DataNode$PacketResponder: Received block blk_-7392773373242035930 of size 67108864 from /10.251.110.68
081111 073347 23545 INFO dfs.DataNode$DataXceiver: Receiving block blk_-1917987228462665000 src: /10.251.91.229:45654 dest: /10.251.91.229:50010
081111 073347 23555 INFO dfs.DataNode$DataXceiver: Receiving block blk_-2329574939885202282 src: /10.251.110.68:53519 dest: /10.251.110.68:50010
081111 073347 23557 INFO dfs.DataNode$PacketResponder: PacketResponder 1 for block blk_-8200219794105893798 terminating
081111 073347 23557 INFO dfs.DataNode$PacketResponder: Received block blk_-8200219794105893798 of size 67108864 from /10.251.107.242
081111 073347 23561 INFO dfs.DataNode$PacketResponder: PacketResponder 0 for block blk_-9073841470350325352 terminating
081111 073347 23561 INFO dfs.DataNode$PacketResponder: Received block blk_-9073841470350325352 of size 67108864 from /10.251.106.10
081111 073347 23586 INFO dfs.DataNode$PacketResponder: PacketResponder 2 for block blk_-4417781757913884459 terminating
081111 073347 23586 INFO dfs.DataNode$PacketResponder: Received block blk_-4417781757913884459 of size 67108864 from /10.250.19.16
081111 073347 23593 INFO dfs.DataNode$DataXceiver: Receiving block blk_1732150297260923629 src: /10.250.19.16:43256 dest: /10.250.19.16:50010
081111 073347 23611 INFO dfs.DataNode$DataXceiver: Receiving block blk_-2329574939885202282 src: /10.251.110.68:47307 dest: /10.251.110.68:50010
081111 073347 23627 INFO dfs.DataNode$PacketResponder: PacketResponder 1 for block blk_-4417781757913884459 terminating
081111 073347 23627 INFO dfs.DataNode$PacketResponder: Received block blk_-4417781757913884459 of size 67108864 from /10.250.19.16
081111 073347 26 INFO dfs.FSNamesystem: BLOCK* NameSystem.addStoredBlock: blockMap updated: 10.250.15.240:50010 is added to blk_-7392773373242035930 size 67108864
081111 073347 26 INFO dfs.FSNamesystem: BLOCK* NameSystem.addStoredBlock: blockMap updated: 10.251.107.242:50010 is added to blk_-8200219794105893798 size 67108864
081111 073347 26 INFO dfs.FSNamesystem: BLOCK* NameSystem.addStoredBlock: blockMap updated: 10.251.203.4:50010 is added to blk_-135303886968620495 size 67108864
081111 073347 26 INFO dfs.FSNamesystem: BLOCK* NameSystem.addStoredBlock: blockMap updated: 10.251.66.192:50010 is added to blk_-4271615488532227978 size 67108864
081111 073347 26 INFO dfs.FSNamesystem: BLOCK* NameSystem.addStoredBlock: blockMap updated: 10.251.74.227:50010 is added to blk_-135303886968620495 size 67108864
081111 073347 26 INFO dfs.FSNamesystem: BLOCK* NameSystem.allocateBlock: /user/root/rand6/_temporary/_task_200811101024_0013_m_001402_0/part-01402. blk_1426826358019418354
081111 073347 26 INFO dfs.FSNamesystem: BLOCK* NameSystem.allocateBlock: /user/root/rand6/_temporary/_task_200811101024_0013_m_001543_0/part-01543. blk_3508083856000507755
081111 073347 27 INFO dfs.FSNamesystem: BLOCK* NameSystem.addStoredBlock: blockMap updated: 10.251.106.10:50010 is added to blk_-9073841470350325352 size 67108864
081111 073347 27 INFO dfs.FSNamesystem: BLOCK* NameSystem.addStoredBlock: blockMap updated: 10.251.43.147:50010 is added to blk_-7914825174300765459 size 67108864
081111 073347 27 INFO dfs.FSNamesystem: BLOCK* NameSystem.addStoredBlock: blockMap updated: 10.251.67.211:50010 is added to blk_3091804715696214205 size 67108864
081111 073347 27 INFO dfs.FSNamesystem: BLOCK* NameSystem.addStoredBlock: blockMap updated: 10.251.71.240:50010 is added to blk_-8200219794105893798 size 67108864
081111 073347 28 INFO dfs.FSNamesystem: BLOCK* NameSystem.addStoredBlock: blockMap updated: 10.251.110.68:50010 is added to blk_-7392773373242035930 size 67108864
081111 073347 28 INFO dfs.FSNamesystem: BLOCK* NameSystem.addStoredBlock: blockMap updated: 10.251.203.179:50010 is added to blk_229947046836809408 size 67108864
081111 073347 28 INFO dfs.FSNamesystem: BLOCK* NameSystem.addStoredBlock: blockMap updated: 10.251.70.112:50010 is added to blk_-4271615488532227978 size 67108864
081111 073347 29 INFO dfs.FSNamesystem: BLOCK* NameSystem.addStoredBlock: blockMap updated: 10.251.105.189:50010 is added to blk_3091804715696214205 size 67108864
081111 073347 29 INFO dfs.FSNamesystem: BLOCK* NameSystem.addStoredBlock: blockMap updated: 10.251.126.22:50010 is added to blk_1035635096267132775 size 67108864
081111 073347 29 INFO dfs.FSNamesystem: BLOCK* NameSystem.addStoredBlock: blockMap updated: 10.251.30.6:50010 is added to blk_-135303886968620495 size 67108864
081111 073347 29 INFO dfs.FSNamesystem: BLOCK* NameSystem.addStoredBlock: blockMap updated: 10.251.31.5:50010 is added to blk_-2823578640965945004 size 67108864
081111 073347 29 INFO dfs.FSNamesystem: BLOCK* NameSystem.addStoredBlock: blockMap updated: 10.251.90.64:50010 is added to blk_-4417781757913884459 size 67108864
081111 073347 29 INFO dfs.FSNamesystem: BLOCK* NameSystem.allocateBlock: /user/root/rand6/_temporary/_task_200811101024_0013_m_001254_0/part-01254. blk_7736424380523326771
081111 073347 29 INFO dfs.FSNamesystem: BLOCK* NameSystem.allocateBlock: /user/root/rand6/_temporary/_task_200811101024_0013_m_001434_0/part-01434. blk_9032278627621545295
081111 073347 29 INFO dfs.FSNamesystem: BLOCK* NameSystem.allocateBlock: /user/root/rand6/_temporary/_task_200811101024_0013_m_001467_0/part-01467. blk_-2329574939885202282
081111 073347 29 INFO dfs.FSNamesystem: BLOCK* NameSystem.allocateBlock: /user/root/rand6/_temporary/_task_200811101024_0013_m_001475_0/part-01475. blk_8942240224537746334
081111 073347 30 INFO dfs.FSNamesystem: BLOCK* NameSystem.addStoredBlock: blockMap updated: 10.251.43.21:50010 is added to blk_4334818095652801275 size 67108864
081111 073347 30 INFO dfs.FSNamesystem: BLOCK* NameSystem.addStoredBlock: blockMap updated: 10.251.89.155:50010 is added to blk_1236581743236009284 size 67108864
081111 073347 30 INFO dfs.FSNamesystem: BLOCK* NameSystem.addStoredBlock: blockMap updated: 10.251.90.239:50010 is added to blk_-7914825174300765459 size 67108864
081111 073347 30 INFO dfs.FSNamesystem: BLOCK* NameSystem.allocateBlock: /user/root/rand6/_temporary/_task_200811101024_0013_m_001373_0/part-01373. blk_3786444765018184547
081111 073347 30 INFO dfs.FSNamesystem: BLOCK* NameSystem.allocateBlock: /user/root/rand6/_temporary/_task_200811101024_0013_m_001396_0/part-01396. blk_6811667203151931196
081111 073347 30 INFO dfs.FSNamesystem: BLOCK* NameSystem.allocateBlock: /user/root/rand6/_temporary/_task_200811101024_0013_m_001399_0/part-01399. blk_1732150297260923629
081111 073347 30 INFO dfs.FSNamesystem: BLOCK* NameSystem.allocateBlock: /user/root/rand6/_temporary/_task_200811101024_0013_m_001400_0/part-01400. blk_-3613472297285974266
081111 073347 31 INFO dfs.FSNamesystem: BLOCK* NameSystem.addStoredBlock: blockMap updated: 10.250.19.16:50010 is added to blk_-4417781757913884459 size 67108864
081111 073347 31 INFO dfs.FSNamesystem: BLOCK* NameSystem.addStoredBlock: blockMap updated: 10.251.26.131:50010 is added to blk_-7392773373242035930 size 67108864
081111 073347 31 INFO dfs.FSNamesystem: BLOCK* NameSystem.addStoredBlock: blockMap updated: 10.251.42.191:50010 is added to blk_3091804715696214205 size 67108864
081111 073347 31 INFO dfs.FSNamesystem: BLOCK* NameSystem.addStoredBlock: blockMap updated: 10.251.91.229:50010 is added to blk_229947046836809408 size 67108864
081111 073347 32 INFO dfs.FSNamesystem: BLOCK* NameSystem.addStoredBlock: blockMap updated: 10.250.15.198:50010 is added to blk_369319234170001129 size 67108864
081111 073347 32 INFO dfs.FSNamesystem: BLOCK* NameSystem.addStoredBlock: blockMap updated: 10.250.15.198:50010 is added to blk_-6539501983137584939 size 67108864
081111 073347 32 INFO dfs.FSNamesystem: BLOCK* NameSystem.addStoredBlock: blockMap updated: 10.251.107.196:50010 is added to blk_-8200219794105893798 size 67108864
081111 073347 32 INFO dfs.FSNamesystem: BLOCK* NameSystem.addStoredBlock: blockMap updated: 10.251.123.132:50010 is added to blk_4334818095652801275 size 67108864
081111 073347 32 INFO dfs.FSNamesystem: BLOCK* NameSystem.addStoredBlock: blockMap updated: 10.251.30.101:50010 is added to blk_-4417781757913884459 size 67108864
081111 073347 32 INFO dfs.FSNamesystem: BLOCK* NameSystem.addStoredBlock: blockMap updated: 10.251.43.115:50010 is added to blk_1236581743236009284 size 67108864
081111 073347 32 INFO dfs.FSNamesystem: BLOCK* NameSystem.allocateBlock: /user/root/rand6/_temporary/_task_200811101024_0013_m_001262_0/part-01262. blk_3078998199205783613
081111 073347 33 INFO dfs.FSNamesystem: BLOCK* NameSystem.addStoredBlock: blockMap updated: 10.250.10.176:50010 is added to blk_-2823578640965945004 size 67108864
081111 073347 33 INFO dfs.FSNamesystem: BLOCK* NameSystem.addStoredBlock: blockMap updated: 10.250.5.161:50010 is added to blk_-4271615488532227978 size 67108864
081111 073347 33 INFO dfs.FSNamesystem: BLOCK* NameSystem.addStoredBlock: blockMap updated: 10.251.122.65:50010 is added to blk_229947046836809408 size 67108864
081111 073347 33 INFO dfs.FSNamesystem: BLOCK* NameSystem.allocateBlock: /user/root/rand6/_temporary/_task_200811101024_0013_m_001362_0/part-01362. blk_-7621344193401312163
081111 073347 33 INFO dfs.FSNamesystem: BLOCK* NameSystem.allocateBlock: /user/root/rand6/_temporary/_task_200811101024_0013_m_001512_0/part-01512. blk_-1917987228462665000
081111 073347 34 INFO dfs.FSNamesystem: BLOCK* NameSystem.addStoredBlock: blockMap updated: 10.250.17.225:50010 is added to blk_1035635096267132775 size 67108864
081111 073347 34 INFO dfs.FSNamesystem: BLOCK* NameSystem.addStoredBlock: blockMap updated: 10.251.126.83:50010 is added to blk_-9073841470350325352 size 67108864
081111 073347 34 INFO dfs.FSNamesystem: BLOCK* NameSystem.addStoredBlock: blockMap updated: 10.251.42.207:50010 is added to blk_8061824895551920911 size 67108864
081111 073347 34 INFO dfs.FSNamesystem: BLOCK* NameSystem.allocateBlock: /user/root/rand6/_temporary/_task_200811101024_0013_m_001282_0/part-01282. blk_-7349490781709326071
081111 073347 34 INFO dfs.FSNamesystem: BLOCK* NameSystem.allocateBlock: /user/root/rand6/_temporary/_task_200811101024_0013_m_001311_0/part-01311. blk_-7223941031085831805
081111 073347 35 INFO dfs.FSNamesystem: BLOCK* NameSystem.addStoredBlock: blockMap updated: 10.250.13.240:50010 is added to blk_-994656219646716088 size 67108864
081111 073347 35 INFO dfs.FSNamesystem: BLOCK* NameSystem.addStoredBlock: blockMap updated: 10.251.201.204:50010 is added to blk_-2823578640965945004 size 67108864
081111 073348 13 INFO dfs.DataBlockScanner: Verification succeeded for blk_5818365968152774243
081111 073348 13 INFO dfs.DataBlockScanner: Verification succeeded for blk_-583738251441510455
081111 073348 22889 INFO dfs.DataNode$PacketResponder: PacketResponder 1 for block blk_-7591902139148967397 terminating
081111 073348 22889 INFO dfs.DataNode$PacketResponder: Received block blk_-7591902139148967397 of size 67108864 from /10.251.75.49
081111 073348 22892 INFO dfs.DataNode$PacketResponder: PacketResponder 2 for block blk_-6069501184308544686 terminating
081111 073348 22892 INFO dfs.DataNode$PacketResponder: Received block blk_-6069501184308544686 of size 67108864 from /10.251.203.246
081111 073348 22949 INFO dfs.DataNode$PacketResponder: PacketResponder 2 for block blk_-994656219646716088 terminating
081111 073348 22949 INFO dfs.DataNode$PacketResponder: Received block blk_-994656219646716088 of size 67108864 from /10.251.123.195
081111 073348 22966 INFO dfs.DataNode$DataXceiver: Receiving block blk_5453010636903055897 src: /10.251.123.195:59441 dest: /10.251.123.195:50010
081111 073348 22978 INFO dfs.DataNode$PacketResponder: PacketResponder 1 for block blk_4772014422045441383 terminating
081111 073348 22978 INFO dfs.DataNode$PacketResponder: Received block blk_4772014422045441383 of size 67108864 from /10.251.106.10
081111 073348 22990 INFO dfs.DataNode$PacketResponder: PacketResponder 0 for block blk_7586499934708185153 terminating
081111 073348 22990 INFO dfs.DataNode$PacketResponder: Received block blk_7586499934708185153 of size 67108864 from /10.251.125.193
081111 073348 23043 INFO dfs.DataNode$PacketResponder: PacketResponder 0 for block blk_4772014422045441383 terminating
081111 073348 23043 INFO dfs.DataNode$PacketResponder: Received block blk_4772014422045441383 of size 67108864 from /10.251.202.134
081111 073348 23072 INFO dfs.DataNode$PacketResponder: PacketResponder 0 for block blk_6951562082943840553 terminating
081111 073348 23072 INFO dfs.DataNode$PacketResponder: Received block blk_6951562082943840553 of size 67108864 from /10.251.125.174
081111 073348 23077 INFO dfs.DataNode$DataXceiver: Receiving block blk_-2059593107720611442 src: /10.251.123.1:41130 dest: /10.251.123.1:50010
081111 073348 23124 INFO dfs.DataNode$PacketResponder: PacketResponder 0 for block blk_2929721428765056660 terminating
081111 073348 23124 INFO dfs.DataNode$PacketResponder: Received block blk_2929721428765056660 of size 67108864 from /10.251.126.227
081111 073348 23158 INFO dfs.DataNode$DataXceiver: Receiving block blk_6124634351317540997 src: /10.251.122.38:42536 dest: /10.251.122.38:50010
081111 073348 23163 INFO dfs.DataNode$PacketResponder: PacketResponder 2 for block blk_5822151298647188527 terminating
081111 073348 23163 INFO dfs.DataNode$PacketResponder: Received block blk_5822151298647188527 of size 67108864 from /10.251.73.220
081111 073348 23170 INFO dfs.DataNode$DataXceiver: Receiving block blk_-7223941031085831805 src: /10.251.125.193:43923 dest: /10.251.125.193:50010
081111 073348 23171 INFO dfs.DataNode$DataXceiver: Receiving block blk_-7621344193401312163 src: /10.251.203.4:58170 dest: /10.251.203.4:50010
081111 073348 23176 INFO dfs.DataNode$PacketResponder: PacketResponder 0 for block blk_-6069501184308544686 terminating
081111 073348 23176 INFO dfs.DataNode$PacketResponder: Received block blk_-6069501184308544686 of size 67108864 from /10.251.194.129
081111 073348 23182 INFO dfs.DataNode$PacketResponder: PacketResponder 1 for block blk_5822151298647188527 terminating
081111 073348 23182 INFO dfs.DataNode$PacketResponder: Received block blk_5822151298647188527 of size 67108864 from /10.251.73.220
081111 073348 23188 INFO dfs.DataNode$PacketResponder: PacketResponder 1 for block blk_7586499934708185153 terminating
081111 073348 23188 INFO dfs.DataNode$PacketResponder: PacketResponder 1 for block blk_-8922472617709889955 terminating
081111 073348 23188 INFO dfs.DataNode$PacketResponder: Received block blk_7586499934708185153 of size 67108864 from /10.251.90.239
081111 073348 23188 INFO dfs.DataNode$PacketResponder: Received block blk_-8922472617709889955 of size 67108864 from /10.250.11.100
081111 073348 23209 INFO dfs.DataNode$DataXceiver: Receiving block blk_8942240224537746334 src: /10.251.127.47:60432 dest: /10.251.127.47:50010
081111 073348 23234 INFO dfs.DataNode$DataXceiver: Receiving block blk_-8874773809508802767 src: /10.251.31.180:41727 dest: /10.251.31.180:50010
081111 073348 23235 INFO dfs.DataNode$DataXceiver: Receiving block blk_-7349490781709326071 src: /10.251.215.70:34964 dest: /10.251.215.70:50010
081111 073348 23248 INFO dfs.DataNode$PacketResponder: PacketResponder 2 for block blk_4193377752603356502 terminating
081111 073348 23248 INFO dfs.DataNode$PacketResponder: Received block blk_4193377752603356502 of size 67108864 from /10.251.31.180
081111 073348 23269 INFO dfs.DataNode$DataXceiver: Receiving block blk_-8874773809508802767 src: /10.251.31.180:58218 dest: /10.251.31.180:50010
081111 073348 23285 INFO dfs.DataNode$PacketResponder: PacketResponder 1 for block blk_6951562082943840553 terminating
081111 073348 23285 INFO dfs.DataNode$PacketResponder: Received block blk_6951562082943840553 of size 67108864 from /10.251.198.33
081111 073348 23288 INFO dfs.DataNode$PacketResponder: PacketResponder 2 for block blk_-9073841470350325352 terminating
081111 073348 23288 INFO dfs.DataNode$PacketResponder: Received block blk_-9073841470350325352 of size 67108864 from /10.251.110.160
081111 073348 23298 INFO dfs.DataNode$DataXceiver: Receiving block blk_-1480362198138687902 src: /10.251.110.160:60090 dest: /10.251.110.160:50010
081111 073348 23301 INFO dfs.DataNode$DataXceiver: Receiving block blk_4721974095132482567 src: /10.251.110.160:45342 dest: /10.251.110.160:50010
081111 073348 23302 INFO dfs.DataNode$DataXceiver: Receiving block blk_-1480362198138687902 src: /10.251.195.33:54238 dest: /10.251.195.33:50010
081111 073348 23302 INFO dfs.DataNode$DataXceiver: Receiving block blk_3786444765018184547 src: /10.250.17.225:46243 dest: /10.250.17.225:50010
081111 073348 23307 INFO dfs.DataNode$PacketResponder: PacketResponder 0 for block blk_1514619119789111705 terminating
081111 073348 23307 INFO dfs.DataNode$PacketResponder: Received block blk_1514619119789111705 of size 67108864 from /10.251.37.240
081111 073348 23320 INFO dfs.DataNode$DataXceiver: Receiving block blk_3786444765018184547 src: /10.251.125.174:54604 dest: /10.251.125.174:50010
081111 073348 23324 INFO dfs.DataNode$PacketResponder: PacketResponder 2 for block blk_7586499934708185153 terminating
081111 073348 23324 INFO dfs.DataNode$PacketResponder: Received block blk_7586499934708185153 of size 67108864 from /10.251.90.239
081111 073348 23326 INFO dfs.DataNode$PacketResponder: PacketResponder 1 for block blk_-2705923169046674416 terminating
081111 073348 23326 INFO dfs.DataNode$PacketResponder: Received block blk_-2705923169046674416 of size 67108864 from /10.251.123.99
081111 073348 23330 INFO dfs.DataNode$PacketResponder: PacketResponder 0 for block blk_5822151298647188527 terminating
081111 073348 23330 INFO dfs.DataNode$PacketResponder: Received block blk_5822151298647188527 of size 67108864 from /10.251.39.192
081111 073348 23337 INFO dfs.DataNode$DataXceiver: Receiving block blk_80439881340486316 src: /10.251.90.239:41286 dest: /10.251.90.239:50010
081111 073348 23340 INFO dfs.DataNode$DataXceiver: Receiving block blk_1426826358019418354 src: /10.251.67.113:43908 dest: /10.251.67.113:50010
081111 073348 23346 INFO dfs.DataNode$PacketResponder: PacketResponder 1 for block blk_4193377752603356502 terminating
081111 073348 23346 INFO dfs.DataNode$PacketResponder: Received block blk_4193377752603356502 of size 67108864 from /10.251.31.180
081111 073348 23352 INFO dfs.DataNode$PacketResponder: PacketResponder 1 for block blk_-994656219646716088 terminating
081111 073348 23352 INFO dfs.DataNode$PacketResponder: Received block blk_-994656219646716088 of size 67108864 from /10.251.123.195
081111 073348 23356 INFO dfs.DataNode$PacketResponder: PacketResponder 2 for block blk_8844045896712965415 terminating
081111 073348 23356 INFO dfs.DataNode$PacketResponder: Received block blk_8844045896712965415 of size 67108864 from /10.251.123.1
081111 073348 23358 INFO dfs.DataNode$PacketResponder: PacketResponder 1 for block blk_1899211515349226136 terminating
081111 073348 23358 INFO dfs.DataNode$PacketResponder: Received block blk_1899211515349226136 of size 67108864 from /10.251.43.210
081111 073348 23360 INFO dfs.DataNode$DataXceiver: Receiving block blk_1732150297260923629 src: /10.251.123.132:34684 dest: /10.251.123.132:50010
081111 073348 23368 INFO dfs.DataNode$PacketResponder: PacketResponder 0 for block blk_-7591902139148967397 terminating
081111 073348 23368 INFO dfs.DataNode$PacketResponder: Received block blk_-7591902139148967397 of size 67108864 from /10.251.203.80
081111 073348 23372 INFO dfs.DataNode$DataXceiver: Receiving block blk_-2059593107720611442 src: /10.251.123.1:41664 dest: /10.251.123.1:50010
081111 073348 23372 INFO dfs.DataNode$PacketResponder: PacketResponder 2 for block blk_1514619119789111705 terminating
081111 073348 23372 INFO dfs.DataNode$PacketResponder: Received block blk_1514619119789111705 of size 67108864 from /10.251.194.129
081111 073348 23374 INFO dfs.DataNode$DataXceiver: Receiving block blk_-6633365349970431485 src: /10.250.7.230:58287 dest: /10.250.7.230:50010
081111 073348 23381 INFO dfs.DataNode$PacketResponder: PacketResponder 0 for block blk_-1492132727725526879 terminating
081111 073348 23381 INFO dfs.DataNode$PacketResponder: Received block blk_-1492132727725526879 of size 67108864 from /10.251.121.224
081111 073348 23382 INFO dfs.DataNode$PacketResponder: PacketResponder 1 for block blk_-6069501184308544686 terminating
081111 073348 23382 INFO dfs.DataNode$PacketResponder: Received block blk_-6069501184308544686 of size 67108864 from /10.251.203.246
081111 073348 23383 INFO dfs.DataNode$PacketResponder: PacketResponder 0 for block blk_-8922472617709889955 terminating
081111 073348 23383 INFO dfs.DataNode$PacketResponder: Received block blk_-8922472617709889955 of size 67108864 from /10.250.10.100
081111 073348 23384 INFO dfs.DataNode$PacketResponder: PacketResponder 0 for block blk_-4881100222158420976 terminating
081111 073348 23384 INFO dfs.DataNode$PacketResponder: Received block blk_-4881100222158420976 of size 67108864 from /10.251.71.16
081111 073348 23386 INFO dfs.DataNode$PacketResponder: PacketResponder 1 for block blk_1514619119789111705 terminating
081111 073348 23386 INFO dfs.DataNode$PacketResponder: Received block blk_1514619119789111705 of size 67108864 from /10.251.194.129
081111 073348 23393 INFO dfs.DataNode$DataXceiver: Receiving block blk_6801004890950739327 src: /10.251.194.129:56946 dest: /10.251.194.129:50010
081111 073348 23406 INFO dfs.DataNode$PacketResponder: PacketResponder 1 for block blk_-4881100222158420976 terminating
081111 073348 23406 INFO dfs.DataNode$PacketResponder: Received block blk_-4881100222158420976 of size 67108864 from /10.251.195.33
081111 073348 23407 INFO dfs.DataNode$DataXceiver: Receiving block blk_4721974095132482567 src: /10.251.110.160:57211 dest: /10.251.110.160:50010
081111 073348 23412 INFO dfs.DataNode$PacketResponder: PacketResponder 2 for block blk_-8922472617709889955 terminating
081111 073348 23412 INFO dfs.DataNode$PacketResponder: Received block blk_-8922472617709889955 of size 67108864 from /10.250.11.100
081111 073348 23421 INFO dfs.DataNode$PacketResponder: PacketResponder 2 for block blk_1899211515349226136 terminating
081111 073348 23421 INFO dfs.DataNode$PacketResponder: Received block blk_1899211515349226136 of size 67108864 from /10.251.43.210
081111 073348 23446 INFO dfs.DataNode$PacketResponder: PacketResponder 2 for block blk_-7591902139148967397 terminating
081111 073348 23446 INFO dfs.DataNode$PacketResponder: Received block blk_-7591902139148967397 of size 67108864 from /10.251.75.49
081111 073348 23452 INFO dfs.DataNode$DataXceiver: Receiving block blk_2278400544520667527 src: /10.251.75.49:41197 dest: /10.251.75.49:50010
081111 073348 23463 INFO dfs.DataNode$DataXceiver: Receiving block blk_-3613472297285974266 src: /10.250.15.198:54560 dest: /10.250.15.198:50010
081111 073348 23490 INFO dfs.DataNode$DataXceiver: Receiving block blk_4721974095132482567 src: /10.251.70.112:34831 dest: /10.251.70.112:50010
081111 073348 23491 INFO dfs.DataNode$DataXceiver: Receiving block blk_3942297677224731090 src: /10.251.123.1:43808 dest: /10.251.123.1:50010
081111 073348 23509 INFO dfs.DataNode$PacketResponder: PacketResponder 0 for block blk_-2705923169046674416 terminating
081111 073348 23509 INFO dfs.DataNode$PacketResponder: Received block blk_-2705923169046674416 of size 67108864 from /10.251.71.146
081111 073348 23541 INFO dfs.DataNode$PacketResponder: PacketResponder 2 for block blk_-4881100222158420976 terminating
081111 073348 23541 INFO dfs.DataNode$PacketResponder: Received block blk_-4881100222158420976 of size 67108864 from /10.251.195.33
081111 073348 23548 INFO dfs.DataNode$DataXceiver: Receiving block blk_-1480362198138687902 src: /10.251.195.33:60403 dest: /10.251.195.33:50010
081111 073348 23584 INFO dfs.DataNode$DataXceiver: Receiving block blk_80439881340486316 src: /10.251.75.79:52353 dest: /10.251.75.79:50010
081111 073348 23586 INFO dfs.DataNode$DataXceiver: Receiving block blk_80439881340486316 src: /10.251.90.239:43669 dest: /10.251.90.239:50010
081111 073348 23589 INFO dfs.DataNode$DataXceiver: Receiving block blk_6811667203151931196 src: /10.251.197.161:32825 dest: /10.251.197.161:50010
081111 073348 23619 INFO dfs.DataNode$PacketResponder: PacketResponder 0 for block blk_1899211515349226136 terminating
081111 073348 23619 INFO dfs.DataNode$PacketResponder: Received block blk_1899211515349226136 of size 67108864 from /10.251.123.1
081111 073348 23772 INFO dfs.DataNode$PacketResponder: PacketResponder 2 for block blk_6951562082943840553 terminating
081111 073348 23772 INFO dfs.DataNode$PacketResponder: Received block blk_6951562082943840553 of size 67108864 from /10.251.198.33
081111 073348 23785 INFO dfs.DataNode$DataXceiver: Receiving block blk_3163398062214738852 src: /10.251.198.33:40643 dest: /10.251.198.33:50010
081111 073348 26 INFO dfs.FSNamesystem: BLOCK* NameSystem.addStoredBlock: blockMap updated: 10.251.43.210:50010 is added to blk_1899211515349226136 size 67108864
081111 073348 26 INFO dfs.FSNamesystem: BLOCK* NameSystem.addStoredBlock: blockMap updated: 10.251.90.239:50010 is added to blk_7586499934708185153 size 67108864
081111 073348 27 INFO dfs.FSNamesystem: BLOCK* NameSystem.addStoredBlock: blockMap updated: 10.251.123.195:50010 is added to blk_-994656219646716088 size 67108864
081111 073348 27 INFO dfs.FSNamesystem: BLOCK* NameSystem.addStoredBlock: blockMap updated: 10.251.199.159:50010 is added to blk_-2705923169046674416 size 67108864
081111 073348 27 INFO dfs.FSNamesystem: BLOCK* NameSystem.addStoredBlock: blockMap updated: 10.251.26.177:50010 is added to blk_-7591902139148967397 size 67108864
081111 073348 27 INFO dfs.FSNamesystem: BLOCK* NameSystem.addStoredBlock: blockMap updated: 10.251.71.16:50010 is added to blk_-4881100222158420976 size 67108864
081111 073348 27 INFO dfs.FSNamesystem: BLOCK* NameSystem.allocateBlock: /user/root/rand6/_temporary/_task_200811101024_0013_m_001356_0/part-01356. blk_2278400544520667527
081111 073348 28 INFO dfs.FSNamesystem: BLOCK* NameSystem.addStoredBlock: blockMap updated: 10.251.125.193:50010 is added to blk_7586499934708185153 size 67108864
081111 073348 28 INFO dfs.FSNamesystem: BLOCK* NameSystem.addStoredBlock: blockMap updated: 10.251.194.129:50010 is added to blk_-4881100222158420976 size 67108864
081111 073348 28 INFO dfs.FSNamesystem: BLOCK* NameSystem.addStoredBlock: blockMap updated: 10.251.202.134:50010 is added to blk_4772014422045441383 size 67108864
081111 073348 28 INFO dfs.FSNamesystem: BLOCK* NameSystem.addStoredBlock: blockMap updated: 10.251.203.246:50010 is added to blk_-6069501184308544686 size 67108864
081111 073348 28 INFO dfs.FSNamesystem: BLOCK* NameSystem.allocateBlock: /user/root/rand6/_temporary/_task_200811101024_0013_m_001227_0/part-01227. blk_3821757241116229714
081111 073348 29 INFO dfs.FSNamesystem: BLOCK* NameSystem.addStoredBlock: blockMap updated: 10.251.39.192:50010 is added to blk_5822151298647188527 size 67108864
081111 073348 29 INFO dfs.FSNamesystem: BLOCK* NameSystem.addStoredBlock: blockMap updated: 10.251.73.220:50010 is added to blk_5822151298647188527 size 67108864
081111 073348 29 INFO dfs.FSNamesystem: BLOCK* NameSystem.allocateBlock: /user/root/rand6/_temporary/_task_200811101024_0013_m_001301_0/part-01301. blk_6801004890950739327
081111 073348 29 INFO dfs.FSNamesystem: BLOCK* NameSystem.allocateBlock: /user/root/rand6/_temporary/_task_200811101024_0013_m_001513_0/part-01513. blk_3422689506393498378
081111 073348 30 INFO dfs.FSNamesystem: BLOCK* NameSystem.addStoredBlock: blockMap updated: 10.251.125.174:50010 is added to blk_6951562082943840553 size 67108864
081111 073348 30 INFO dfs.FSNamesystem: BLOCK* NameSystem.addStoredBlock: blockMap updated: 10.251.197.161:50010 is added to blk_6951562082943840553 size 67108864
081111 073348 30 INFO dfs.FSNamesystem: BLOCK* NameSystem.addStoredBlock: blockMap updated: 10.251.198.33:50010 is added to blk_6951562082943840553 size 67108864
081111 073348 30 INFO dfs.FSNamesystem: BLOCK* NameSystem.addStoredBlock: blockMap updated: 10.251.202.134:50010 is added to blk_7586499934708185153 size 67108864
081111 073348 30 INFO dfs.FSNamesystem: BLOCK* NameSystem.addStoredBlock: blockMap updated: 10.251.71.146:50010 is added to blk_-2705923169046674416 size 67108864
081111 073348 30 INFO dfs.FSNamesystem: BLOCK* NameSystem.allocateBlock: /user/root/rand6/_temporary/_task_200811101024_0013_m_001169_0/part-01169. blk_-2059593107720611442
081111 073348 30 INFO dfs.FSNamesystem: BLOCK* NameSystem.allocateBlock: /user/root/rand6/_temporary/_task_200811101024_0013_m_001287_0/part-01287. blk_-1480362198138687902
081111 073348 30 INFO dfs.FSNamesystem: BLOCK* NameSystem.allocateBlock: /user/root/rand6/_temporary/_task_200811101024_0013_m_001541_0/part-01541. blk_-8874773809508802767
081111 073348 31 INFO dfs.FSNamesystem: BLOCK* NameSystem.addStoredBlock: blockMap updated: 10.251.194.129:50010 is added to blk_-6069501184308544686 size 67108864
081111 073348 31 INFO dfs.FSNamesystem: BLOCK* NameSystem.addStoredBlock: blockMap updated: 10.251.215.70:50010 is added to blk_4334818095652801275 size 67108864
081111 073348 31 INFO dfs.FSNamesystem: BLOCK* NameSystem.addStoredBlock: blockMap updated: 10.251.25.237:50010 is added to blk_4772014422045441383 size 67108864
081111 073348 31 INFO dfs.FSNamesystem: BLOCK* NameSystem.addStoredBlock: blockMap updated: 10.251.42.246:50010 is added to blk_-8922472617709889955 size 67108864
081111 073348 31 INFO dfs.FSNamesystem: BLOCK* NameSystem.allocateBlock: /user/root/rand6/_temporary/_task_200811101024_0013_m_001368_0/part-01368. blk_80439881340486316
081111 073348 31 INFO dfs.FSNamesystem: BLOCK* NameSystem.allocateBlock: /user/root/rand6/_temporary/_task_200811101024_0013_m_001371_0/part-01371. blk_3163398062214738852
081111 073348 32 INFO dfs.FSNamesystem: BLOCK* NameSystem.addStoredBlock: blockMap updated: 10.251.110.160:50010 is added to blk_-9073841470350325352 size 67108864
081111 073348 32 INFO dfs.FSNamesystem: BLOCK* NameSystem.addStoredBlock: blockMap updated: 10.251.123.1:50010 is added to blk_1899211515349226136 size 67108864
081111 073348 32 INFO dfs.FSNamesystem: BLOCK* NameSystem.addStoredBlock: blockMap updated: 10.251.123.1:50010 is added to blk_4193377752603356502 size 67108864
081111 073348 32 INFO dfs.FSNamesystem: BLOCK* NameSystem.addStoredBlock: blockMap updated: 10.251.123.1:50010 is added to blk_-994656219646716088 size 67108864
081111 073348 32 INFO dfs.FSNamesystem: BLOCK* NameSystem.addStoredBlock: blockMap updated: 10.251.194.129:50010 is added to blk_1514619119789111705 size 67108864
081111 073348 32 INFO dfs.FSNamesystem: BLOCK* NameSystem.allocateBlock: /user/root/rand6/_temporary/_task_200811101024_0013_m_001149_0/part-01149. blk_5453010636903055897
081111 073348 33 INFO dfs.FSNamesystem: BLOCK* NameSystem.addStoredBlock: blockMap updated: 10.250.7.146:50010 is added to blk_-6069501184308544686 size 67108864
081111 073348 33 INFO dfs.FSNamesystem: BLOCK* NameSystem.addStoredBlock: blockMap updated: 10.251.110.8:50010 is added to blk_-1492132727725526879 size 67108864
081111 073348 33 INFO dfs.FSNamesystem: BLOCK* NameSystem.addStoredBlock: blockMap updated: 10.251.111.130:50010 is added to blk_1514619119789111705 size 67108864
081111 073348 33 INFO dfs.FSNamesystem: BLOCK* NameSystem.addStoredBlock: blockMap updated: 10.251.30.101:50010 is added to blk_1899211515349226136 size 67108864
081111 073348 33 INFO dfs.FSNamesystem: BLOCK* NameSystem.addStoredBlock: blockMap updated: 10.251.37.240:50010 is added to blk_1514619119789111705 size 67108864
081111 073348 34 INFO dfs.FSNamesystem: BLOCK* NameSystem.addStoredBlock: blockMap updated: 10.250.10.100:50010 is added to blk_-8922472617709889955 size 67108864
081111 073348 34 INFO dfs.FSNamesystem: BLOCK* NameSystem.addStoredBlock: blockMap updated: 10.251.123.1:50010 is added to blk_8844045896712965415 size 67108864
081111 073348 34 INFO dfs.FSNamesystem: BLOCK* NameSystem.addStoredBlock: blockMap updated: 10.251.31.180:50010 is added to blk_4193377752603356502 size 67108864
081111 073348 34 INFO dfs.FSNamesystem: BLOCK* NameSystem.allocateBlock: /user/root/rand6/_temporary/_task_200811101024_0013_m_001479_0/part-01479. blk_4721974095132482567
081111 073348 34 INFO dfs.FSNamesystem: BLOCK* NameSystem.allocateBlock: /user/root/rand6/_temporary/_task_200811101024_0013_m_001539_0/part-01539. blk_-2624002656176133679
081111 073348 35 INFO dfs.FSNamesystem: BLOCK* NameSystem.addStoredBlock: blockMap updated: 10.251.195.33:50010 is added to blk_-4881100222158420976 size 67108864
081111 073348 35 INFO dfs.FSNamesystem: BLOCK* NameSystem.addStoredBlock: blockMap updated: 10.251.203.80:50010 is added to blk_-7591902139148967397 size 67108864
081111 073348 35 INFO dfs.FSNamesystem: BLOCK* NameSystem.addStoredBlock: blockMap updated: 10.251.214.32:50010 is added to blk_2929721428765056660 size 67108864
081111 073348 35 INFO dfs.FSNamesystem: BLOCK* NameSystem.allocateBlock: /user/root/rand6/_temporary/_task_200811101024_0013_m_001234_0/part-01234. blk_5368765422106516951
081111 073349 22092 INFO dfs.DataNode$PacketResponder: PacketResponder 2 for block blk_4772014422045441383 terminating
081111 073349 22092 INFO dfs.DataNode$PacketResponder: Received block blk_4772014422045441383 of size 67108864 from /10.251.106.10
081111 073349 22115 INFO dfs.DataNode$DataXceiver: Receiving block blk_1597253790552482904 src: /10.251.106.10:35376 dest: /10.251.106.10:50010
081111 073349 22872 INFO dfs.DataNode$DataXceiver: Receiving block blk_1263783620298446438 src: /10.251.31.242:38549 dest: /10.251.31.242:50010
081111 073349 22911 INFO dfs.DataNode$DataXceiver: Receiving block blk_3422689506393498378 src: /10.251.203.246:40240 dest: /10.251.203.246:50010
081111 073349 22957 INFO dfs.DataNode$DataXceiver: Receiving block blk_5368765422106516951 src: /10.251.91.15:53799 dest: /10.251.91.15:50010
081111 073349 23059 INFO dfs.DataNode$DataXceiver: Receiving block blk_-5646635583325687285 src: /10.251.90.239:35909 dest: /10.251.90.239:50010
081111 073349 23080 INFO dfs.DataNode$DataXceiver: Receiving block blk_3163398062214738852 src: /10.251.195.52:44152 dest: /10.251.195.52:50010
081111 073349 23089 INFO dfs.DataNode$DataXceiver: Receiving block blk_2278400544520667527 src: /10.251.75.49:42422 dest: /10.251.75.49:50010
081111 073349 23092 INFO dfs.DataNode$PacketResponder: PacketResponder 2 for block blk_-3139155926828129880 terminating
081111 073349 23092 INFO dfs.DataNode$PacketResponder: Received block blk_-3139155926828129880 of size 67108864 from /10.251.109.236
081111 073349 23099 INFO dfs.DataNode$DataXceiver: Receiving block blk_-8417099687001326149 src: /10.251.109.236:55883 dest: /10.251.109.236:50010
081111 073349 23125 INFO dfs.DataNode$DataXceiver: Receiving block blk_5453010636903055897 src: /10.251.39.64:37338 dest: /10.251.39.64:50010
081111 073349 23133 INFO dfs.DataNode$DataXceiver: Receiving block blk_-7349490781709326071 src: /10.251.65.203:48014 dest: /10.251.65.203:50010
081111 073349 23148 INFO dfs.DataNode$PacketResponder: PacketResponder 2 for block blk_-2705923169046674416 terminating
081111 073349 23148 INFO dfs.DataNode$PacketResponder: Received block blk_-2705923169046674416 of size 67108864 from /10.251.123.99
081111 073349 23151 INFO dfs.DataNode$DataXceiver: Receiving block blk_-6765881690028395407 src: /10.250.17.177:57758 dest: /10.250.17.177:50010
081111 073349 23152 INFO dfs.DataNode$PacketResponder: PacketResponder 1 for block blk_-4289412113863778231 terminating
081111 073349 23152 INFO dfs.DataNode$PacketResponder: Received block blk_-4289412113863778231 of size 67108864 from /10.251.90.239
081111 073349 23159 INFO dfs.DataNode$DataXceiver: Receiving block blk_-6765881690028395407 src: /10.251.123.99:33957 dest: /10.251.123.99:50010
081111 073349 23160 INFO dfs.DataNode$DataXceiver: Receiving block blk_3738735615794309864 src: /10.251.71.193:44789 dest: /10.251.71.193:50010
081111 073349 23173 INFO dfs.DataNode$DataXceiver: Receiving block blk_5368765422106516951 src: /10.251.73.220:42881 dest: /10.251.73.220:50010
081111 073349 23173 INFO dfs.DataNode$DataXceiver: Receiving block blk_6801004890950739327 src: /10.251.71.146:44373 dest: /10.251.71.146:50010
081111 073349 23173 INFO dfs.DataNode$PacketResponder: PacketResponder 0 for block blk_3167285466629482309 terminating
081111 073349 23173 INFO dfs.DataNode$PacketResponder: Received block blk_3167285466629482309 of size 67108864 from /10.251.91.15
081111 073349 23174 INFO dfs.DataNode$DataXceiver: Receiving block blk_-992676117920399088 src: /10.250.13.188:54258 dest: /10.250.13.188:50010
081111 073349 23182 INFO dfs.DataNode$PacketResponder: PacketResponder 0 for block blk_-3139155926828129880 terminating
081111 073349 23182 INFO dfs.DataNode$PacketResponder: Received block blk_-3139155926828129880 of size 67108864 from /10.251.199.86
081111 073349 23183 INFO dfs.DataNode$DataXceiver: Receiving block blk_-8874773809508802767 src: /10.250.6.214:41226 dest: /10.250.6.214:50010
081111 073349 23192 INFO dfs.DataNode$PacketResponder: PacketResponder 2 for block blk_-6869086952007352718 terminating
081111 073349 23192 INFO dfs.DataNode$PacketResponder: Received block blk_-6869086952007352718 of size 67108864 from /10.250.10.100
081111 073349 23195 INFO dfs.DataNode$DataXceiver: Receiving block blk_-8723292628885464832 src: /10.250.10.100:43910 dest: /10.250.10.100:50010
081111 073349 23204 INFO dfs.DataNode$PacketResponder: PacketResponder 2 for block blk_3749066773485604684 terminating
081111 073349 23204 INFO dfs.DataNode$PacketResponder: Received block blk_3749066773485604684 of size 67108864 from /10.251.73.188
081111 073349 23211 INFO dfs.DataNode$DataXceiver: Receiving block blk_-8723292628885464832 src: /10.250.10.100:45570 dest: /10.250.10.100:50010
081111 073349 23214 INFO dfs.DataNode$PacketResponder: PacketResponder 1 for block blk_-6869086952007352718 terminating
081111 073349 23214 INFO dfs.DataNode$PacketResponder: Received block blk_-6869086952007352718 of size 67108864 from /10.250.10.100
081111 073349 23219 INFO dfs.DataNode$DataXceiver: Receiving block blk_-647836350719601742 src: /10.251.73.188:47128 dest: /10.251.73.188:50010
081111 073349 23224 INFO dfs.DataNode$PacketResponder: PacketResponder 0 for block blk_-3284935587180892260 terminating
081111 073349 23224 INFO dfs.DataNode$PacketResponder: Received block blk_-3284935587180892260 of size 67108864 from /10.251.75.49
081111 073349 23225 INFO dfs.DataNode$DataXceiver: Receiving block blk_3163398062214738852 src: /10.251.198.33:33954 dest: /10.251.198.33:50010
081111 073349 23235 INFO dfs.DataNode$DataXceiver: Receiving block blk_3422689506393498378 src: /10.250.11.100:60499 dest: /10.250.11.100:50010
081111 073349 23245 INFO dfs.DataNode$DataXceiver: Receiving block blk_5453010636903055897 src: /10.251.123.195:55199 dest: /10.251.123.195:50010
081111 073349 23246 INFO dfs.DataNode$DataXceiver: Receiving block blk_-6765881690028395407 src: /10.251.123.99:42126 dest: /10.251.123.99:50010
081111 073349 23288 INFO dfs.DataNode$PacketResponder: PacketResponder 0 for block blk_-1552883776484608594 terminating
081111 073349 23288 INFO dfs.DataNode$PacketResponder: Received block blk_-1552883776484608594 of size 67108864 from /10.251.193.224
081111 073349 23291 INFO dfs.DataNode$DataXceiver: Receiving block blk_-7621344193401312163 src: /10.251.73.220:38123 dest: /10.251.73.220:50010
081111 073349 23306 INFO dfs.DataNode$DataXceiver: Receiving block blk_-5646635583325687285 src: /10.251.198.196:33933 dest: /10.251.198.196:50010
081111 073349 23312 INFO dfs.DataNode$DataXceiver: Receiving block blk_3821757241116229714 src: /10.250.5.161:40113 dest: /10.250.5.161:50010
081111 073349 23333 INFO dfs.DataNode$DataXceiver: Receiving block blk_6801004890950739327 src: /10.251.194.129:48704 dest: /10.251.194.129:50010
081111 073349 23334 INFO dfs.DataNode$PacketResponder: PacketResponder 2 for block blk_-4289412113863778231 terminating
081111 073349 23334 INFO dfs.DataNode$PacketResponder: Received block blk_-4289412113863778231 of size 67108864 from /10.251.90.239
081111 073349 23337 INFO dfs.DataNode$DataXceiver: Receiving block blk_-992676117920399088 src: /10.250.11.100:33695 dest: /10.250.11.100:50010
081111 073349 23339 INFO dfs.DataNode$DataXceiver: Receiving block blk_-5646635583325687285 src: /10.251.90.239:41288 dest: /10.251.90.239:50010
081111 073349 23342 INFO dfs.DataNode$PacketResponder: PacketResponder 0 for block blk_7585382560435126380 terminating
081111 073349 23342 INFO dfs.DataNode$PacketResponder: Received block blk_7585382560435126380 of size 67108864 from /10.250.7.244
081111 073349 23343 INFO dfs.DataNode$PacketResponder: PacketResponder 1 for block blk_-9127581185513968069 terminating
081111 073349 23343 INFO dfs.DataNode$PacketResponder: Received block blk_-9127581185513968069 of size 67108864 from /10.250.5.237
081111 073349 23378 INFO dfs.DataNode$PacketResponder: PacketResponder 0 for block blk_-4340999966377146426 terminating
081111 073349 23378 INFO dfs.DataNode$PacketResponder: Received block blk_-4340999966377146426 of size 67108864 from /10.251.66.3
081111 073349 23391 INFO dfs.DataNode$PacketResponder: PacketResponder 0 for block blk_-9195924432127172467 terminating
081111 073349 23391 INFO dfs.DataNode$PacketResponder: Received block blk_-9195924432127172467 of size 67108864 from /10.251.26.8
081111 073349 23407 INFO dfs.DataNode$DataXceiver: Receiving block blk_6124634351317540997 src: /10.251.71.68:37007 dest: /10.251.71.68:50010
081111 073349 23421 INFO dfs.DataNode$PacketResponder: PacketResponder 1 for block blk_-1994108934645707856 terminating
081111 073349 23421 INFO dfs.DataNode$PacketResponder: Received block blk_-1994108934645707856 of size 67108864 from /10.251.31.242
081111 073349 23425 INFO dfs.DataNode$DataXceiver: Receiving block blk_3422689506393498378 src: /10.251.203.246:58712 dest: /10.251.203.246:50010
081111 073349 23426 INFO dfs.DataNode$DataXceiver: Receiving block blk_-992676117920399088 src: /10.250.11.100:39948 dest: /10.250.11.100:50010
081111 073349 23432 INFO dfs.DataNode$DataXceiver: Receiving block blk_-2624002656176133679 src: /10.251.43.210:48296 dest: /10.251.43.210:50010
081111 073349 23436 INFO dfs.DataNode$DataXceiver: Receiving block blk_4692809614617742408 src: /10.251.39.242:44475 dest: /10.251.39.242:50010
081111 073349 23443 INFO dfs.DataNode$DataXceiver: Receiving block blk_1597253790552482904 src: /10.251.106.10:35104 dest: /10.251.106.10:50010
081111 073349 23444 INFO dfs.DataNode$PacketResponder: PacketResponder 0 for block blk_3749066773485604684 terminating
081111 073349 23444 INFO dfs.DataNode$PacketResponder: Received block blk_3749066773485604684 of size 67108864 from /10.251.27.63
081111 073349 23448 INFO dfs.DataNode$PacketResponder: PacketResponder 1 for block blk_-3284935587180892260 terminating
081111 073349 23448 INFO dfs.DataNode$PacketResponder: Received block blk_-3284935587180892260 of size 67108864 from /10.250.6.191
081111 073349 23455 INFO dfs.DataNode$PacketResponder: PacketResponder 1 for block blk_3167285466629482309 terminating
081111 073349 23455 INFO dfs.DataNode$PacketResponder: Received block blk_3167285466629482309 of size 67108864 from /10.251.202.134
081111 073349 23465 INFO dfs.DataNode$DataXceiver: Receiving block blk_-2624002656176133679 src: /10.251.43.210:57539 dest: /10.251.43.210:50010
081111 073349 23466 INFO dfs.DataNode$PacketResponder: PacketResponder 0 for block blk_-6869086952007352718 terminating
081111 073349 23466 INFO dfs.DataNode$PacketResponder: Received block blk_-6869086952007352718 of size 67108864 from /10.251.73.188
081111 073349 23470 INFO dfs.DataNode$DataXceiver: Receiving block blk_5368765422106516951 src: /10.251.73.220:38639 dest: /10.251.73.220:50010
081111 073349 23493 INFO dfs.DataNode$PacketResponder: PacketResponder 2 for block blk_-1994108934645707856 terminating
081111 073349 23493 INFO dfs.DataNode$PacketResponder: Received block blk_-1994108934645707856 of size 67108864 from /10.251.31.242
081111 073349 23495 INFO dfs.DataNode$DataXceiver: Receiving block blk_-2059593107720611442 src: /10.250.14.224:54305 dest: /10.250.14.224:50010
081111 073349 23495 INFO dfs.DataNode$PacketResponder: PacketResponder 2 for block blk_-9127581185513968069 terminating
081111 073349 23495 INFO dfs.DataNode$PacketResponder: Received block blk_-9127581185513968069 of size 67108864 from /10.250.5.237
081111 073349 23496 INFO dfs.DataNode$PacketResponder: PacketResponder 0 for block blk_5344768329805568945 terminating
081111 073349 23496 INFO dfs.DataNode$PacketResponder: Received block blk_5344768329805568945 of size 67108864 from /10.251.91.159
081111 073349 23505 INFO dfs.DataNode$DataXceiver: Receiving block blk_1263783620298446438 src: /10.251.31.242:50036 dest: /10.251.31.242:50010
081111 073349 23508 INFO dfs.DataNode$DataXceiver: Receiving block blk_3916933369774116169 src: /10.250.5.237:54272 dest: /10.250.5.237:50010
081111 073349 23528 INFO dfs.DataNode$PacketResponder: PacketResponder 0 for block blk_-1994108934645707856 terminating
081111 073349 23528 INFO dfs.DataNode$PacketResponder: Received block blk_-1994108934645707856 of size 67108864 from /10.251.66.102
081111 073349 23532 INFO dfs.DataNode$PacketResponder: PacketResponder 0 for block blk_-4289412113863778231 terminating
081111 073349 23532 INFO dfs.DataNode$PacketResponder: Received block blk_-4289412113863778231 of size 67108864 from /10.251.123.99
081111 073349 23534 INFO dfs.DataNode$DataXceiver: Receiving block blk_-8723292628885464832 src: /10.251.30.134:54254 dest: /10.251.30.134:50010
081111 073349 23597 INFO dfs.DataNode$PacketResponder: PacketResponder 1 for block blk_-3139155926828129880 terminating
081111 073349 23597 INFO dfs.DataNode$PacketResponder: Received block blk_-3139155926828129880 of size 67108864 from /10.251.109.236
081111 073349 23600 INFO dfs.DataNode$DataXceiver: Receiving block blk_-2624002656176133679 src: /10.251.31.85:60954 dest: /10.251.31.85:50010
081111 073349 23616 INFO dfs.DataNode$DataXceiver: Receiving block blk_3738735615794309864 src: /10.250.11.194:41864 dest: /10.250.11.194:50010
081111 073349 23707 INFO dfs.DataNode$PacketResponder: PacketResponder 1 for block blk_3749066773485604684 terminating
081111 073349 23707 INFO dfs.DataNode$PacketResponder: Received block blk_3749066773485604684 of size 67108864 from /10.251.73.188
081111 073349 23715 INFO dfs.DataNode$PacketResponder: PacketResponder 2 for block blk_-3284935587180892260 terminating
081111 073349 23715 INFO dfs.DataNode$PacketResponder: Received block blk_-3284935587180892260 of size 67108864 from /10.250.6.191
081111 073349 26 INFO dfs.FSNamesystem: BLOCK* NameSystem.addStoredBlock: blockMap updated: 10.251.123.99:50010 is added to blk_-2705923169046674416 size 67108864
081111 073349 26 INFO dfs.FSNamesystem: BLOCK* NameSystem.addStoredBlock: blockMap updated: 10.251.123.99:50010 is added to blk_-4289412113863778231 size 67108864
081111 073349 26 INFO dfs.FSNamesystem: BLOCK* NameSystem.addStoredBlock: blockMap updated: 10.251.27.63:50010 is added to blk_3749066773485604684 size 67108864
081111 073349 26 INFO dfs.FSNamesystem: BLOCK* NameSystem.allocateBlock: /user/root/rand6/_temporary/_task_200811101024_0013_m_001378_0/part-01378. blk_1597253790552482904
081111 073349 27 INFO dfs.FSNamesystem: BLOCK* NameSystem.addStoredBlock: blockMap updated: 10.250.6.223:50010 is added to blk_3749066773485604684 size 67108864
081111 073349 27 INFO dfs.FSNamesystem: BLOCK* NameSystem.addStoredBlock: blockMap updated: 10.251.111.228:50010 is added to blk_-1994108934645707856 size 67108864
081111 073349 27 INFO dfs.FSNamesystem: BLOCK* NameSystem.addStoredBlock: blockMap updated: 10.251.126.22:50010 is added to blk_-4340999966377146426 size 67108864
081111 073349 27 INFO dfs.FSNamesystem: BLOCK* NameSystem.addStoredBlock: blockMap updated: 10.251.35.1:50010 is added to blk_-3139155926828129880 size 67108864
081111 073349 27 INFO dfs.FSNamesystem: BLOCK* NameSystem.allocateBlock: /user/root/rand6/_temporary/_task_200811101024_0013_m_001242_0/part-01242. blk_-647836350719601742
081111 073349 27 INFO dfs.FSNamesystem: BLOCK* NameSystem.allocateBlock: /user/root/rand6/_temporary/_task_200811101024_0013_m_001283_0/part-01283. blk_3916933369774116169
081111 073349 28 INFO dfs.FSNamesystem: BLOCK* NameSystem.addStoredBlock: blockMap updated: 10.251.111.228:50010 is added to blk_-4289412113863778231 size 67108864
081111 073349 28 INFO dfs.FSNamesystem: BLOCK* NameSystem.addStoredBlock: blockMap updated: 10.251.31.242:50010 is added to blk_5344768329805568945 size 67108864
081111 073349 28 INFO dfs.FSNamesystem: BLOCK* NameSystem.addStoredBlock: blockMap updated: 10.251.73.188:50010 is added to blk_3749066773485604684 size 67108864
081111 073349 28 INFO dfs.FSNamesystem: BLOCK* NameSystem.addStoredBlock: blockMap updated: 10.251.74.192:50010 is added to blk_-3284935587180892260 size 67108864
081111 073349 28 INFO dfs.FSNamesystem: BLOCK* NameSystem.addStoredBlock: blockMap updated: 10.251.75.49:50010 is added to blk_-7591902139148967397 size 67108864
081111 073349 28 INFO dfs.FSNamesystem: BLOCK* NameSystem.addStoredBlock: blockMap updated: 10.251.90.239:50010 is added to blk_-4289412113863778231 size 67108864
081111 073349 29 INFO dfs.FSNamesystem: BLOCK* NameSystem.addStoredBlock: blockMap updated: 10.250.11.100:50010 is added to blk_-8922472617709889955 size 67108864
081111 073349 29 INFO dfs.FSNamesystem: BLOCK* NameSystem.addStoredBlock: blockMap updated: 10.251.75.49:50010 is added to blk_-3284935587180892260 size 67108864
081111 073349 29 INFO dfs.FSNamesystem: BLOCK* NameSystem.allocateBlock: /user/root/rand6/_temporary/_task_200811101024_0013_m_001410_0/part-01410. blk_-8417099687001326149
081111 073349 30 INFO dfs.FSNamesystem: BLOCK* NameSystem.addStoredBlock: blockMap updated: 10.250.10.6:50010 is added to blk_-9127581185513968069 size 67108864
081111 073349 30 INFO dfs.FSNamesystem: BLOCK* NameSystem.addStoredBlock: blockMap updated: 10.251.31.242:50010 is added to blk_-1994108934645707856 size 67108864
081111 073349 30 INFO dfs.FSNamesystem: BLOCK* NameSystem.addStoredBlock: blockMap updated: 10.251.73.188:50010 is added to blk_-6869086952007352718 size 67108864
081111 073349 30 INFO dfs.FSNamesystem: BLOCK* NameSystem.allocateBlock: /user/root/rand6/_temporary/_task_200811101024_0013_m_001183_0/part-01183. blk_-8723292628885464832
081111 073349 30 INFO dfs.FSNamesystem: BLOCK* NameSystem.allocateBlock: /user/root/rand6/_temporary/_task_200811101024_0013_m_001310_0/part-01310. blk_-992676117920399088
081111 073349 31 INFO dfs.FSNamesystem: BLOCK* NameSystem.allocateBlock: /user/root/rand6/_temporary/_task_200811101024_0013_m_001484_0/part-01484. blk_-6765881690028395407
081111 073349 32 INFO dfs.FSNamesystem: BLOCK* NameSystem.addStoredBlock: blockMap updated: 10.251.199.245:50010 is added to blk_-6869086952007352718 size 67108864
081111 073349 32 INFO dfs.FSNamesystem: BLOCK* NameSystem.addStoredBlock: blockMap updated: 10.251.199.86:50010 is added to blk_-3139155926828129880 size 67108864
081111 073349 32 INFO dfs.FSNamesystem: BLOCK* NameSystem.addStoredBlock: blockMap updated: 10.251.66.102:50010 is added to blk_-1994108934645707856 size 67108864
081111 073349 32 INFO dfs.FSNamesystem: BLOCK* NameSystem.allocateBlock: /user/root/rand6/_temporary/_task_200811101024_0013_m_001295_0/part-01295. blk_-5646635583325687285
081111 073349 34 INFO dfs.FSNamesystem: BLOCK* NameSystem.addStoredBlock: blockMap updated: 10.250.10.100:50010 is added to blk_-6869086952007352718 size 67108864
081111 073349 34 INFO dfs.FSNamesystem: BLOCK* NameSystem.addStoredBlock: blockMap updated: 10.250.5.237:50010 is added to blk_-9127581185513968069 size 67108864
081111 073349 34 INFO dfs.FSNamesystem: BLOCK* NameSystem.addStoredBlock: blockMap updated: 10.251.91.15:50010 is added to blk_3167285466629482309 size 67108864
081111 073349 34 INFO dfs.FSNamesystem: BLOCK* NameSystem.allocateBlock: /user/root/rand6/_temporary/_task_200811101024_0013_m_001296_0/part-01296. blk_1263783620298446438
081111 073349 35 INFO dfs.FSNamesystem: BLOCK* NameSystem.addStoredBlock: blockMap updated: 10.250.10.176:50010 is added to blk_7585382560435126380 size 67108864
081111 073349 35 INFO dfs.FSNamesystem: BLOCK* NameSystem.addStoredBlock: blockMap updated: 10.250.14.38:50010 is added to blk_5822151298647188527 size 67108864
081111 073349 35 INFO dfs.FSNamesystem: BLOCK* NameSystem.addStoredBlock: blockMap updated: 10.251.106.10:50010 is added to blk_4772014422045441383 size 67108864
081111 073349 35 INFO dfs.FSNamesystem: BLOCK* NameSystem.addStoredBlock: blockMap updated: 10.251.109.236:50010 is added to blk_-3139155926828129880 size 67108864
081111 073349 35 INFO dfs.FSNamesystem: BLOCK* NameSystem.addStoredBlock: blockMap updated: 10.251.125.237:50010 is added to blk_-1552883776484608594 size 67108864
081111 073349 35 INFO dfs.FSNamesystem: BLOCK* NameSystem.addStoredBlock: blockMap updated: 10.251.90.134:50010 is added to blk_3167285466629482309 size 67108864
081111 073349 8566 INFO dfs.DataNode$DataXceiver: Receiving block blk_1597253790552482904 src: /10.251.105.189:59007 dest: /10.251.105.189:50010
081111 073350 17846 INFO dfs.DataNode$PacketResponder: PacketResponder 1 for block blk_2433738520762731828 terminating
081111 073350 17846 INFO dfs.DataNode$PacketResponder: Received block blk_2433738520762731828 of size 67108864 from /10.251.199.150
081111 073350 22839 INFO dfs.DataNode$PacketResponder: PacketResponder 2 for block blk_7065737017623612531 terminating
081111 073350 22839 INFO dfs.DataNode$PacketResponder: Received block blk_7065737017623612531 of size 67108864 from /10.251.203.129
081111 073350 22850 INFO dfs.DataNode$DataXceiver: Receiving block blk_-520194219828663887 src: /10.251.203.129:54350 dest: /10.251.203.129:50010
081111 073350 22887 INFO dfs.DataNode$PacketResponder: PacketResponder 0 for block blk_7065737017623612531 terminating
081111 073350 22887 INFO dfs.DataNode$PacketResponder: Received block blk_7065737017623612531 of size 67108864 from /10.251.73.188
081111 073350 22967 INFO dfs.DataNode$PacketResponder: PacketResponder 2 for block blk_5453010636903055897 terminating
081111 073350 22967 INFO dfs.DataNode$PacketResponder: Received block blk_5453010636903055897 of size 3554579 from /10.251.123.195
081111 073350 23000 INFO dfs.DataNode$PacketResponder: PacketResponder 2 for block blk_3167285466629482309 terminating
081111 073350 23000 INFO dfs.DataNode$PacketResponder: Received block blk_3167285466629482309 of size 67108864 from /10.251.202.134
081111 073350 23057 INFO dfs.DataNode$PacketResponder: PacketResponder 1 for block blk_-7983188047944001337 terminating
081111 073350 23057 INFO dfs.DataNode$PacketResponder: Received block blk_-7983188047944001337 of size 67108864 from /10.251.110.8
081111 073350 23074 INFO dfs.DataNode$PacketResponder: PacketResponder 1 for block blk_4641147544753118391 terminating
081111 073350 23074 INFO dfs.DataNode$PacketResponder: Received block blk_4641147544753118391 of size 67108864 from /10.250.13.240
081111 073350 23110 INFO dfs.DataNode$PacketResponder: PacketResponder 0 for block blk_2433738520762731828 terminating
081111 073350 23110 INFO dfs.DataNode$PacketResponder: Received block blk_2433738520762731828 of size 67108864 from /10.251.123.33
081111 073350 23128 INFO dfs.DataNode$PacketResponder: PacketResponder 0 for block blk_5453010636903055897 terminating
081111 073350 23128 INFO dfs.DataNode$PacketResponder: Received block blk_5453010636903055897 of size 3554579 from /10.251.39.64
081111 073350 23180 INFO dfs.DataNode$PacketResponder: PacketResponder 2 for block blk_5344768329805568945 terminating
081111 073350 23180 INFO dfs.DataNode$PacketResponder: Received block blk_5344768329805568945 of size 67108864 from /10.251.35.1
081111 073350 23187 INFO dfs.DataNode$DataXceiver: Receiving block blk_3508083856000507755 src: /10.251.43.147:50139 dest: /10.251.43.147:50010
081111 073350 23188 INFO dfs.DataNode$DataXceiver: Receiving block blk_-7464137740711005888 src: /10.251.35.1:50277 dest: /10.251.35.1:50010
081111 073350 23210 INFO dfs.DataNode$PacketResponder: PacketResponder 1 for block blk_7065737017623612531 terminating
081111 073350 23210 INFO dfs.DataNode$PacketResponder: Received block blk_7065737017623612531 of size 67108864 from /10.251.203.129
081111 073350 23246 INFO dfs.DataNode$PacketResponder: PacketResponder 1 for block blk_5453010636903055897 terminating
081111 073350 23246 INFO dfs.DataNode$PacketResponder: Received block blk_5453010636903055897 of size 3554579 from /10.251.123.195
081111 073350 23281 INFO dfs.DataNode$PacketResponder: PacketResponder 1 for block blk_-1552883776484608594 terminating
081111 073350 23281 INFO dfs.DataNode$PacketResponder: Received block blk_-1552883776484608594 of size 67108864 from /10.251.43.192
081111 073350 23283 INFO dfs.DataNode$PacketResponder: PacketResponder 1 for block blk_5344768329805568945 terminating
081111 073350 23283 INFO dfs.DataNode$PacketResponder: Received block blk_5344768329805568945 of size 67108864 from /10.251.35.1
081111 073350 23303 INFO dfs.DataNode$DataXceiver: Receiving block blk_3916933369774116169 src: /10.250.5.237:58398 dest: /10.250.5.237:50010
081111 073350 23322 INFO dfs.DataNode$DataXceiver: Receiving block blk_-647836350719601742 src: /10.251.198.33:44470 dest: /10.251.198.33:50010
081111 073350 23341 INFO dfs.DataNode$DataXceiver: Receiving block blk_2278400544520667527 src: /10.251.127.243:40011 dest: /10.251.127.243:50010
081111 073350 23357 INFO dfs.DataNode$DataXceiver: Receiving block blk_3084702122124028267 src: /10.250.6.191:48616 dest: /10.250.6.191:50010
081111 073350 23366 INFO dfs.DataNode$PacketResponder: PacketResponder 0 for block blk_-1077864536663565253 terminating
081111 073350 23366 INFO dfs.DataNode$PacketResponder: PacketResponder 2 for block blk_-1077864536663565253 terminating
081111 073350 23366 INFO dfs.DataNode$PacketResponder: Received block blk_-1077864536663565253 of size 67108864 from /10.251.199.225
081111 073350 23366 INFO dfs.DataNode$PacketResponder: Received block blk_-1077864536663565253 of size 67108864 from /10.251.26.177
081111 073350 23375 INFO dfs.DataNode$DataXceiver: Receiving block blk_2252739776391081396 src: /10.251.26.177:50850 dest: /10.251.26.177:50010
081111 073350 23377 INFO dfs.DataNode$DataXceiver: Receiving block blk_-6177913446758547386 src: /10.251.43.192:41852 dest: /10.251.43.192:50010
081111 073350 23377 INFO dfs.DataNode$PacketResponder: PacketResponder 2 for block blk_-7983188047944001337 terminating
081111 073350 23377 INFO dfs.DataNode$PacketResponder: Received block blk_-7983188047944001337 of size 67108864 from /10.251.110.8
081111 073350 23388 INFO dfs.DataNode$DataXceiver: Receiving block blk_-5717899492775167022 src: /10.251.110.8:42489 dest: /10.251.110.8:50010
081111 073350 23389 INFO dfs.DataNode$PacketResponder: PacketResponder 1 for block blk_-1944022119997148035 terminating
081111 073350 23389 INFO dfs.DataNode$PacketResponder: Received block blk_-1944022119997148035 of size 67108864 from /10.251.43.147
081111 073350 23393 INFO dfs.DataNode$PacketResponder: PacketResponder 2 for block blk_4641147544753118391 terminating
081111 073350 23393 INFO dfs.DataNode$PacketResponder: Received block blk_4641147544753118391 of size 67108864 from /10.250.13.240
081111 073350 23395 INFO dfs.DataNode$PacketResponder: PacketResponder 0 for block blk_4641147544753118391 terminating
081111 073350 23395 INFO dfs.DataNode$PacketResponder: Received block blk_4641147544753118391 of size 67108864 from /10.251.127.243
081111 073350 23397 INFO dfs.DataNode$PacketResponder: PacketResponder 1 for block blk_-1077864536663565253 terminating
081111 073350 23397 INFO dfs.DataNode$PacketResponder: Received block blk_-1077864536663565253 of size 67108864 from /10.251.26.177
081111 073350 23398 INFO dfs.DataNode$DataXceiver: Receiving block blk_-2026231181852124276 src: /10.251.198.33:55222 dest: /10.251.198.33:50010
081111 073350 23411 INFO dfs.DataNode$DataXceiver: Receiving block blk_3916933369774116169 src: /10.251.125.237:33950 dest: /10.251.125.237:50010
081111 073350 23415 INFO dfs.DataNode$DataXceiver: Receiving block blk_3084702122124028267 src: /10.250.10.176:59233 dest: /10.250.10.176:50010
081111 073350 23428 INFO dfs.DataNode$PacketResponder: PacketResponder 1 for block blk_-4025514417616577840 terminating
081111 073350 23428 INFO dfs.DataNode$PacketResponder: Received block blk_-4025514417616577840 of size 67108864 from /10.251.198.33
081111 073350 23454 INFO dfs.DataNode$DataXceiver: Receiving block blk_3821757241116229714 src: /10.251.26.8:50081 dest: /10.251.26.8:50010
081111 073350 23480 INFO dfs.DataNode$PacketResponder: PacketResponder 2 for block blk_-9195924432127172467 terminating
081111 073350 23480 INFO dfs.DataNode$PacketResponder: Received block blk_-9195924432127172467 of size 67108864 from /10.251.31.5
081111 073350 23495 INFO dfs.DataNode$DataXceiver: Receiving block blk_4611381983740413472 src: /10.251.31.5:58591 dest: /10.251.31.5:50010
081111 073350 23508 INFO dfs.DataNode$PacketResponder: PacketResponder 0 for block blk_9165833467335663059 terminating
081111 073350 23508 INFO dfs.DataNode$PacketResponder: Received block blk_9165833467335663059 of size 67108864 from /10.251.39.242
081111 073350 23536 INFO dfs.DataNode$DataXceiver: Receiving block blk_-520194219828663887 src: /10.251.203.129:59656 dest: /10.251.203.129:50010
081111 073350 23536 INFO dfs.DataNode$PacketResponder: PacketResponder 1 for block blk_-9195924432127172467 terminating
081111 073350 23536 INFO dfs.DataNode$PacketResponder: Received block blk_-9195924432127172467 of size 67108864 from /10.251.31.5
081111 073350 23537 INFO dfs.DataNode$DataXceiver: Receiving block blk_-6177913446758547386 src: /10.251.107.196:43588 dest: /10.251.107.196:50010
081111 073350 23544 INFO dfs.DataNode$PacketResponder: PacketResponder 0 for block blk_-7983188047944001337 terminating
081111 073350 23544 INFO dfs.DataNode$PacketResponder: Received block blk_-7983188047944001337 of size 67108864 from /10.251.203.166
081111 073350 23553 INFO dfs.DataNode$DataXceiver: Receiving block blk_3821757241116229714 src: /10.250.5.161:45787 dest: /10.250.5.161:50010
081111 073350 23672 INFO dfs.DataNode$PacketResponder: PacketResponder 2 for block blk_-1552883776484608594 terminating
081111 073350 23672 INFO dfs.DataNode$PacketResponder: Received block blk_-1552883776484608594 of size 67108864 from /10.251.43.192
081111 073350 23687 INFO dfs.DataNode$DataXceiver: Receiving block blk_-6177913446758547386 src: /10.251.43.192:34447 dest: /10.251.43.192:50010
081111 073350 23687 INFO dfs.DataNode$PacketResponder: PacketResponder 0 for block blk_-4025514417616577840 terminating
081111 073350 23687 INFO dfs.DataNode$PacketResponder: Received block blk_-4025514417616577840 of size 67108864 from /10.250.19.227
081111 073350 23718 INFO dfs.DataNode$DataXceiver: Receiving block blk_3084702122124028267 src: /10.250.6.191:60437 dest: /10.250.6.191:50010
081111 073350 23774 INFO dfs.DataNode$PacketResponder: PacketResponder 2 for block blk_-4025514417616577840 terminating
081111 073350 23774 INFO dfs.DataNode$PacketResponder: Received block blk_-4025514417616577840 of size 67108864 from /10.251.198.33
081111 073350 23787 INFO dfs.DataNode$DataXceiver: Receiving block blk_-647836350719601742 src: /10.251.73.188:39000 dest: /10.251.73.188:50010
081111 073350 23788 INFO dfs.DataNode$DataXceiver: Receiving block blk_-2026231181852124276 src: /10.251.198.33:40645 dest: /10.251.198.33:50010
081111 073350 26 INFO dfs.FSNamesystem: BLOCK* NameSystem.addStoredBlock: blockMap updated: 10.250.13.240:50010 is added to blk_4641147544753118391 size 67108864
081111 073350 26 INFO dfs.FSNamesystem: BLOCK* NameSystem.addStoredBlock: blockMap updated: 10.250.17.225:50010 is added to blk_-9195924432127172467 size 67108864
081111 073350 26 INFO dfs.FSNamesystem: BLOCK* NameSystem.addStoredBlock: blockMap updated: 10.251.127.243:50010 is added to blk_4641147544753118391 size 67108864
081111 073350 26 INFO dfs.FSNamesystem: BLOCK* NameSystem.addStoredBlock: blockMap updated: 10.251.203.166:50010 is added to blk_-7983188047944001337 size 67108864
081111 073350 26 INFO dfs.FSNamesystem: BLOCK* NameSystem.addStoredBlock: blockMap updated: 10.251.73.188:50010 is added to blk_7065737017623612531 size 67108864
081111 073350 26 INFO dfs.FSNamesystem: BLOCK* NameSystem.allocateBlock: /user/root/rand6/_temporary/_task_200811101024_0013_m_001545_0/part-01545. blk_-6177913446758547386
081111 073350 27 INFO dfs.FSNamesystem: BLOCK* NameSystem.addStoredBlock: blockMap updated: 10.250.6.191:50010 is added to blk_-3284935587180892260 size 67108864
081111 073350 27 INFO dfs.FSNamesystem: BLOCK* NameSystem.addStoredBlock: blockMap updated: 10.251.26.8:50010 is added to blk_-7983188047944001337 size 67108864
081111 073350 27 INFO dfs.FSNamesystem: BLOCK* NameSystem.addStoredBlock: blockMap updated: 10.251.43.192:50010 is added to blk_-1552883776484608594 size 67108864
081111 073350 27 INFO dfs.FSNamesystem: BLOCK* NameSystem.allocateBlock: /user/root/rand6/_temporary/_task_200811101024_0013_m_001422_0/part-01422. blk_2252739776391081396
081111 073350 28 INFO dfs.FSNamesystem: BLOCK* NameSystem.addStoredBlock: blockMap updated: 10.251.193.224:50010 is added to blk_-1552883776484608594 size 67108864
081111 073350 28 INFO dfs.FSNamesystem: BLOCK* NameSystem.addStoredBlock: blockMap updated: 10.251.199.225:50010 is added to blk_-1077864536663565253 size 67108864
081111 073350 28 INFO dfs.FSNamesystem: BLOCK* NameSystem.allocateBlock: /user/root/rand6/_temporary/_task_200811101024_0013_m_001486_0/part-01486. blk_4611381983740413472
081111 073350 29 INFO dfs.FSNamesystem: BLOCK* NameSystem.addStoredBlock: blockMap updated: 10.251.111.209:50010 is added to blk_9165833467335663059 size 67108864
081111 073350 29 INFO dfs.FSNamesystem: BLOCK* NameSystem.addStoredBlock: blockMap updated: 10.251.39.64:50010 is added to blk_5453010636903055897 size 3554579
081111 073350 29 INFO dfs.FSNamesystem: BLOCK* NameSystem.addStoredBlock: blockMap updated: 10.251.91.159:50010 is added to blk_5344768329805568945 size 67108864
081111 073350 29 INFO dfs.FSNamesystem: BLOCK* NameSystem.allocateBlock: /user/root/rand6/_temporary/_task_200811101024_0013_m_001195_0/part-01195. blk_-520194219828663887
081111 073350 30 INFO dfs.FSNamesystem: BLOCK* NameSystem.addStoredBlock: blockMap updated: 10.251.110.8:50010 is added to blk_-7983188047944001337 size 67108864
081111 073350 30 INFO dfs.FSNamesystem: BLOCK* NameSystem.addStoredBlock: blockMap updated: 10.251.123.195:50010 is added to blk_5453010636903055897 size 3554579
081111 073350 30 INFO dfs.FSNamesystem: BLOCK* NameSystem.addStoredBlock: blockMap updated: 10.251.123.33:50010 is added to blk_2433738520762731828 size 67108864
081111 073350 31 INFO dfs.FSNamesystem: BLOCK* NameSystem.addStoredBlock: blockMap updated: 10.250.11.53:50010 is added to blk_-4025514417616577840 size 67108864
081111 073350 31 INFO dfs.FSNamesystem: BLOCK* NameSystem.addStoredBlock: blockMap updated: 10.250.7.96:50010 is added to blk_4641147544753118391 size 67108864
081111 073350 31 INFO dfs.FSNamesystem: BLOCK* NameSystem.addStoredBlock: blockMap updated: 10.251.31.5:50010 is added to blk_-9195924432127172467 size 67108864
081111 073350 31 INFO dfs.FSNamesystem: BLOCK* NameSystem.allocateBlock: /user/root/rand6/_temporary/_task_200811101024_0013_m_001559_0/part-01559. blk_-5717899492775167022
081111 073350 32 INFO dfs.FSNamesystem: BLOCK* NameSystem.addStoredBlock: blockMap updated: 10.251.107.196:50010 is added to blk_-1077864536663565253 size 67108864
081111 073350 32 INFO dfs.FSNamesystem: BLOCK* NameSystem.addStoredBlock: blockMap updated: 10.251.198.33:50010 is added to blk_-4025514417616577840 size 67108864
081111 073350 33 INFO dfs.FSNamesystem: BLOCK* NameSystem.addStoredBlock: blockMap updated: 10.250.19.227:50010 is added to blk_-4025514417616577840 size 67108864
081111 073350 33 INFO dfs.FSNamesystem: BLOCK* NameSystem.addStoredBlock: blockMap updated: 10.251.202.209:50010 is added to blk_2433738520762731828 size 67108864
081111 073350 33 INFO dfs.FSNamesystem: BLOCK* NameSystem.addStoredBlock: blockMap updated: 10.251.202.209:50010 is added to blk_5453010636903055897 size 3554579
081111 073350 34 INFO dfs.FSNamesystem: BLOCK* NameSystem.addStoredBlock: blockMap updated: 10.251.203.80:50010 is added to blk_7065737017623612531 size 67108864
081111 073350 34 INFO dfs.FSNamesystem: BLOCK* NameSystem.addStoredBlock: blockMap updated: 10.251.26.177:50010 is added to blk_-1077864536663565253 size 67108864
081111 073350 34 INFO dfs.FSNamesystem: BLOCK* NameSystem.addStoredBlock: blockMap updated: 10.251.26.8:50010 is added to blk_-9195924432127172467 size 67108864
081111 073350 34 INFO dfs.FSNamesystem: BLOCK* NameSystem.allocateBlock: /user/root/rand6/_temporary/_task_200811101024_0013_m_001462_0/part-01462. blk_3084702122124028267
081111 073350 34 INFO dfs.FSNamesystem: BLOCK* NameSystem.allocateBlock: /user/root/rand6/_temporary/_task_200811101024_0013_m_001549_0/part-01549. blk_-7464137740711005888
081111 073350 35 INFO dfs.FSNamesystem: BLOCK* NameSystem.addStoredBlock: blockMap updated: 10.251.202.134:50010 is added to blk_3167285466629482309 size 67108864
081111 073350 35 INFO dfs.FSNamesystem: BLOCK* NameSystem.addStoredBlock: blockMap updated: 10.251.203.129:50010 is added to blk_7065737017623612531 size 67108864
081111 073350 35 INFO dfs.FSNamesystem: BLOCK* NameSystem.addStoredBlock: blockMap updated: 10.251.35.1:50010 is added to blk_5344768329805568945 size 67108864
081111 073350 35 INFO dfs.FSNamesystem: BLOCK* NameSystem.allocateBlock: /user/root/rand6/_temporary/_task_200811101024_0013_m_001312_0/part-01312. blk_-2026231181852124276
081111 073351 22106 INFO dfs.DataNode$PacketResponder: PacketResponder 1 for block blk_-5829141416853746599 terminating
081111 073351 22106 INFO dfs.DataNode$PacketResponder: Received block blk_-5829141416853746599 of size 67108864 from /10.251.203.179
081111 073351 22110 INFO dfs.DataNode$PacketResponder: PacketResponder 2 for block blk_-1439990150091607737 terminating
081111 073351 22110 INFO dfs.DataNode$PacketResponder: Received block blk_-1439990150091607737 of size 67108864 from /10.251.106.10
081111 073351 22117 INFO dfs.DataNode$DataXceiver: Receiving block blk_-7833012031493246361 src: /10.251.106.10:35378 dest: /10.251.106.10:50010
081111 073351 22820 INFO dfs.DataNode$PacketResponder: PacketResponder 2 for block blk_-5829141416853746599 terminating
081111 073351 22820 INFO dfs.DataNode$PacketResponder: Received block blk_-5829141416853746599 of size 67108864 from /10.251.203.179
081111 073351 22829 INFO dfs.DataNode$PacketResponder: PacketResponder 0 for block blk_-545950534917353913 terminating
081111 073351 22829 INFO dfs.DataNode$PacketResponder: Received block blk_-545950534917353913 of size 67108864 from /10.251.42.191
081111 073351 22835 INFO dfs.DataNode$DataXceiver: Receiving block blk_6813668549538765790 src: /10.251.203.179:50606 dest: /10.251.203.179:50010
081111 073351 22894 INFO dfs.DataNode$PacketResponder: PacketResponder 1 for block blk_4336459698361922757 terminating
081111 073351 22894 INFO dfs.DataNode$PacketResponder: Received block blk_4336459698361922757 of size 67108864 from /10.251.31.160
081111 073351 23011 INFO dfs.DataNode$DataXceiver: Receiving block blk_-3491468843196998354 src: /10.251.202.134:37612 dest: /10.251.202.134:50010
081111 073351 23143 INFO dfs.DataNode$PacketResponder: PacketResponder 2 for block blk_1338662818884342812 terminating
081111 073351 23143 INFO dfs.DataNode$PacketResponder: Received block blk_1338662818884342812 of size 67108864 from /10.250.9.207
081111 073351 23144 INFO dfs.DataNode$PacketResponder: PacketResponder 1 for block blk_-1439990150091607737 terminating
081111 073351 23144 INFO dfs.DataNode$PacketResponder: Received block blk_-1439990150091607737 of size 67108864 from /10.251.106.10
081111 073351 23149 INFO dfs.DataNode$DataXceiver: Receiving block blk_-678322318082187730 src: /10.250.9.207:56241 dest: /10.250.9.207:50010
081111 073351 23153 INFO dfs.DataNode$DataXceiver: Receiving block blk_7139504027800218729 src: /10.251.126.227:50871 dest: /10.251.126.227:50010
081111 073351 23160 INFO dfs.DataNode$PacketResponder: PacketResponder 2 for block blk_9165833467335663059 terminating
081111 073351 23160 INFO dfs.DataNode$PacketResponder: Received block blk_9165833467335663059 of size 67108864 from /10.251.203.149
081111 073351 23173 INFO dfs.DataNode$PacketResponder: PacketResponder 0 for block blk_4901082828926777846 terminating
081111 073351 23173 INFO dfs.DataNode$PacketResponder: Received block blk_4901082828926777846 of size 67108864 from /10.251.26.177
081111 073351 23186 INFO dfs.DataNode$DataXceiver: Receiving block blk_4611381983740413472 src: /10.251.67.4:55753 dest: /10.251.67.4:50010
081111 073351 23188 INFO dfs.DataNode$DataXceiver: Receiving block blk_-3491468843196998354 src: /10.251.202.134:56783 dest: /10.251.202.134:50010
081111 073351 23189 INFO dfs.DataNode$DataXceiver: Receiving block blk_1403801682314304728 src: /10.251.43.115:58102 dest: /10.251.43.115:50010
081111 073351 23189 INFO dfs.DataNode$DataXceiver: Receiving block blk_-5345804896129443106 src: /10.250.6.223:55893 dest: /10.250.6.223:50010
081111 073351 23264 INFO dfs.DataNode$PacketResponder: PacketResponder 1 for block blk_2929721428765056660 terminating
081111 073351 23264 INFO dfs.DataNode$PacketResponder: Received block blk_2929721428765056660 of size 67108864 from /10.250.6.223
081111 073351 23265 INFO dfs.DataNode$PacketResponder: PacketResponder 1 for block blk_-143651259877538103 terminating
081111 073351 23265 INFO dfs.DataNode$PacketResponder: Received block blk_-143651259877538103 of size 67108864 from /10.251.67.4
081111 073351 23298 INFO dfs.DataNode$PacketResponder: PacketResponder 0 for block blk_-1944022119997148035 terminating
081111 073351 23298 INFO dfs.DataNode$PacketResponder: PacketResponder 2 for block blk_2433738520762731828 terminating
081111 073351 23298 INFO dfs.DataNode$PacketResponder: Received block blk_-1944022119997148035 of size 67108864 from /10.250.13.240
081111 073351 23298 INFO dfs.DataNode$PacketResponder: Received block blk_2433738520762731828 of size 67108864 from /10.251.199.150
081111 073351 23309 INFO dfs.DataNode$DataXceiver: Receiving block blk_1403801682314304728 src: /10.251.199.150:41997 dest: /10.251.199.150:50010
081111 073351 23310 INFO dfs.DataNode$DataXceiver: Receiving block blk_-3491468843196998354 src: /10.251.67.113:38271 dest: /10.251.67.113:50010
081111 073351 23314 INFO dfs.DataNode$DataXceiver: Receiving block blk_-7464137740711005888 src: /10.251.35.1:49176 dest: /10.251.35.1:50010
081111 073351 23345 INFO dfs.DataNode$PacketResponder: PacketResponder 0 for block blk_4336459698361922757 terminating
081111 073351 23345 INFO dfs.DataNode$PacketResponder: Received block blk_4336459698361922757 of size 67108864 from /10.251.203.246
081111 073351 23353 INFO dfs.DataNode$DataXceiver: Receiving block blk_3508083856000507755 src: /10.251.35.1:39193 dest: /10.251.35.1:50010
081111 073351 23360 INFO dfs.DataNode$PacketResponder: PacketResponder 1 for block blk_7289390389991179643 terminating
081111 073351 23360 INFO dfs.DataNode$PacketResponder: Received block blk_7289390389991179643 of size 67108864 from /10.251.43.210
081111 073351 23362 INFO dfs.DataNode$PacketResponder: Received block blk_4901082828926777846 of size 67108864 from /10.251.71.193
081111 073351 23363 INFO dfs.DataNode$PacketResponder: PacketResponder 2 for block blk_4336459698361922757 terminating
081111 073351 23363 INFO dfs.DataNode$PacketResponder: Received block blk_4336459698361922757 of size 67108864 from /10.251.31.160
081111 073351 23368 INFO dfs.DataNode$PacketResponder: PacketResponder 0 for block blk_5216491057643255876 terminating
081111 073351 23368 INFO dfs.DataNode$PacketResponder: Received block blk_5216491057643255876 of size 67108864 from /10.251.105.189
081111 073351 23373 INFO dfs.DataNode$PacketResponder: PacketResponder 2 for block blk_-143651259877538103 terminating
081111 073351 23373 INFO dfs.DataNode$PacketResponder: Received block blk_-143651259877538103 of size 67108864 from /10.251.67.4
081111 073351 23376 INFO dfs.DataNode$DataXceiver: Receiving block blk_-6582275710527738609 src: /10.251.31.160:49816 dest: /10.251.31.160:50010
081111 073351 23386 INFO dfs.DataNode$DataXceiver: Receiving block blk_4611381983740413472 src: /10.251.31.5:39298 dest: /10.251.31.5:50010
081111 073351 23388 INFO dfs.DataNode$DataXceiver: Receiving block blk_5707177466544279865 src: /10.251.67.4:36752 dest: /10.251.67.4:50010
081111 073351 23399 INFO dfs.DataNode$PacketResponder: Received block blk_4602466817855196049 of size 67108864 from /10.251.74.227
081111 073351 23403 INFO dfs.DataNode$PacketResponder: PacketResponder 2 for block blk_-1944022119997148035 terminating
081111 073351 23403 INFO dfs.DataNode$PacketResponder: Received block blk_-1944022119997148035 of size 67108864 from /10.251.43.147
081111 073351 23409 INFO dfs.DataNode$DataXceiver: Receiving block blk_-7464137740711005888 src: /10.250.5.161:54562 dest: /10.250.5.161:50010
081111 073351 23413 INFO dfs.DataNode$DataXceiver: Receiving block blk_-4755476295177469263 src: /10.251.43.147:58372 dest: /10.251.43.147:50010
081111 073351 23430 INFO dfs.DataNode$PacketResponder: PacketResponder 0 for block blk_-5567029310162445507 terminating
081111 073351 23430 INFO dfs.DataNode$PacketResponder: PacketResponder 0 for block blk_-5829141416853746599 terminating
081111 073351 23430 INFO dfs.DataNode$PacketResponder: Received block blk_-5567029310162445507 of size 67108864 from /10.251.38.53
081111 073351 23430 INFO dfs.DataNode$PacketResponder: Received block blk_-5829141416853746599 of size 67108864 from /10.251.106.10
081111 073351 23434 INFO dfs.DataNode$PacketResponder: PacketResponder 1 for block blk_5216491057643255876 terminating
081111 073351 23434 INFO dfs.DataNode$PacketResponder: Received block blk_5216491057643255876 of size 67108864 from /10.251.75.163
081111 073351 23438 INFO dfs.DataNode$DataXceiver: Receiving block blk_1403801682314304728 src: /10.251.199.150:58339 dest: /10.251.199.150:50010
081111 073351 23460 INFO dfs.DataNode$PacketResponder: PacketResponder 2 for block blk_2929721428765056660 terminating
081111 073351 23460 INFO dfs.DataNode$PacketResponder: Received block blk_2929721428765056660 of size 67108864 from /10.250.6.223
081111 073351 23461 INFO dfs.DataNode$DataXceiver: Receiving block blk_-5345804896129443106 src: /10.250.6.223:46984 dest: /10.250.6.223:50010
081111 073351 23467 INFO dfs.DataNode$DataXceiver: Receiving block blk_-7833012031493246361 src: /10.251.123.20:47983 dest: /10.251.123.20:50010
081111 073351 23487 INFO dfs.DataNode$DataXceiver: Receiving block blk_-3613472297285974266 src: /10.251.31.85:38268 dest: /10.251.31.85:50010
081111 073351 23487 INFO dfs.DataNode$PacketResponder: PacketResponder 1 for block blk_9165833467335663059 terminating
081111 073351 23487 INFO dfs.DataNode$PacketResponder: Received block blk_9165833467335663059 of size 67108864 from /10.251.203.149
081111 073351 23504 INFO dfs.DataNode$PacketResponder: PacketResponder 0 for block blk_7289390389991179643 terminating
081111 073351 23504 INFO dfs.DataNode$PacketResponder: Received block blk_7289390389991179643 of size 67108864 from /10.251.123.1
081111 073351 23527 INFO dfs.DataNode$DataXceiver: Receiving block blk_-7833012031493246361 src: /10.251.106.10:57411 dest: /10.251.106.10:50010
081111 073351 23535 INFO dfs.DataNode$PacketResponder: PacketResponder 0 for block blk_-143651259877538103 terminating
081111 073351 23535 INFO dfs.DataNode$PacketResponder: Received block blk_-143651259877538103 of size 67108864 from /10.251.199.19
081111 073351 23540 INFO dfs.DataNode$PacketResponder: PacketResponder 0 for block blk_8533303972868610068 terminating
081111 073351 23540 INFO dfs.DataNode$PacketResponder: Received block blk_8533303972868610068 of size 67108864 from /10.251.91.15
081111 073351 23543 INFO dfs.DataNode$PacketResponder: PacketResponder 0 for block blk_-1439990150091607737 terminating
081111 073351 23543 INFO dfs.DataNode$PacketResponder: Received block blk_-1439990150091607737 of size 67108864 from /10.251.123.132
081111 073351 23557 INFO dfs.DataNode$DataXceiver: Receiving block blk_2252739776391081396 src: /10.251.26.177:54183 dest: /10.251.26.177:50010
081111 073351 23558 INFO dfs.DataNode$DataXceiver: Receiving block blk_-678322318082187730 src: /10.250.9.207:36611 dest: /10.250.9.207:50010
081111 073351 23569 INFO dfs.DataNode$DataXceiver: Receiving block blk_2252739776391081396 src: /10.251.110.68:57338 dest: /10.251.110.68:50010
081111 073351 23593 INFO dfs.DataNode$PacketResponder: PacketResponder 2 for block blk_5216491057643255876 terminating
081111 073351 23593 INFO dfs.DataNode$PacketResponder: Received block blk_5216491057643255876 of size 67108864 from /10.251.75.163
081111 073351 23602 INFO dfs.DataNode$DataXceiver: Receiving block blk_-5965480915892363907 src: /10.251.75.163:57084 dest: /10.251.75.163:50010
081111 073351 23613 INFO dfs.DataNode$DataXceiver: Receiving block blk_7736424380523326771 src: /10.251.194.245:54887 dest: /10.251.194.245:50010
081111 073351 23644 INFO dfs.DataNode$DataXceiver: Receiving block blk_-678322318082187730 src: /10.251.110.68:35807 dest: /10.251.110.68:50010
081111 073351 23790 INFO dfs.DataNode$DataXceiver: Receiving block blk_-6582275710527738609 src: /10.251.31.160:59590 dest: /10.251.31.160:50010
081111 073351 26 INFO dfs.FSNamesystem: BLOCK* NameSystem.addStoredBlock: blockMap updated: 10.251.106.10:50010 is added to blk_-5829141416853746599 size 67108864
081111 073351 26 INFO dfs.FSNamesystem: BLOCK* NameSystem.addStoredBlock: blockMap updated: 10.251.199.159:50010 is added to blk_7289390389991179643 size 67108864
081111 073351 26 INFO dfs.FSNamesystem: BLOCK* NameSystem.allocateBlock: /user/root/rand6/_temporary/_task_200811101024_0013_m_001491_0/part-01491. blk_-4755476295177469263
081111 073351 26 INFO dfs.FSNamesystem: BLOCK* NameSystem.allocateBlock: /user/root/rand6/_temporary/_task_200811101024_0013_m_001519_0/part-01519. blk_3505112146432413658
081111 073351 27 INFO dfs.FSNamesystem: BLOCK* NameSystem.addStoredBlock: blockMap updated: 10.251.107.196:50010 is added to blk_5216491057643255876 size 67108864
081111 073351 27 INFO dfs.FSNamesystem: BLOCK* NameSystem.addStoredBlock: blockMap updated: 10.251.126.227:50010 is added to blk_2929721428765056660 size 67108864
081111 073351 27 INFO dfs.FSNamesystem: BLOCK* NameSystem.addStoredBlock: blockMap updated: 10.251.199.150:50010 is added to blk_2433738520762731828 size 67108864
081111 073351 27 INFO dfs.FSNamesystem: BLOCK* NameSystem.addStoredBlock: blockMap updated: 10.251.203.149:50010 is added to blk_9165833467335663059 size 67108864
081111 073351 27 INFO dfs.FSNamesystem: BLOCK* NameSystem.addStoredBlock: blockMap updated: 10.251.39.242:50010 is added to blk_9165833467335663059 size 67108864
081111 073351 28 INFO dfs.FSNamesystem: BLOCK* NameSystem.addStoredBlock: blockMap updated: 10.250.13.240:50010 is added to blk_-1944022119997148035 size 67108864
081111 073351 28 INFO dfs.FSNamesystem: BLOCK* NameSystem.addStoredBlock: blockMap updated: 10.251.105.189:50010 is added to blk_5216491057643255876 size 67108864
081111 073351 28 INFO dfs.FSNamesystem: BLOCK* NameSystem.addStoredBlock: blockMap updated: 10.251.43.147:50010 is added to blk_-1944022119997148035 size 67108864
081111 073351 28 INFO dfs.FSNamesystem: BLOCK* NameSystem.addStoredBlock: blockMap updated: 10.251.67.4:50010 is added to blk_-143651259877538103 size 67108864
081111 073351 28 INFO dfs.FSNamesystem: BLOCK* NameSystem.allocateBlock: /user/root/rand6/_temporary/_task_200811101024_0013_m_001348_0/part-01348. blk_1403801682314304728
081111 073351 29 INFO dfs.FSNamesystem: BLOCK* NameSystem.addStoredBlock: blockMap updated: 10.250.9.207:50010 is added to blk_1338662818884342812 size 67108864
081111 073351 30 INFO dfs.FSNamesystem: BLOCK* NameSystem.addStoredBlock: blockMap updated: 10.251.105.189:50010 is added to blk_-5829141416853746599 size 67108864
081111 073351 30 INFO dfs.FSNamesystem: BLOCK* NameSystem.addStoredBlock: blockMap updated: 10.251.109.209:50010 is added to blk_4336459698361922757 size 67108864
081111 073351 30 INFO dfs.FSNamesystem: BLOCK* NameSystem.addStoredBlock: blockMap updated: 10.251.195.33:50010 is added to blk_-143651259877538103 size 67108864
081111 073351 30 INFO dfs.FSNamesystem: BLOCK* NameSystem.addStoredBlock: blockMap updated: 10.251.203.246:50010 is added to blk_4336459698361922757 size 67108864
081111 073351 30 INFO dfs.FSNamesystem: BLOCK* NameSystem.allocateBlock: /user/root/rand6/_temporary/_task_200811101024_0013_m_001403_0/part-01403. blk_-3491468843196998354
081111 073351 30 INFO dfs.FSNamesystem: BLOCK* NameSystem.allocateBlock: /user/root/rand6/_temporary/_task_200811101024_0013_m_001509_0/part-01509. blk_6813668549538765790
081111 073351 31 INFO dfs.FSNamesystem: BLOCK* NameSystem.addStoredBlock: blockMap updated: 10.251.123.132:50010 is added to blk_-1439990150091607737 size 67108864
081111 073351 31 INFO dfs.FSNamesystem: BLOCK* NameSystem.addStoredBlock: blockMap updated: 10.251.195.33:50010 is added to blk_8533303972868610068 size 67108864
081111 073351 31 INFO dfs.FSNamesystem: BLOCK* NameSystem.addStoredBlock: blockMap updated: 10.251.195.70:50010 is added to blk_-5567029310162445507 size 67108864
081111 073351 31 INFO dfs.FSNamesystem: BLOCK* NameSystem.addStoredBlock: blockMap updated: 10.251.203.179:50010 is added to blk_-5829141416853746599 size 67108864
081111 073351 31 INFO dfs.FSNamesystem: BLOCK* NameSystem.allocateBlock: /user/root/rand6/_temporary/_task_200811101024_0013_m_001430_0/part-01430. blk_-6582275710527738609
081111 073351 31 INFO dfs.FSNamesystem: BLOCK* NameSystem.allocateBlock: /user/root/rand6/_temporary/_task_200811101024_0013_m_001444_0/part-01444. blk_-7833012031493246361
081111 073351 32 INFO dfs.FSNamesystem: BLOCK* NameSystem.addStoredBlock: blockMap updated: 10.251.75.163:50010 is added to blk_5216491057643255876 size 67108864
081111 073351 33 INFO dfs.FSNamesystem: BLOCK* NameSystem.addStoredBlock: blockMap updated: 10.250.5.161:50010 is added to blk_-1944022119997148035 size 67108864
081111 073351 33 INFO dfs.FSNamesystem: BLOCK* NameSystem.addStoredBlock: blockMap updated: 10.251.203.179:50010 is added to blk_-545950534917353913 size 67108864
081111 073351 33 INFO dfs.FSNamesystem: BLOCK* NameSystem.allocateBlock: /user/root/rand6/_temporary/_task_200811101024_0013_m_001154_0/part-01154. blk_-5345804896129443106
081111 073351 33 INFO dfs.FSNamesystem: BLOCK* NameSystem.allocateBlock: /user/root/rand6/_temporary/_task_200811101024_0013_m_001253_0/part-01253. blk_5707177466544279865
081111 073351 33 INFO dfs.FSNamesystem: BLOCK* NameSystem.allocateBlock: /user/root/rand6/_temporary/_task_200811101024_0013_m_001370_0/part-01370. blk_-678322318082187730
081111 073351 34 INFO dfs.FSNamesystem: BLOCK* NameSystem.addStoredBlock: blockMap updated: 10.250.6.223:50010 is added to blk_2929721428765056660 size 67108864
081111 073351 34 INFO dfs.FSNamesystem: BLOCK* NameSystem.addStoredBlock: blockMap updated: 10.251.106.10:50010 is added to blk_-1439990150091607737 size 67108864
081111 073351 34 INFO dfs.FSNamesystem: BLOCK* NameSystem.addStoredBlock: blockMap updated: 10.251.199.19:50010 is added to blk_-143651259877538103 size 67108864
081111 073351 34 INFO dfs.FSNamesystem: BLOCK* NameSystem.addStoredBlock: blockMap updated: 10.251.91.229:50010 is added to blk_-1439990150091607737 size 67108864
081111 073351 35 INFO dfs.FSNamesystem: BLOCK* NameSystem.addStoredBlock: blockMap updated: 10.251.199.225:50010 is added to blk_4602466817855196049 size 67108864
081111 073351 35 INFO dfs.FSNamesystem: BLOCK* NameSystem.addStoredBlock: blockMap updated: 10.251.26.177:50010 is added to blk_4901082828926777846 size 67108864
081111 073351 35 INFO dfs.FSNamesystem: BLOCK* NameSystem.addStoredBlock: blockMap updated: 10.251.31.160:50010 is added to blk_4336459698361922757 size 67108864
081111 073351 35 INFO dfs.FSNamesystem: BLOCK* NameSystem.allocateBlock: /user/root/rand6/_temporary/_task_200811101024_0013_m_001260_0/part-01260. blk_-5965480915892363907
081111 073352 13 INFO dfs.DataBlockScanner: Verification succeeded for blk_-4640014318203731012
081111 073352 22119 INFO dfs.DataNode$DataXceiver: Receiving block blk_8435044184815783418 src: /10.251.109.236:46268 dest: /10.251.109.236:50010
081111 073352 22875 INFO dfs.DataNode$DataXceiver: Receiving block blk_6813668549538765790 src: /10.251.91.159:43509 dest: /10.251.91.159:50010
081111 073352 22902 INFO dfs.DataNode$DataXceiver: Receiving block blk_-5965480915892363907 src: /10.251.39.64:34893 dest: /10.251.39.64:50010
081111 073352 22957 INFO dfs.DataNode$PacketResponder: PacketResponder 1 for block blk_4404522138227331382 terminating
081111 073352 22957 INFO dfs.DataNode$PacketResponder: Received block blk_4404522138227331382 of size 67108864 from /10.251.126.5
081111 073352 22964 INFO dfs.DataNode$PacketResponder: PacketResponder 0 for block blk_5748229271439228196 terminating
081111 073352 22964 INFO dfs.DataNode$PacketResponder: Received block blk_5748229271439228196 of size 67108864 from /10.251.215.192
081111 073352 22966 INFO dfs.DataNode$PacketResponder: PacketResponder 1 for block blk_7897102853522830133 terminating
081111 073352 22966 INFO dfs.DataNode$PacketResponder: Received block blk_7897102853522830133 of size 67108864 from /10.251.75.79
081111 073352 22967 INFO dfs.DataNode$PacketResponder: PacketResponder 2 for block blk_587723546996795296 terminating
081111 073352 22967 INFO dfs.DataNode$PacketResponder: Received block blk_587723546996795296 of size 67108864 from /10.251.75.228
081111 073352 22968 INFO dfs.DataNode$DataXceiver: Receiving block blk_9219455883532387117 src: /10.251.126.5:36779 dest: /10.251.126.5:50010
081111 073352 22982 INFO dfs.DataNode$PacketResponder: PacketResponder 0 for block blk_297169430204198104 terminating
081111 073352 22982 INFO dfs.DataNode$PacketResponder: Received block blk_297169430204198104 of size 67108864 from /10.251.214.175
081111 073352 23031 INFO dfs.DataNode$DataXceiver: Receiving block blk_-1324493395244173158 src: /10.250.7.96:35520 dest: /10.250.7.96:50010
081111 073352 23100 INFO dfs.DataNode$DataXceiver: Receiving block blk_8435044184815783418 src: /10.250.13.240:49836 dest: /10.250.13.240:50010
081111 073352 23135 INFO dfs.DataNode$DataXceiver: Receiving block blk_-6582275710527738609 src: /10.251.198.33:48744 dest: /10.251.198.33:50010
081111 073352 23138 INFO dfs.DataNode$PacketResponder: PacketResponder 1 for block blk_-5174808014557207239 terminating
081111 073352 23138 INFO dfs.DataNode$PacketResponder: Received block blk_-5174808014557207239 of size 67108864 from /10.251.89.155
081111 073352 23140 INFO dfs.DataNode$PacketResponder: PacketResponder 2 for block blk_-2589663584448035119 terminating
081111 073352 23140 INFO dfs.DataNode$PacketResponder: Received block blk_-2589663584448035119 of size 67108864 from /10.251.107.98
081111 073352 23149 INFO dfs.DataNode$PacketResponder: PacketResponder 0 for block blk_595618999346784680 terminating
081111 073352 23149 INFO dfs.DataNode$PacketResponder: Received block blk_595618999346784680 of size 67108864 from /10.251.126.22
081111 073352 23155 INFO dfs.DataNode$DataXceiver: Receiving block blk_-4256441874699048860 src: /10.251.107.98:42782 dest: /10.251.107.98:50010
081111 073352 23175 INFO dfs.DataNode$DataXceiver: Receiving block blk_3505112146432413658 src: /10.251.203.149:40298 dest: /10.251.203.149:50010
081111 073352 23182 INFO dfs.DataNode$PacketResponder: PacketResponder 1 for block blk_-7710918368747999878 terminating
081111 073352 23182 INFO dfs.DataNode$PacketResponder: Received block blk_-7710918368747999878 of size 67108864 from /10.250.11.85
081111 073352 23190 INFO dfs.DataNode$DataXceiver: Receiving block blk_3505112146432413658 src: /10.251.42.84:33643 dest: /10.251.42.84:50010
081111 073352 23192 INFO dfs.DataNode$DataXceiver: Receiving block blk_5147063349758171832 src: /10.251.39.192:51013 dest: /10.251.39.192:50010
081111 073352 23194 INFO dfs.DataNode$PacketResponder: PacketResponder 1 for block blk_4602466817855196049 terminating
081111 073352 23194 INFO dfs.DataNode$PacketResponder: Received block blk_4602466817855196049 of size 67108864 from /10.250.15.240
081111 073352 23212 INFO dfs.DataNode$PacketResponder: PacketResponder 1 for block blk_6698925149152115941 terminating
081111 073352 23212 INFO dfs.DataNode$PacketResponder: Received block blk_6698925149152115941 of size 67108864 from /10.251.37.240
081111 073352 23213 INFO dfs.DataNode$DataXceiver: Receiving block blk_-7022304599830435257 src: /10.250.6.4:36917 dest: /10.250.6.4:50010
081111 073352 23247 INFO dfs.DataNode$DataXceiver: Receiving block blk_-5965480915892363907 src: /10.251.75.163:59423 dest: /10.251.75.163:50010
081111 073352 23254 INFO dfs.DataNode$PacketResponder: PacketResponder 1 for block blk_297169430204198104 terminating
081111 073352 23254 INFO dfs.DataNode$PacketResponder: Received block blk_297169430204198104 of size 67108864 from /10.250.7.96
081111 073352 23264 INFO dfs.DataNode$PacketResponder: PacketResponder 0 for block blk_-7710918368747999878 terminating
081111 073352 23264 INFO dfs.DataNode$PacketResponder: Received block blk_-7710918368747999878 of size 67108864 from /10.251.30.6
081111 073352 23273 INFO dfs.DataNode$DataXceiver: Receiving block blk_9219455883532387117 src: /10.251.123.195:36082 dest: /10.251.123.195:50010
081111 073352 23289 INFO dfs.DataNode$DataXceiver: Receiving block blk_-2326390045501274356 src: /10.251.71.146:47360 dest: /10.251.71.146:50010
081111 073352 23289 INFO dfs.DataNode$PacketResponder: PacketResponder 1 for block blk_366735371509047184 terminating
081111 073352 23289 INFO dfs.DataNode$PacketResponder: Received block blk_366735371509047184 of size 67108864 from /10.250.17.177
081111 073352 23294 INFO dfs.DataNode$PacketResponder: PacketResponder 1 for block blk_587723546996795296 terminating
081111 073352 23294 INFO dfs.DataNode$PacketResponder: Received block blk_587723546996795296 of size 67108864 from /10.251.75.228
081111 073352 23300 INFO dfs.DataNode$DataXceiver: Receiving block blk_6813668549538765790 src: /10.251.203.179:60063 dest: /10.251.203.179:50010
081111 073352 23301 INFO dfs.DataNode$DataXceiver: Receiving block blk_5147063349758171832 src: /10.251.39.192:50230 dest: /10.251.39.192:50010
081111 073352 23316 INFO dfs.DataNode$PacketResponder: PacketResponder 2 for block blk_-4340999966377146426 terminating
081111 073352 23316 INFO dfs.DataNode$PacketResponder: Received block blk_-4340999966377146426 of size 67108864 from /10.251.71.146
081111 073352 23327 INFO dfs.DataNode$PacketResponder: PacketResponder 1 for block blk_-6831356933582035420 terminating
081111 073352 23327 INFO dfs.DataNode$PacketResponder: Received block blk_-6831356933582035420 of size 67108864 from /10.251.214.18
081111 073352 23331 INFO dfs.DataNode$PacketResponder: PacketResponder 2 for block blk_8533303972868610068 terminating
081111 073352 23331 INFO dfs.DataNode$PacketResponder: Received block blk_8533303972868610068 of size 67108864 from /10.251.214.130
081111 073352 23332 INFO dfs.DataNode$PacketResponder: PacketResponder 0 for block blk_587723546996795296 terminating
081111 073352 23332 INFO dfs.DataNode$PacketResponder: PacketResponder 0 for block blk_-6257212098225907287 terminating
081111 073352 23332 INFO dfs.DataNode$PacketResponder: Received block blk_587723546996795296 of size 67108864 from /10.251.125.237
081111 073352 23332 INFO dfs.DataNode$PacketResponder: Received block blk_-6257212098225907287 of size 67108864 from /10.251.38.197
081111 073352 23335 INFO dfs.DataNode$DataXceiver: Receiving block blk_-2326390045501274356 src: /10.251.71.146:47784 dest: /10.251.71.146:50010
081111 073352 23336 INFO dfs.DataNode$DataXceiver: Receiving block blk_-1271497378075702959 src: /10.251.214.18:54035 dest: /10.251.214.18:50010
081111 073352 23336 INFO dfs.DataNode$DataXceiver: Receiving block blk_-7022304599830435257 src: /10.251.214.130:59781 dest: /10.251.214.130:50010
081111 073352 23338 INFO dfs.DataNode$PacketResponder: PacketResponder 2 for block blk_4602466817855196049 terminating
081111 073352 23338 INFO dfs.DataNode$PacketResponder: Received block blk_4602466817855196049 of size 67108864 from /10.250.15.240
081111 073352 23355 INFO dfs.DataNode$DataXceiver: Receiving block blk_-1323028620976347044 src: /10.250.15.240:55288 dest: /10.250.15.240:50010
081111 073352 23356 INFO dfs.DataNode$DataXceiver: Receiving block blk_-4256441874699048860 src: /10.251.107.98:55990 dest: /10.251.107.98:50010
081111 073352 23362 INFO dfs.DataNode$PacketResponder: PacketResponder 1 for block blk_4901082828926777846 terminating
081111 073352 23375 INFO dfs.DataNode$DataXceiver: Receiving block blk_-7022304599830435257 src: /10.251.214.130:39612 dest: /10.251.214.130:50010
081111 073352 23381 INFO dfs.DataNode$PacketResponder: Received block blk_595618999346784680 of size 67108864 from /10.251.214.225
081111 073352 23383 INFO dfs.DataNode$PacketResponder: PacketResponder 0 for block blk_252915902657247440 terminating
081111 073352 23383 INFO dfs.DataNode$PacketResponder: Received block blk_252915902657247440 of size 67108864 from /10.250.17.225
081111 073352 23384 INFO dfs.DataNode$PacketResponder: PacketResponder 1 for block blk_252915902657247440 terminating
081111 073352 23384 INFO dfs.DataNode$PacketResponder: Received block blk_252915902657247440 of size 67108864 from /10.250.6.223
081111 073352 23387 INFO dfs.DataNode$PacketResponder: PacketResponder 2 for block blk_-5567029310162445507 terminating
081111 073352 23387 INFO dfs.DataNode$PacketResponder: Received block blk_-5567029310162445507 of size 67108864 from /10.250.13.240
081111 073352 23389 INFO dfs.DataNode$PacketResponder: PacketResponder 2 for block blk_297169430204198104 terminating
081111 073352 23389 INFO dfs.DataNode$PacketResponder: Received block blk_297169430204198104 of size 67108864 from /10.250.7.96
081111 073352 23390 INFO dfs.DataNode$DataXceiver: Receiving block blk_5702717353186963014 src: /10.251.71.193:44203 dest: /10.251.71.193:50010
081111 073352 23390 INFO dfs.DataNode$PacketResponder: PacketResponder 2 for block blk_4404522138227331382 terminating
081111 073352 23390 INFO dfs.DataNode$PacketResponder: Received block blk_4404522138227331382 of size 67108864 from /10.251.126.5
081111 073352 23394 INFO dfs.DataNode$DataXceiver: Receiving block blk_1220880474534303912 src: /10.251.43.210:40943 dest: /10.251.43.210:50010
081111 073352 23399 INFO dfs.DataNode$PacketResponder: PacketResponder 0 for block blk_4602466817855196049 terminating
081111 073352 23400 INFO dfs.DataNode$DataXceiver: Receiving block blk_9219455883532387117 src: /10.251.126.5:36936 dest: /10.251.126.5:50010
081111 073352 23402 INFO dfs.DataNode$DataXceiver: Receiving block blk_-1323028620976347044 src: /10.250.15.240:39307 dest: /10.250.15.240:50010
081111 073352 23402 INFO dfs.DataNode$DataXceiver: Receiving block blk_4825944986006458112 src: /10.250.13.240:46843 dest: /10.250.13.240:50010
081111 073352 23403 INFO dfs.DataNode$DataXceiver: Receiving block blk_8435044184815783418 src: /10.250.13.240:46844 dest: /10.250.13.240:50010
081111 073352 23404 INFO dfs.DataNode$DataXceiver: Receiving block blk_-1324493395244173158 src: /10.250.7.96:37680 dest: /10.250.7.96:50010
081111 073352 23404 INFO dfs.DataNode$PacketResponder: PacketResponder 0 for block blk_-6831356933582035420 terminating
081111 073352 23404 INFO dfs.DataNode$PacketResponder: Received block blk_-6831356933582035420 of size 67108864 from /10.251.214.130
081111 073352 23412 INFO dfs.DataNode$PacketResponder: PacketResponder 1 for block blk_-1492132727725526879 terminating
081111 073352 23412 INFO dfs.DataNode$PacketResponder: Received block blk_-1492132727725526879 of size 67108864 from /10.251.195.52
081111 073352 23417 INFO dfs.DataNode$DataXceiver: Receiving block blk_5147063349758171832 src: /10.251.91.159:41308 dest: /10.251.91.159:50010
081111 073352 23425 INFO dfs.DataNode$DataXceiver: Receiving block blk_5707177466544279865 src: /10.251.89.155:47509 dest: /10.251.89.155:50010
081111 073352 23425 INFO dfs.DataNode$PacketResponder: PacketResponder 2 for block blk_7289390389991179643 terminating
081111 073352 23425 INFO dfs.DataNode$PacketResponder: Received block blk_7289390389991179643 of size 67108864 from /10.251.43.210
081111 073352 23434 INFO dfs.DataNode$DataXceiver: Receiving block blk_1220880474534303912 src: /10.251.43.210:48298 dest: /10.251.43.210:50010
081111 073352 23440 INFO dfs.DataNode$DataXceiver: Receiving block blk_-4256441874699048860 src: /10.250.15.240:36278 dest: /10.250.15.240:50010
081111 073352 23440 INFO dfs.DataNode$PacketResponder: PacketResponder 1 for block blk_-2589663584448035119 terminating
081111 073352 23440 INFO dfs.DataNode$PacketResponder: Received block blk_-2589663584448035119 of size 67108864 from /10.251.107.98
081111 073352 23441 INFO dfs.DataNode$PacketResponder: PacketResponder 1 for block blk_-5567029310162445507 terminating
081111 073352 23441 INFO dfs.DataNode$PacketResponder: Received block blk_-5567029310162445507 of size 67108864 from /10.250.13.240
081111 073352 23445 INFO dfs.DataNode$PacketResponder: PacketResponder 0 for block blk_4404522138227331382 terminating
081111 073352 23445 INFO dfs.DataNode$PacketResponder: Received block blk_4404522138227331382 of size 67108864 from /10.251.75.228
081111 073352 23446 INFO dfs.DataNode$PacketResponder: PacketResponder 2 for block blk_252915902657247440 terminating
081111 073352 23446 INFO dfs.DataNode$PacketResponder: Received block blk_252915902657247440 of size 67108864 from /10.250.6.223
081111 073352 23456 INFO dfs.DataNode$PacketResponder: PacketResponder 0 for block blk_-5174808014557207239 terminating
081111 073352 23456 INFO dfs.DataNode$PacketResponder: PacketResponder 2 for block blk_-6831356933582035420 terminating
081111 073352 23456 INFO dfs.DataNode$PacketResponder: Received block blk_-5174808014557207239 of size 67108864 from /10.251.107.98
081111 073352 23456 INFO dfs.DataNode$PacketResponder: Received block blk_-6831356933582035420 of size 67108864 from /10.251.214.18
081111 073352 23461 INFO dfs.DataNode$PacketResponder: PacketResponder 1 for block blk_8533303972868610068 terminating
081111 073352 23461 INFO dfs.DataNode$PacketResponder: Received block blk_8533303972868610068 of size 67108864 from /10.251.214.130
081111 073352 23462 INFO dfs.DataNode$DataXceiver: Receiving block blk_-3941232241645854336 src: /10.250.6.223:46986 dest: /10.250.6.223:50010
081111 073352 23467 INFO dfs.DataNode$DataXceiver: Receiving block blk_-1271497378075702959 src: /10.251.214.18:48167 dest: /10.251.214.18:50010
081111 073352 23479 INFO dfs.DataNode$DataXceiver: Receiving block blk_3505112146432413658 src: /10.251.203.149:48517 dest: /10.251.203.149:50010
081111 073352 23501 INFO dfs.DataNode$PacketResponder: PacketResponder 2 for block blk_-5174808014557207239 terminating
081111 073352 23501 INFO dfs.DataNode$PacketResponder: Received block blk_-5174808014557207239 of size 67108864 from /10.251.89.155
081111 073352 23514 INFO dfs.DataNode$DataXceiver: Receiving block blk_5707177466544279865 src: /10.251.67.4:35737 dest: /10.251.67.4:50010
081111 073352 23519 INFO dfs.DataNode$PacketResponder: PacketResponder 0 for block blk_366735371509047184 terminating
081111 073352 23519 INFO dfs.DataNode$PacketResponder: Received block blk_366735371509047184 of size 67108864 from /10.251.194.213
081111 073352 23567 INFO dfs.DataNode$PacketResponder: PacketResponder 0 for block blk_7897102853522830133 terminating
081111 073352 23567 INFO dfs.DataNode$PacketResponder: Received block blk_7897102853522830133 of size 67108864 from /10.251.75.228
081111 073352 23593 INFO dfs.DataNode$PacketResponder: PacketResponder 2 for block blk_4901082828926777846 terminating
081111 073352 23593 INFO dfs.DataNode$PacketResponder: Received block blk_4901082828926777846 of size 67108864 from /10.251.71.193
081111 073352 23612 INFO dfs.DataNode$PacketResponder: PacketResponder 0 for block blk_6698925149152115941 terminating
081111 073352 23612 INFO dfs.DataNode$PacketResponder: Received block blk_6698925149152115941 of size 67108864 from /10.251.74.192
081111 073352 23618 INFO dfs.DataNode$DataXceiver: Receiving block blk_-5345804896129443106 src: /10.251.67.113:52714 dest: /10.251.67.113:50010
081111 073352 23620 INFO dfs.DataNode$DataXceiver: Receiving block blk_5702717353186963014 src: /10.251.71.193:40835 dest: /10.251.71.193:50010
081111 073352 23622 INFO dfs.DataNode$PacketResponder: PacketResponder 1 for block blk_-4340999966377146426 terminating
081111 073352 23622 INFO dfs.DataNode$PacketResponder: Received block blk_-4340999966377146426 of size 67108864 from /10.251.71.146
081111 073352 23685 INFO dfs.DataNode$PacketResponder: PacketResponder 0 for block blk_-2589663584448035119 terminating
081111 073352 23685 INFO dfs.DataNode$PacketResponder: Received block blk_-2589663584448035119 of size 67108864 from /10.251.195.70
081111 073352 23688 INFO dfs.DataNode$DataXceiver: Receiving block blk_3253728711940347877 src: /10.251.66.3:57592 dest: /10.251.66.3:50010
081111 073352 23742 INFO dfs.DataNode$PacketResponder: PacketResponder 0 for block blk_-7051756300356485815 terminating
081111 073352 23742 INFO dfs.DataNode$PacketResponder: Received block blk_-7051756300356485815 of size 67108864 from /10.251.42.9
081111 073352 23843 INFO dfs.DataNode$PacketResponder: PacketResponder 0 for block blk_2954499346399805490 terminating
081111 073352 23843 INFO dfs.DataNode$PacketResponder: Received block blk_2954499346399805490 of size 67108864 from /10.251.126.22
081111 073352 26 INFO dfs.FSNamesystem: BLOCK* NameSystem.addStoredBlock: blockMap updated: 10.251.31.85:50010 is added to blk_4404522138227331382 size 67108864
081111 073352 26 INFO dfs.FSNamesystem: BLOCK* NameSystem.addStoredBlock: blockMap updated: 10.251.43.210:50010 is added to blk_7289390389991179643 size 67108864
081111 073352 26 INFO dfs.FSNamesystem: BLOCK* NameSystem.allocateBlock: /user/root/rand6/_temporary/_task_200811101024_0013_m_001270_0/part-01270. blk_5147063349758171832
081111 073352 27 INFO dfs.FSNamesystem: BLOCK* NameSystem.addStoredBlock: blockMap updated: 10.250.17.177:50010 is added to blk_366735371509047184 size 67108864
081111 073352 27 INFO dfs.FSNamesystem: BLOCK* NameSystem.addStoredBlock: blockMap updated: 10.250.17.225:50010 is added to blk_252915902657247440 size 67108864
081111 073352 27 INFO dfs.FSNamesystem: BLOCK* NameSystem.addStoredBlock: blockMap updated: 10.250.6.223:50010 is added to blk_252915902657247440 size 67108864
081111 073352 27 INFO dfs.FSNamesystem: BLOCK* NameSystem.addStoredBlock: blockMap updated: 10.250.7.146:50010 is added to blk_4901082828926777846 size 67108864
081111 073352 27 INFO dfs.FSNamesystem: BLOCK* NameSystem.addStoredBlock: blockMap updated: 10.251.111.209:50010 is added to blk_366735371509047184 size 67108864
081111 073352 27 INFO dfs.FSNamesystem: BLOCK* NameSystem.addStoredBlock: blockMap updated: 10.251.121.224:50010 is added to blk_-1492132727725526879 size 67108864
081111 073352 27 INFO dfs.FSNamesystem: BLOCK* NameSystem.addStoredBlock: blockMap updated: 10.251.121.224:50010 is added to blk_-6831356933582035420 size 67108864
081111 073352 27 INFO dfs.FSNamesystem: BLOCK* NameSystem.addStoredBlock: blockMap updated: 10.251.74.227:50010 is added to blk_4602466817855196049 size 67108864
081111 073352 27 INFO dfs.FSNamesystem: BLOCK* NameSystem.addStoredBlock: blockMap updated: 10.251.89.155:50010 is added to blk_-5174808014557207239 size 67108864
081111 073352 27 INFO dfs.FSNamesystem: BLOCK* NameSystem.allocateBlock: /user/root/rand6/_temporary/_task_200811101024_0013_m_001441_0/part-01441. blk_-6707351183436138693
081111 073352 28 INFO dfs.FSNamesystem: BLOCK* NameSystem.addStoredBlock: blockMap updated: 10.250.6.223:50010 is added to blk_-5174808014557207239 size 67108864
081111 073352 28 INFO dfs.FSNamesystem: BLOCK* NameSystem.addStoredBlock: blockMap updated: 10.251.107.19:50010 is added to blk_6698925149152115941 size 67108864
081111 073352 28 INFO dfs.FSNamesystem: BLOCK* NameSystem.addStoredBlock: blockMap updated: 10.251.126.5:50010 is added to blk_4404522138227331382 size 67108864
081111 073352 28 INFO dfs.FSNamesystem: BLOCK* NameSystem.addStoredBlock: blockMap updated: 10.251.214.18:50010 is added to blk_-6831356933582035420 size 67108864
081111 073352 28 INFO dfs.FSNamesystem: BLOCK* NameSystem.addStoredBlock: blockMap updated: 10.251.75.228:50010 is added to blk_4404522138227331382 size 67108864
081111 073352 28 INFO dfs.FSNamesystem: BLOCK* NameSystem.addStoredBlock: blockMap updated: 10.251.75.228:50010 is added to blk_5748229271439228196 size 67108864
081111 073352 28 INFO dfs.FSNamesystem: BLOCK* NameSystem.addStoredBlock: blockMap updated: 10.251.91.15:50010 is added to blk_8533303972868610068 size 67108864
081111 073352 28 INFO dfs.FSNamesystem: BLOCK* NameSystem.allocateBlock: /user/root/rand6/_temporary/_task_200811101024_0013_m_001170_0/part-01170. blk_-3941232241645854336
081111 073352 28 INFO dfs.FSNamesystem: BLOCK* NameSystem.allocateBlock: /user/root/rand6/_temporary/_task_200811101024_0013_m_001361_0/part-01361. blk_-1324493395244173158
081111 073352 29 INFO dfs.FSNamesystem: BLOCK* NameSystem.addStoredBlock: blockMap updated: 10.250.13.240:50010 is added to blk_252915902657247440 size 67108864
081111 073352 29 INFO dfs.FSNamesystem: BLOCK* NameSystem.addStoredBlock: blockMap updated: 10.250.15.240:50010 is added to blk_4602466817855196049 size 67108864
081111 073352 29 INFO dfs.FSNamesystem: BLOCK* NameSystem.addStoredBlock: blockMap updated: 10.251.126.22:50010 is added to blk_595618999346784680 size 67108864
081111 073352 29 INFO dfs.FSNamesystem: BLOCK* NameSystem.addStoredBlock: blockMap updated: 10.251.194.213:50010 is added to blk_366735371509047184 size 67108864
081111 073352 29 INFO dfs.FSNamesystem: BLOCK* NameSystem.addStoredBlock: blockMap updated: 10.251.30.6:50010 is added to blk_-7710918368747999878 size 67108864
081111 073352 29 INFO dfs.FSNamesystem: BLOCK* NameSystem.allocateBlock: /user/root/rand6/_temporary/_task_200811101024_0013_m_001334_0/part-01334. blk_5702717353186963014
081111 073352 29 INFO dfs.FSNamesystem: BLOCK* NameSystem.allocateBlock: /user/root/rand6/_temporary/_task_200811101024_0013_m_001366_0/part-01366. blk_8435044184815783418
081111 073352 30 INFO dfs.FSNamesystem: BLOCK* NameSystem.addStoredBlock: blockMap updated: 10.250.11.53:50010 is added to blk_-2589663584448035119 size 67108864
081111 073352 30 INFO dfs.FSNamesystem: BLOCK* NameSystem.addStoredBlock: blockMap updated: 10.251.107.98:50010 is added to blk_-2589663584448035119 size 67108864
081111 073352 30 INFO dfs.FSNamesystem: BLOCK* NameSystem.addStoredBlock: blockMap updated: 10.251.125.237:50010 is added to blk_587723546996795296 size 67108864
081111 073352 30 INFO dfs.FSNamesystem: BLOCK* NameSystem.allocateBlock: /user/root/rand6/_temporary/_task_200811101024_0013_m_001300_0/part-01300. blk_4825944986006458112
081111 073352 31 INFO dfs.FSNamesystem: BLOCK* NameSystem.addStoredBlock: blockMap updated: 10.251.202.134:50010 is added to blk_297169430204198104 size 67108864
081111 073352 31 INFO dfs.FSNamesystem: BLOCK* NameSystem.addStoredBlock: blockMap updated: 10.251.214.130:50010 is added to blk_-6831356933582035420 size 67108864
081111 073352 31 INFO dfs.FSNamesystem: BLOCK* NameSystem.addStoredBlock: blockMap updated: 10.251.71.146:50010 is added to blk_-4340999966377146426 size 67108864
081111 073352 31 INFO dfs.FSNamesystem: BLOCK* NameSystem.addStoredBlock: blockMap updated: 10.251.73.220:50010 is added to blk_595618999346784680 size 67108864
081111 073352 32 INFO dfs.FSNamesystem: BLOCK* NameSystem.addStoredBlock: blockMap updated: 10.250.7.96:50010 is added to blk_297169430204198104 size 67108864
081111 073352 32 INFO dfs.FSNamesystem: BLOCK* NameSystem.addStoredBlock: blockMap updated: 10.251.107.98:50010 is added to blk_-5174808014557207239 size 67108864
081111 073352 32 INFO dfs.FSNamesystem: BLOCK* NameSystem.addStoredBlock: blockMap updated: 10.251.74.192:50010 is added to blk_6698925149152115941 size 67108864
081111 073352 32 INFO dfs.FSNamesystem: BLOCK* NameSystem.addStoredBlock: blockMap updated: 10.251.90.239:50010 is added to blk_587723546996795296 size 67108864
081111 073352 32 INFO dfs.FSNamesystem: BLOCK* NameSystem.allocateBlock: /user/root/rand6/_temporary/_task_200811101024_0013_m_001257_0/part-01257. blk_-7022304599830435257
081111 073352 32 INFO dfs.FSNamesystem: BLOCK* NameSystem.allocateBlock: /user/root/rand6/_temporary/_task_200811101024_0013_m_001280_0/part-01280. blk_-1271497378075702959
081111 073352 33 INFO dfs.FSNamesystem: BLOCK* NameSystem.addStoredBlock: blockMap updated: 10.250.13.240:50010 is added to blk_-5567029310162445507 size 67108864
081111 073352 33 INFO dfs.FSNamesystem: BLOCK* NameSystem.addStoredBlock: blockMap updated: 10.250.14.38:50010 is added to blk_-6257212098225907287 size 67108864
081111 073352 33 INFO dfs.FSNamesystem: BLOCK* NameSystem.addStoredBlock: blockMap updated: 10.251.126.83:50010 is added to blk_7897102853522830133 size 67108864
081111 073352 33 INFO dfs.FSNamesystem: BLOCK* NameSystem.addStoredBlock: blockMap updated: 10.251.195.70:50010 is added to blk_-2589663584448035119 size 67108864
081111 073352 33 INFO dfs.FSNamesystem: BLOCK* NameSystem.addStoredBlock: blockMap updated: 10.251.71.193:50010 is added to blk_4901082828926777846 size 67108864
081111 073352 33 INFO dfs.FSNamesystem: BLOCK* NameSystem.addStoredBlock: blockMap updated: 10.251.74.134:50010 is added to blk_-7051756300356485815 size 67108864
081111 073352 33 INFO dfs.FSNamesystem: BLOCK* NameSystem.addStoredBlock: blockMap updated: 10.251.75.228:50010 is added to blk_587723546996795296 size 67108864
081111 073352 33 INFO dfs.FSNamesystem: BLOCK* NameSystem.allocateBlock: /user/root/rand6/_temporary/_task_200811101024_0013_m_001175_0/part-01175. blk_-1323028620976347044
081111 073352 33 INFO dfs.FSNamesystem: BLOCK* NameSystem.allocateBlock: /user/root/rand6/_temporary/_task_200811101024_0013_m_001205_0/part-01205. blk_-4256441874699048860
081111 073352 34 INFO dfs.FSNamesystem: BLOCK* NameSystem.addStoredBlock: blockMap updated: 10.251.66.3:50010 is added to blk_-4340999966377146426 size 67108864
081111 073352 34 INFO dfs.FSNamesystem: BLOCK* NameSystem.allocateBlock: /user/root/rand6/_temporary/_task_200811101024_0013_m_001530_0/part-01530. blk_1220880474534303912
081111 073352 35 INFO dfs.FSNamesystem: BLOCK* NameSystem.addStoredBlock: blockMap updated: 10.250.11.194:50010 is added to blk_2954499346399805490 size 67108864
081111 073352 35 INFO dfs.FSNamesystem: BLOCK* NameSystem.addStoredBlock: blockMap updated: 10.251.123.1:50010 is added to blk_7289390389991179643 size 67108864
081111 073352 35 INFO dfs.FSNamesystem: BLOCK* NameSystem.addStoredBlock: blockMap updated: 10.251.214.130:50010 is added to blk_8533303972868610068 size 67108864
081111 073352 35 INFO dfs.FSNamesystem: BLOCK* NameSystem.addStoredBlock: blockMap updated: 10.251.214.175:50010 is added to blk_297169430204198104 size 67108864
081111 073352 35 INFO dfs.FSNamesystem: BLOCK* NameSystem.addStoredBlock: blockMap updated: 10.251.214.175:50010 is added to blk_-7710918368747999878 size 67108864
081111 073352 35 INFO dfs.FSNamesystem: BLOCK* NameSystem.addStoredBlock: blockMap updated: 10.251.38.53:50010 is added to blk_-5567029310162445507 size 67108864
081111 073352 35 INFO dfs.FSNamesystem: BLOCK* NameSystem.addStoredBlock: blockMap updated: 10.251.75.228:50010 is added to blk_7897102853522830133 size 67108864
081111 073352 35 INFO dfs.FSNamesystem: BLOCK* NameSystem.allocateBlock: /user/root/rand6/_temporary/_task_200811101024_0013_m_001398_0/part-01398. blk_9219455883532387117
081111 073352 35 INFO dfs.FSNamesystem: BLOCK* NameSystem.allocateBlock: /user/root/rand6/_temporary/_task_200811101024_0013_m_001426_0/part-01426. blk_-2326390045501274356
081111 073353 22970 INFO dfs.DataNode$DataXceiver: Receiving block blk_-2439258618688602538 src: /10.251.75.228:40969 dest: /10.251.75.228:50010
081111 073353 23129 INFO dfs.DataNode$DataXceiver: Receiving block blk_-2439258618688602538 src: /10.251.37.240:48477 dest: /10.251.37.240:50010
081111 073353 23159 INFO dfs.DataNode$PacketResponder: PacketResponder 2 for block blk_-7710918368747999878 terminating
081111 073353 23159 INFO dfs.DataNode$PacketResponder: Received block blk_-7710918368747999878 of size 67108864 from /10.250.11.85
081111 073353 23176 INFO dfs.DataNode$DataXceiver: Receiving block blk_2981506059549270384 src: /10.250.11.85:42994 dest: /10.250.11.85:50010
081111 073353 23177 INFO dfs.DataNode$DataXceiver: Receiving block blk_5274173422751608469 src: /10.251.195.52:51921 dest: /10.251.195.52:50010
081111 073353 23183 INFO dfs.DataNode$PacketResponder: PacketResponder 2 for block blk_595618999346784680 terminating
081111 073353 23183 INFO dfs.DataNode$PacketResponder: Received block blk_595618999346784680 of size 67108864 from /10.251.214.225
081111 073353 23191 INFO dfs.DataNode$DataXceiver: Receiving block blk_-9016195756076132478 src: /10.251.195.33:39003 dest: /10.251.195.33:50010
081111 073353 23200 INFO dfs.DataNode$DataXceiver: Receiving block blk_-8906053712875860636 src: /10.251.214.225:39583 dest: /10.251.214.225:50010
081111 073353 23204 INFO dfs.DataNode$PacketResponder: PacketResponder 2 for block blk_2954499346399805490 terminating
081111 073353 23204 INFO dfs.DataNode$PacketResponder: Received block blk_2954499346399805490 of size 67108864 from /10.251.30.134
081111 073353 23215 INFO dfs.DataNode$DataXceiver: Receiving block blk_-9016195756076132478 src: /10.251.30.134:44508 dest: /10.251.30.134:50010
081111 073353 23216 INFO dfs.DataNode$PacketResponder: PacketResponder 2 for block blk_-1492132727725526879 terminating
081111 073353 23216 INFO dfs.DataNode$PacketResponder: Received block blk_-1492132727725526879 of size 67108864 from /10.251.195.52
081111 073353 23227 INFO dfs.DataNode$DataXceiver: Receiving block blk_5274173422751608469 src: /10.251.195.52:43318 dest: /10.251.195.52:50010
081111 073353 23241 INFO dfs.DataNode$PacketResponder: PacketResponder 2 for block blk_366735371509047184 terminating
081111 073353 23241 INFO dfs.DataNode$PacketResponder: Received block blk_366735371509047184 of size 67108864 from /10.250.17.177
081111 073353 23248 INFO dfs.DataNode$DataXceiver: Receiving block blk_-6707351183436138693 src: /10.250.17.177:42293 dest: /10.250.17.177:50010
081111 073353 23269 INFO dfs.DataNode$DataXceiver: Receiving block blk_-9203577290369896974 src: /10.251.126.22:37216 dest: /10.251.126.22:50010
081111 073353 23278 INFO dfs.DataNode$PacketResponder: PacketResponder 1 for block blk_3507384206094486809 terminating
081111 073353 23278 INFO dfs.DataNode$PacketResponder: Received block blk_3507384206094486809 of size 67108864 from /10.251.126.22
081111 073353 23284 INFO dfs.DataNode$DataXceiver: Receiving block blk_-2326390045501274356 src: /10.251.106.50:45054 dest: /10.251.106.50:50010
081111 073353 23290 INFO dfs.DataNode$DataXceiver: Receiving block blk_-3469406533922901450 src: /10.251.75.79:35205 dest: /10.251.75.79:50010
081111 073353 23311 INFO dfs.DataNode$PacketResponder: PacketResponder 1 for block blk_7809289665429952300 terminating
081111 073353 23311 INFO dfs.DataNode$PacketResponder: Received block blk_7809289665429952300 of size 67108864 from /10.251.111.209
081111 073353 23324 INFO dfs.DataNode$DataXceiver: Receiving block blk_-1271497378075702959 src: /10.251.71.146:48875 dest: /10.251.71.146:50010
081111 073353 23330 INFO dfs.DataNode$PacketResponder: PacketResponder 1 for block blk_8053933711856388231 terminating
081111 073353 23330 INFO dfs.DataNode$PacketResponder: Received block blk_8053933711856388231 of size 67108864 from /10.251.123.20
081111 073353 23343 INFO dfs.DataNode$DataXceiver: Receiving block blk_-2026231181852124276 src: /10.251.126.22:50432 dest: /10.251.126.22:50010
081111 073353 23344 INFO dfs.DataNode$DataXceiver: Receiving block blk_5702717353186963014 src: /10.251.67.4:51515 dest: /10.251.67.4:50010
081111 073353 23350 INFO dfs.DataNode$PacketResponder: PacketResponder 0 for block blk_-3739872893385821197 terminating
081111 073353 23350 INFO dfs.DataNode$PacketResponder: Received block blk_-3739872893385821197 of size 67108864 from /10.251.107.19
081111 073353 23378 INFO dfs.DataNode$PacketResponder: PacketResponder 0 for block blk_8053933711856388231 terminating
081111 073353 23378 INFO dfs.DataNode$PacketResponder: Received block blk_8053933711856388231 of size 67108864 from /10.251.71.97
081111 073353 23381 INFO dfs.DataNode$PacketResponder: PacketResponder 1 for block blk_595618999346784680 terminating
081111 073353 23387 INFO dfs.DataNode$PacketResponder: PacketResponder 2 for block blk_3507384206094486809 terminating
081111 073353 23387 INFO dfs.DataNode$PacketResponder: Received block blk_3507384206094486809 of size 67108864 from /10.251.126.22
081111 073353 23389 INFO dfs.DataNode$PacketResponder: PacketResponder 1 for block blk_2954499346399805490 terminating
081111 073353 23389 INFO dfs.DataNode$PacketResponder: Received block blk_2954499346399805490 of size 67108864 from /10.251.30.134
081111 073353 23390 INFO dfs.DataNode$PacketResponder: PacketResponder 2 for block blk_6698925149152115941 terminating
081111 073353 23390 INFO dfs.DataNode$PacketResponder: Received block blk_6698925149152115941 of size 67108864 from /10.251.37.240
081111 073353 23391 INFO dfs.DataNode$PacketResponder: PacketResponder 0 for block blk_7809289665429952300 terminating
081111 073353 23391 INFO dfs.DataNode$PacketResponder: Received block blk_7809289665429952300 of size 67108864 from /10.251.111.130
081111 073353 23395 INFO dfs.DataNode$DataXceiver: Receiving block blk_2981506059549270384 src: /10.250.11.85:48716 dest: /10.250.11.85:50010
081111 073353 23399 INFO dfs.DataNode$DataXceiver: Receiving block blk_1220880474534303912 src: /10.251.42.246:33773 dest: /10.251.42.246:50010
081111 073353 23399 INFO dfs.DataNode$DataXceiver: Receiving block blk_-3340348884715339810 src: /10.251.37.240:39728 dest: /10.251.37.240:50010
081111 073353 23402 INFO dfs.DataNode$DataXceiver: Receiving block blk_-9203577290369896974 src: /10.251.126.22:36371 dest: /10.251.126.22:50010
081111 073353 23404 INFO dfs.DataNode$DataXceiver: Receiving block blk_-1323028620976347044 src: /10.250.17.225:47973 dest: /10.250.17.225:50010
081111 073353 23405 INFO dfs.DataNode$DataXceiver: Receiving block blk_-3340348884715339810 src: /10.251.37.240:40079 dest: /10.251.37.240:50010
081111 073353 23406 INFO dfs.DataNode$DataXceiver: Receiving block blk_-2439258618688602538 src: /10.251.75.228:37229 dest: /10.251.75.228:50010
081111 073353 23410 INFO dfs.DataNode$DataXceiver: Receiving block blk_-4755476295177469263 src: /10.251.43.147:40207 dest: /10.251.43.147:50010
081111 073353 23419 INFO dfs.DataNode$DataXceiver: Receiving block blk_7606145103482420638 src: /10.251.89.155:57952 dest: /10.251.89.155:50010
081111 073353 23509 INFO dfs.DataNode$PacketResponder: PacketResponder 2 for block blk_7809289665429952300 terminating
081111 073353 23509 INFO dfs.DataNode$PacketResponder: Received block blk_7809289665429952300 of size 67108864 from /10.251.111.209
081111 073353 23516 INFO dfs.DataNode$DataXceiver: Receiving block blk_7606145103482420638 src: /10.251.89.155:35845 dest: /10.251.89.155:50010
081111 073353 23520 INFO dfs.DataNode$PacketResponder: PacketResponder 2 for block blk_8053933711856388231 terminating
081111 073353 23520 INFO dfs.DataNode$PacketResponder: Received block blk_8053933711856388231 of size 67108864 from /10.251.123.20
081111 073353 23524 INFO dfs.DataNode$DataXceiver: Receiving block blk_3986899688542652085 src: /10.251.111.209:60097 dest: /10.251.111.209:50010
081111 073353 23529 INFO dfs.DataNode$DataXceiver: Receiving block blk_-5671760940483200469 src: /10.251.123.20:60337 dest: /10.251.123.20:50010
081111 073353 23550 INFO dfs.DataNode$DataXceiver: Receiving block blk_-3941232241645854336 src: /10.250.6.223:41548 dest: /10.250.6.223:50010
081111 073353 23551 INFO dfs.DataNode$DataXceiver: Receiving block blk_-9016195756076132478 src: /10.251.30.134:49905 dest: /10.251.30.134:50010
081111 073353 23575 INFO dfs.DataNode$PacketResponder: PacketResponder 2 for block blk_7897102853522830133 terminating
081111 073353 23575 INFO dfs.DataNode$PacketResponder: Received block blk_7897102853522830133 of size 67108864 from /10.251.75.79
081111 073353 23588 INFO dfs.DataNode$DataXceiver: Receiving block blk_-3469406533922901450 src: /10.251.75.79:55033 dest: /10.251.75.79:50010
081111 073353 23609 INFO dfs.DataNode$PacketResponder: PacketResponder 0 for block blk_3507384206094486809 terminating
081111 073353 23609 INFO dfs.DataNode$PacketResponder: Received block blk_3507384206094486809 of size 67108864 from /10.251.42.207
081111 073353 23690 INFO dfs.DataNode$DataXceiver: Receiving block blk_-3469406533922901450 src: /10.251.106.50:47248 dest: /10.251.106.50:50010
081111 073353 23696 INFO dfs.DataNode$DataXceiver: Receiving block blk_-6707351183436138693 src: /10.250.17.177:56083 dest: /10.250.17.177:50010
081111 073353 23848 INFO dfs.DataNode$DataXceiver: Receiving block blk_-8906053712875860636 src: /10.251.214.225:40948 dest: /10.251.214.225:50010
081111 073353 26 INFO dfs.FSNamesystem: BLOCK* NameSystem.allocateBlock: /user/root/rand6/_temporary/_task_200811101024_0013_m_001471_0/part-01471. blk_-9203577290369896974
081111 073353 27 INFO dfs.FSNamesystem: BLOCK* NameSystem.addStoredBlock: blockMap updated: 10.251.126.22:50010 is added to blk_2954499346399805490 size 67108864
081111 073353 27 INFO dfs.FSNamesystem: BLOCK* NameSystem.addStoredBlock: blockMap updated: 10.251.199.225:50010 is added to blk_7809289665429952300 size 67108864
081111 073353 27 INFO dfs.FSNamesystem: BLOCK* NameSystem.allocateBlock: /user/root/rand6/_temporary/_task_200811101024_0013_m_001407_0/part-01407. blk_-5671760940483200469
081111 073353 28 INFO dfs.FSNamesystem: BLOCK* NameSystem.addStoredBlock: blockMap updated: 10.251.126.22:50010 is added to blk_3507384206094486809 size 67108864
081111 073353 28 INFO dfs.FSNamesystem: BLOCK* NameSystem.allocateBlock: /user/root/rand6/_temporary/_task_200811101024_0013_m_001180_0/part-01180. blk_3986899688542652085
081111 073353 28 INFO dfs.FSNamesystem: BLOCK* NameSystem.allocateBlock: /user/root/rand6/_temporary/_task_200811101024_0013_m_001306_0/part-01306. blk_-9016195756076132478
081111 073353 29 INFO dfs.FSNamesystem: BLOCK* NameSystem.allocateBlock: /user/root/rand6/_temporary/_task_200811101024_0013_m_001335_0/part-01335. blk_7606145103482420638
081111 073353 30 INFO dfs.FSNamesystem: BLOCK* NameSystem.allocateBlock: /user/root/rand6/_temporary/_task_200811101024_0013_m_001337_0/part-01337. blk_-3340348884715339810
081111 073353 30 INFO dfs.FSNamesystem: BLOCK* NameSystem.allocateBlock: /user/root/rand6/_temporary/_task_200811101024_0013_m_001363_0/part-01363. blk_5274173422751608469
081111 073353 31 INFO dfs.FSNamesystem: BLOCK* NameSystem.addStoredBlock: blockMap updated: 10.251.39.144:50010 is added to blk_3507384206094486809 size 67108864
081111 073353 31 INFO dfs.FSNamesystem: BLOCK* NameSystem.addStoredBlock: blockMap updated: 10.251.71.97:50010 is added to blk_8053933711856388231 size 67108864
081111 073353 31 INFO dfs.FSNamesystem: BLOCK* NameSystem.allocateBlock: /user/root/rand6/_temporary/_task_200811101024_0013_m_001332_0/part-01332. blk_-3469406533922901450
081111 073353 31 INFO dfs.FSNamesystem: BLOCK* NameSystem.allocateBlock: /user/root/rand6/_temporary/_task_200811101024_0013_m_001346_0/part-01346. blk_2981506059549270384
081111 073353 32 INFO dfs.FSNamesystem: BLOCK* NameSystem.addStoredBlock: blockMap updated: 10.251.111.209:50010 is added to blk_7809289665429952300 size 67108864
081111 073353 32 INFO dfs.FSNamesystem: BLOCK* NameSystem.addStoredBlock: blockMap updated: 10.251.195.52:50010 is added to blk_-1492132727725526879 size 67108864
081111 073353 32 INFO dfs.FSNamesystem: BLOCK* NameSystem.addStoredBlock: blockMap updated: 10.251.30.134:50010 is added to blk_2954499346399805490 size 67108864
081111 073353 32 INFO dfs.FSNamesystem: BLOCK* NameSystem.allocateBlock: /user/root/rand6/_temporary/_task_200811101024_0013_m_001293_0/part-01293. blk_-2439258618688602538
081111 073353 33 INFO dfs.FSNamesystem: BLOCK* NameSystem.addStoredBlock: blockMap updated: 10.251.42.207:50010 is added to blk_3507384206094486809 size 67108864
081111 073353 33 INFO dfs.FSNamesystem: BLOCK* NameSystem.allocateBlock: /user/root/rand6/_temporary/_task_200811101024_0013_m_001536_0/part-01536. blk_-8906053712875860636
081111 073353 34 INFO dfs.FSNamesystem: BLOCK* NameSystem.addStoredBlock: blockMap updated: 10.250.11.85:50010 is added to blk_-7710918368747999878 size 67108864
081111 073353 34 INFO dfs.FSNamesystem: BLOCK* NameSystem.addStoredBlock: blockMap updated: 10.251.123.20:50010 is added to blk_8053933711856388231 size 67108864
081111 073353 34 INFO dfs.FSNamesystem: BLOCK* NameSystem.addStoredBlock: blockMap updated: 10.251.67.4:50010 is added to blk_8053933711856388231 size 67108864
081111 073353 34 INFO dfs.FSNamesystem: BLOCK* NameSystem.addStoredBlock: blockMap updated: 10.251.75.79:50010 is added to blk_7897102853522830133 size 67108864
081111 073353 35 INFO dfs.FSNamesystem: BLOCK* NameSystem.addStoredBlock: blockMap updated: 10.251.111.130:50010 is added to blk_7809289665429952300 size 67108864
081111 073353 35 INFO dfs.FSNamesystem: BLOCK* NameSystem.addStoredBlock: blockMap updated: 10.251.214.225:50010 is added to blk_595618999346784680 size 67108864
081111 073353 35 INFO dfs.FSNamesystem: BLOCK* NameSystem.addStoredBlock: blockMap updated: 10.251.37.240:50010 is added to blk_6698925149152115941 size 67108864
081111 073354 13 INFO dfs.DataBlockScanner: Verification succeeded for blk_2811591954233808878
081111 073354 13 INFO dfs.DataBlockScanner: Verification succeeded for blk_-353661613697395662
081111 073354 19 INFO dfs.FSNamesystem: BLOCK* ask 10.250.6.223:50010 to replicate blk_-5345804896129443106 to datanode(s) 10.251.37.240:50010
081111 073354 22824 INFO dfs.DataNode$PacketResponder: PacketResponder 1 for block blk_-4024823204218944502 terminating
081111 073354 22824 INFO dfs.DataNode$PacketResponder: Received block blk_-4024823204218944502 of size 67108864 from /10.251.65.237
081111 073354 22836 INFO dfs.DataNode$DataXceiver: Receiving block blk_5905098662507773624 src: /10.251.74.192:58317 dest: /10.251.74.192:50010
081111 073354 22885 INFO dfs.DataNode$PacketResponder: PacketResponder 0 for block blk_98954015084552822 terminating
081111 073354 22885 INFO dfs.DataNode$PacketResponder: Received block blk_98954015084552822 of size 67108864 from /10.251.90.64
081111 073354 22913 INFO dfs.DataNode$DataXceiver: Receiving block blk_-6576816019263633846 src: /10.251.193.224:38806 dest: /10.251.193.224:50010
081111 073354 23078 INFO dfs.DataNode$PacketResponder: PacketResponder 1 for block blk_-2059593107720611442 terminating
081111 073354 23078 INFO dfs.DataNode$PacketResponder: Received block blk_-2059593107720611442 of size 3537325 from /10.251.123.1
081111 073354 23079 INFO dfs.DataNode$DataXceiver: Receiving block blk_-5671760940483200469 src: /10.251.123.20:40069 dest: /10.251.123.20:50010
081111 073354 23155 INFO dfs.DataNode$PacketResponder: PacketResponder 1 for block blk_98954015084552822 terminating
081111 073354 23155 INFO dfs.DataNode$PacketResponder: Received block blk_98954015084552822 of size 67108864 from /10.250.10.176
081111 073354 23163 INFO dfs.DataNode$PacketResponder: PacketResponder 0 for block blk_4560965565498917575 terminating
081111 073354 23163 INFO dfs.DataNode$PacketResponder: PacketResponder 1 for block blk_-7051756300356485815 terminating
081111 073354 23163 INFO dfs.DataNode$PacketResponder: Received block blk_4560965565498917575 of size 67108864 from /10.251.126.255
081111 073354 23163 INFO dfs.DataNode$PacketResponder: Received block blk_-7051756300356485815 of size 67108864 from /10.251.126.22
081111 073354 23165 INFO dfs.DataNode$PacketResponder: PacketResponder 0 for block blk_7449237736673755687 terminating
081111 073354 23165 INFO dfs.DataNode$PacketResponder: Received block blk_7449237736673755687 of size 67108864 from /10.250.7.244
081111 073354 23167 INFO dfs.DataNode$PacketResponder: PacketResponder 0 for block blk_-4024823204218944502 terminating
081111 073354 23167 INFO dfs.DataNode$PacketResponder: Received block blk_-4024823204218944502 of size 67108864 from /10.251.203.179
081111 073354 23191 INFO dfs.DataNode$PacketResponder: PacketResponder 1 for block blk_-5345804896129443106 terminating
081111 073354 23191 INFO dfs.DataNode$PacketResponder: Received block blk_-5345804896129443106 of size 3557450 from /10.250.6.223
081111 073354 23196 INFO dfs.DataNode$DataXceiver: Receiving block blk_-6707351183436138693 src: /10.250.10.144:43141 dest: /10.250.10.144:50010
081111 073354 23208 INFO dfs.DataNode$PacketResponder: PacketResponder 2 for block blk_4092125578903269229 terminating
081111 073354 23208 INFO dfs.DataNode$PacketResponder: Received block blk_4092125578903269229 of size 67108864 from /10.251.73.188
081111 073354 23211 INFO dfs.DataNode$DataXceiver: Receiving block blk_8016581680180544267 src: /10.251.42.16:50047 dest: /10.251.42.16:50010
081111 073354 23219 INFO dfs.DataNode$PacketResponder: PacketResponder 2 for block blk_7449237736673755687 terminating
081111 073354 23219 INFO dfs.DataNode$PacketResponder: Received block blk_7449237736673755687 of size 67108864 from /10.251.74.192
081111 073354 23221 INFO dfs.DataNode$DataXceiver: Receiving block blk_3154508581854791748 src: /10.251.73.188:47130 dest: /10.251.73.188:50010
081111 073354 23228 INFO dfs.DataNode$DataXceiver: Receiving block blk_8016581680180544267 src: /10.251.65.237:35469 dest: /10.251.65.237:50010
081111 073354 23229 INFO dfs.DataNode$DataXceiver: Receiving block blk_5905098662507773624 src: /10.251.74.192:55231 dest: /10.251.74.192:50010
081111 073354 23282 INFO dfs.DataNode$PacketResponder: PacketResponder 1 for block blk_-8574754554962448342 terminating
081111 073354 23282 INFO dfs.DataNode$PacketResponder: Received block blk_-8574754554962448342 of size 67108864 from /10.251.193.224
081111 073354 23283 INFO dfs.DataNode$PacketResponder: PacketResponder 2 for block blk_-8574754554962448342 terminating
081111 073354 23283 INFO dfs.DataNode$PacketResponder: Received block blk_-8574754554962448342 of size 67108864 from /10.251.193.224
081111 073354 23298 INFO dfs.DataNode$DataXceiver: Receiving block blk_-6576816019263633846 src: /10.251.193.224:53805 dest: /10.251.193.224:50010
081111 073354 23303 INFO dfs.DataNode$PacketResponder: PacketResponder 0 for block blk_4092125578903269229 terminating
081111 073354 23303 INFO dfs.DataNode$PacketResponder: Received block blk_4092125578903269229 of size 67108864 from /10.251.43.115
081111 073354 23320 INFO dfs.DataNode$PacketResponder: PacketResponder 1 for block blk_7585382560435126380 terminating
081111 073354 23320 INFO dfs.DataNode$PacketResponder: Received block blk_7585382560435126380 of size 67108864 from /10.251.75.49
081111 073354 23324 INFO dfs.DataNode$PacketResponder: PacketResponder 1 for block blk_7449237736673755687 terminating
081111 073354 23324 INFO dfs.DataNode$PacketResponder: Received block blk_7449237736673755687 of size 67108864 from /10.251.74.192
081111 073354 23332 INFO dfs.DataNode$DataXceiver: Receiving block blk_5274173422751608469 src: /10.251.203.149:49442 dest: /10.251.203.149:50010
081111 073354 23337 INFO dfs.DataNode$DataXceiver: Receiving block blk_-9203577290369896974 src: /10.251.214.175:60813 dest: /10.251.214.175:50010
081111 073354 23344 INFO dfs.DataNode$PacketResponder: PacketResponder 2 for block blk_98954015084552822 terminating
081111 073354 23344 INFO dfs.DataNode$PacketResponder: Received block blk_98954015084552822 of size 67108864 from /10.250.10.176
081111 073354 23345 INFO dfs.DataNode$DataXceiver: Receiving block blk_-1426642155863178763 src: /10.250.11.194:59203 dest: /10.250.11.194:50010
081111 073354 23359 INFO dfs.DataNode$DataXceiver: Receiving block blk_-3209460324043607148 src: /10.250.10.176:41441 dest: /10.250.10.176:50010
081111 073354 23361 INFO dfs.DataNode$DataXceiver: Receiving block blk_-8906053712875860636 src: /10.250.11.194:52737 dest: /10.250.11.194:50010
081111 073354 23362 INFO dfs.DataNode$PacketResponder: PacketResponder 0 for block blk_3423837092033737194 terminating
081111 073354 23362 INFO dfs.DataNode$PacketResponder: Received block blk_3423837092033737194 of size 67108864 from /10.250.14.38
081111 073354 23363 INFO dfs.DataNode$DataXceiver: Receiving block blk_-1520307461276052041 src: /10.251.109.209:36439 dest: /10.251.109.209:50010
081111 073354 23374 INFO dfs.DataNode$PacketResponder: PacketResponder 2 for block blk_-2059593107720611442 terminating
081111 073354 23374 INFO dfs.DataNode$PacketResponder: Received block blk_-2059593107720611442 of size 3537325 from /10.251.123.1
081111 073354 23378 INFO dfs.DataNode$DataXceiver: Receiving block blk_3986899688542652085 src: /10.251.111.209:53649 dest: /10.251.111.209:50010
081111 073354 23386 INFO dfs.DataNode$PacketResponder: PacketResponder 2 for block blk_-7051756300356485815 terminating
081111 073354 23386 INFO dfs.DataNode$PacketResponder: Received block blk_-7051756300356485815 of size 67108864 from /10.251.126.22
081111 073354 23393 INFO dfs.DataNode$PacketResponder: PacketResponder 2 for block blk_-4024823204218944502 terminating
081111 073354 23393 INFO dfs.DataNode$PacketResponder: Received block blk_-4024823204218944502 of size 67108864 from /10.251.65.237
081111 073354 23399 INFO dfs.DataNode$PacketResponder: PacketResponder 1 for block blk_-4883570325853632307 terminating
081111 073354 23399 INFO dfs.DataNode$PacketResponder: Received block blk_-4883570325853632307 of size 67108864 from /10.251.194.102
081111 073354 23403 INFO dfs.DataNode$DataXceiver: Receiving block blk_5139689250936318560 src: /10.251.126.22:36373 dest: /10.251.126.22:50010
081111 073354 23404 INFO dfs.DataNode$DataXceiver: Receiving block blk_5905098662507773624 src: /10.251.203.179:58327 dest: /10.251.203.179:50010
081111 073354 23405 INFO dfs.DataNode$DataXceiver: Receiving block blk_5139689250936318560 src: /10.251.126.22:38341 dest: /10.251.126.22:50010
081111 073354 23406 INFO dfs.DataNode$DataXceiver: Receiving block blk_8016581680180544267 src: /10.251.65.237:49325 dest: /10.251.65.237:50010
081111 073354 23409 INFO dfs.DataNode$DataXceiver: Receiving block blk_-6576816019263633846 src: /10.251.203.246:60382 dest: /10.251.203.246:50010
081111 073354 23416 INFO dfs.DataNode$PacketResponder: PacketResponder 0 for block blk_-4883570325853632307 terminating
081111 073354 23416 INFO dfs.DataNode$PacketResponder: Received block blk_-4883570325853632307 of size 67108864 from /10.250.17.225
081111 073354 23429 INFO dfs.DataNode$PacketResponder: PacketResponder 1 for block blk_4092125578903269229 terminating
081111 073354 23429 INFO dfs.DataNode$PacketResponder: Received block blk_4092125578903269229 of size 67108864 from /10.251.73.188
081111 073354 23438 INFO dfs.DataNode$PacketResponder: PacketResponder 2 for block blk_7585382560435126380 terminating
081111 073354 23438 INFO dfs.DataNode$PacketResponder: Received block blk_7585382560435126380 of size 67108864 from /10.251.75.49
081111 073354 23457 INFO dfs.DataNode$DataXceiver: Receiving block blk_-8536319903247806497 src: /10.251.75.49:41199 dest: /10.251.75.49:50010
081111 073354 23463 INFO dfs.DataNode$PacketResponder: PacketResponder 2 for block blk_-5345804896129443106 terminating
081111 073354 23463 INFO dfs.DataNode$PacketResponder: Received block blk_-5345804896129443106 of size 3557450 from /10.250.6.223
081111 073354 23468 INFO dfs.DataNode$DataXceiver: Receiving block blk_2981506059549270384 src: /10.251.194.129:47451 dest: /10.251.194.129:50010
081111 073354 23496 INFO dfs.DataNode$PacketResponder: PacketResponder 0 for block blk_-2059593107720611442 terminating
081111 073354 23496 INFO dfs.DataNode$PacketResponder: Received block blk_-2059593107720611442 of size 3537325 from /10.250.14.224
081111 073354 23506 INFO dfs.DataNode$DataXceiver: Receiving block blk_-1520307461276052041 src: /10.250.18.114:33603 dest: /10.250.18.114:50010
081111 073354 23536 INFO dfs.DataNode$DataXceiver: Receiving block blk_-8536319903247806497 src: /10.251.75.49:38288 dest: /10.251.75.49:50010
081111 073354 23575 INFO dfs.DataNode$DataXceiver: Receiving block blk_-1520307461276052041 src: /10.251.109.209:41765 dest: /10.251.109.209:50010
081111 073354 23577 INFO dfs.DataNode$DataXceiver: Receiving block blk_3154508581854791748 src: /10.251.73.188:48264 dest: /10.251.73.188:50010
081111 073354 23590 INFO dfs.DataNode$DataXceiver: Receiving block blk_-8536319903247806497 src: /10.251.67.211:41741 dest: /10.251.67.211:50010
081111 073354 23602 INFO dfs.DataNode$PacketResponder: PacketResponder 1 for block blk_-3739872893385821197 terminating
081111 073354 23602 INFO dfs.DataNode$PacketResponder: Received block blk_-3739872893385821197 of size 67108864 from /10.250.11.194
081111 073354 23619 INFO dfs.DataNode$PacketResponder: PacketResponder 0 for block blk_-5345804896129443106 terminating
081111 073354 23619 INFO dfs.DataNode$PacketResponder: Received block blk_-5345804896129443106 of size 3557450 from /10.251.67.113
081111 073354 23647 INFO dfs.DataNode$DataXceiver: Receiving block blk_3986899688542652085 src: /10.251.107.196:45604 dest: /10.251.107.196:50010
081111 073354 23698 INFO dfs.DataNode$DataXceiver: Receiving block blk_3154508581854791748 src: /10.250.18.114:43771 dest: /10.250.18.114:50010
081111 073354 23720 INFO dfs.DataNode$PacketResponder: PacketResponder 0 for block blk_-8574754554962448342 terminating
081111 073354 23720 INFO dfs.DataNode$PacketResponder: Received block blk_-8574754554962448342 of size 67108864 from /10.251.42.207
081111 073354 23832 INFO dfs.DataNode$PacketResponder: PacketResponder 2 for block blk_-3739872893385821197 terminating
081111 073354 23832 INFO dfs.DataNode$PacketResponder: Received block blk_-3739872893385821197 of size 67108864 from /10.250.11.194
081111 073354 23850 INFO dfs.DataNode$DataXceiver: Receiving block blk_-1426642155863178763 src: /10.250.11.194:40207 dest: /10.250.11.194:50010
081111 073354 26 INFO dfs.FSNamesystem: BLOCK* NameSystem.addStoredBlock: blockMap updated: 10.250.14.224:50010 is added to blk_-2059593107720611442 size 3537325
081111 073354 26 INFO dfs.FSNamesystem: BLOCK* NameSystem.addStoredBlock: blockMap updated: 10.250.5.161:50010 is added to blk_4092125578903269229 size 67108864
081111 073354 26 INFO dfs.FSNamesystem: BLOCK* NameSystem.addStoredBlock: blockMap updated: 10.250.7.230:50010 is added to blk_-2059593107720611442 size 3537325
081111 073354 26 INFO dfs.FSNamesystem: BLOCK* NameSystem.addStoredBlock: blockMap updated: 10.251.71.193:50010 is added to blk_-5345804896129443106 size 3557450
081111 073354 26 INFO dfs.FSNamesystem: BLOCK* NameSystem.allocateBlock: /user/root/rand6/_temporary/_task_200811101024_0013_m_001216_0/part-01216. blk_-6576816019263633846
081111 073354 26 INFO dfs.FSNamesystem: BLOCK* NameSystem.allocateBlock: /user/root/rand6/_temporary/_task_200811101024_0013_m_001514_0/part-01514. blk_8016581680180544267
081111 073354 27 INFO dfs.FSNamesystem: BLOCK* NameSystem.addStoredBlock: blockMap updated: 10.250.11.100:50010 is added to blk_-4883570325853632307 size 67108864
081111 073354 27 INFO dfs.FSNamesystem: BLOCK* NameSystem.addStoredBlock: blockMap updated: 10.251.90.64:50010 is added to blk_98954015084552822 size 67108864
081111 073354 27 INFO dfs.FSNamesystem: BLOCK* NameSystem.allocateBlock: /user/root/rand6/_temporary/_task_200811101024_0013_m_001548_0/part-01548. blk_5139689250936318560
081111 073354 28 INFO dfs.FSNamesystem: BLOCK* NameSystem.addStoredBlock: blockMap updated: 10.250.7.244:50010 is added to blk_-1808992505794891339 size 67108864
081111 073354 28 INFO dfs.FSNamesystem: BLOCK* NameSystem.addStoredBlock: blockMap updated: 10.250.7.244:50010 is added to blk_7449237736673755687 size 67108864
081111 073354 28 INFO dfs.FSNamesystem: BLOCK* NameSystem.addStoredBlock: blockMap updated: 10.250.7.244:50010 is added to blk_7585382560435126380 size 67108864
081111 073354 28 INFO dfs.FSNamesystem: BLOCK* NameSystem.addStoredBlock: blockMap updated: 10.251.27.63:50010 is added to blk_-8574754554962448342 size 67108864
081111 073354 28 INFO dfs.FSNamesystem: BLOCK* NameSystem.addStoredBlock: blockMap updated: 10.251.42.207:50010 is added to blk_-8574754554962448342 size 67108864
081111 073354 28 INFO dfs.FSNamesystem: BLOCK* NameSystem.addStoredBlock: blockMap updated: 10.251.65.237:50010 is added to blk_-4024823204218944502 size 67108864
081111 073354 29 INFO dfs.FSNamesystem: BLOCK* NameSystem.addStoredBlock: blockMap updated: 10.251.123.1:50010 is added to blk_-3739872893385821197 size 67108864
081111 073354 29 INFO dfs.FSNamesystem: BLOCK* NameSystem.addStoredBlock: blockMap updated: 10.251.42.9:50010 is added to blk_-4024823204218944502 size 67108864
081111 073354 29 INFO dfs.FSNamesystem: BLOCK* NameSystem.addStoredBlock: blockMap updated: 10.251.42.9:50010 is added to blk_-7051756300356485815 size 67108864
081111 073354 29 INFO dfs.FSNamesystem: BLOCK* NameSystem.addStoredBlock: blockMap updated: 10.251.42.9:50010 is added to blk_7449237736673755687 size 67108864
081111 073354 30 INFO dfs.FSNamesystem: BLOCK* NameSystem.addStoredBlock: blockMap updated: 10.250.11.194:50010 is added to blk_-3739872893385821197 size 67108864
081111 073354 30 INFO dfs.FSNamesystem: BLOCK* NameSystem.addStoredBlock: blockMap updated: 10.251.126.22:50010 is added to blk_-7051756300356485815 size 67108864
081111 073354 30 INFO dfs.FSNamesystem: BLOCK* NameSystem.allocateBlock: /user/root/rand6/_temporary/_task_200811101024_0013_m_001264_0/part-01264. blk_-8536319903247806497
081111 073354 31 INFO dfs.FSNamesystem: BLOCK* NameSystem.addStoredBlock: blockMap updated: 10.250.17.225:50010 is added to blk_-4883570325853632307 size 67108864
081111 073354 31 INFO dfs.FSNamesystem: BLOCK* NameSystem.addStoredBlock: blockMap updated: 10.251.123.1:50010 is added to blk_3423837092033737194 size 67108864
081111 073354 31 INFO dfs.FSNamesystem: BLOCK* NameSystem.allocateBlock: /user/root/rand6/_temporary/_task_200811101024_0013_m_001329_0/part-01329. blk_3154508581854791748
081111 073354 32 INFO dfs.FSNamesystem: BLOCK* NameSystem.addStoredBlock: blockMap updated: 10.251.193.224:50010 is added to blk_-8574754554962448342 size 67108864
081111 073354 32 INFO dfs.FSNamesystem: BLOCK* NameSystem.addStoredBlock: blockMap updated: 10.251.90.64:50010 is added to blk_4560965565498917575 size 67108864
081111 073354 32 INFO dfs.FSNamesystem: BLOCK* NameSystem.allocateBlock: /user/root/rand6/_temporary/_task_200811101024_0013_m_001222_0/part-01222. blk_-1426642155863178763
081111 073354 32 INFO dfs.FSNamesystem: BLOCK* NameSystem.allocateBlock: /user/root/rand6/_temporary/_task_200811101024_0013_m_001449_0/part-01449. blk_5905098662507773624
081111 073354 32 INFO dfs.FSNamesystem: BLOCK* NameSystem.allocateBlock: /user/root/rand6/_temporary/_task_200811101024_0013_m_001568_0/part-01568. blk_-1520307461276052041
081111 073354 33 INFO dfs.FSNamesystem: BLOCK* NameSystem.addStoredBlock: blockMap updated: 10.251.123.1:50010 is added to blk_-2059593107720611442 size 3537325
081111 073354 33 INFO dfs.FSNamesystem: BLOCK* NameSystem.addStoredBlock: blockMap updated: 10.251.43.115:50010 is added to blk_4092125578903269229 size 67108864
081111 073354 33 INFO dfs.FSNamesystem: BLOCK* NameSystem.addStoredBlock: blockMap updated: 10.251.67.113:50010 is added to blk_-5345804896129443106 size 3557450
081111 073354 33 INFO dfs.FSNamesystem: BLOCK* NameSystem.addStoredBlock: blockMap updated: 10.251.74.192:50010 is added to blk_7449237736673755687 size 67108864
081111 073354 33 INFO dfs.FSNamesystem: BLOCK* NameSystem.allocateBlock: /user/root/rand6/_temporary/_task_200811101024_0013_m_001224_0/part-01224. blk_-3209460324043607148
081111 073354 34 INFO dfs.FSNamesystem: BLOCK* NameSystem.addStoredBlock: blockMap updated: 10.250.6.223:50010 is added to blk_-5345804896129443106 size 3557450
081111 073354 34 INFO dfs.FSNamesystem: BLOCK* NameSystem.addStoredBlock: blockMap updated: 10.251.203.179:50010 is added to blk_-4024823204218944502 size 67108864
081111 073354 34 INFO dfs.FSNamesystem: BLOCK* NameSystem.addStoredBlock: blockMap updated: 10.251.73.188:50010 is added to blk_4092125578903269229 size 67108864
081111 073354 34 INFO dfs.FSNamesystem: BLOCK* NameSystem.addStoredBlock: blockMap updated: 10.251.75.49:50010 is added to blk_7585382560435126380 size 67108864
081111 073354 35 INFO dfs.FSNamesystem: BLOCK* NameSystem.addStoredBlock: blockMap updated: 10.250.10.176:50010 is added to blk_98954015084552822 size 67108864
081111 073354 35 INFO dfs.FSNamesystem: BLOCK* NameSystem.addStoredBlock: blockMap updated: 10.251.107.19:50010 is added to blk_-3739872893385821197 size 67108864
081111 073354 35 INFO dfs.FSNamesystem: BLOCK* NameSystem.addStoredBlock: blockMap updated: 10.251.203.80:50010 is added to blk_98954015084552822 size 67108864
081111 073355 19 INFO dfs.DataNode: 10.250.6.223:50010 Starting thread to transfer block blk_-5345804896129443106 to 10.251.37.240:50010
081111 073355 22970 INFO dfs.DataNode$DataXceiver: Receiving block blk_-4843134819010299366 src: /10.251.123.195:59448 dest: /10.251.123.195:50010
081111 073355 23064 INFO dfs.DataNode$PacketResponder: PacketResponder 0 for block blk_4835580985638980787 terminating
081111 073355 23064 INFO dfs.DataNode$PacketResponder: Received block blk_4835580985638980787 of size 67108864 from /10.251.35.1
081111 073355 23082 INFO dfs.DataNode$DataXceiver: Receiving block blk_-1324493395244173158 src: /10.250.15.67:50618 dest: /10.250.15.67:50010
081111 073355 23161 INFO dfs.DataNode$DataXceiver: Receiving block blk_-4843134819010299366 src: /10.251.123.195:48557 dest: /10.251.123.195:50010
081111 073355 23168 INFO dfs.DataNode$PacketResponder: PacketResponder 0 for block blk_-121367379554300530 terminating
081111 073355 23168 INFO dfs.DataNode$PacketResponder: Received block blk_-121367379554300530 of size 67108864 from /10.251.193.175
081111 073355 23176 INFO dfs.DataNode$PacketResponder: PacketResponder 1 for block blk_4835580985638980787 terminating
081111 073355 23176 INFO dfs.DataNode$PacketResponder: Received block blk_4835580985638980787 of size 67108864 from /10.251.122.65
081111 073355 23191 INFO dfs.DataNode$PacketResponder: PacketResponder 2 for block blk_-4291081651712505919 terminating
081111 073355 23191 INFO dfs.DataNode$PacketResponder: Received block blk_-4291081651712505919 of size 67108864 from /10.250.10.100
081111 073355 23198 INFO dfs.DataNode$PacketResponder: PacketResponder 1 for block blk_-2706254284961883341 terminating
081111 073355 23198 INFO dfs.DataNode$PacketResponder: Received block blk_-2706254284961883341 of size 67108864 from /10.251.71.240
081111 073355 23262 INFO dfs.DataNode$PacketResponder: PacketResponder 0 for block blk_-230450015471375386 terminating
081111 073355 23262 INFO dfs.DataNode$PacketResponder: Received block blk_-230450015471375386 of size 67108864 from /10.250.13.188
081111 073355 23270 INFO dfs.DataNode$DataXceiver: Receiving block blk_-3209460324043607148 src: /10.250.6.4:56810 dest: /10.250.6.4:50010
081111 073355 23278 INFO dfs.DataNode$PacketResponder: PacketResponder 2 for block blk_4835580985638980787 terminating
081111 073355 23278 INFO dfs.DataNode$PacketResponder: Received block blk_4835580985638980787 of size 67108864 from /10.251.122.65
081111 073355 23286 INFO dfs.DataNode$DataXceiver: Receiving block blk_4825944986006458112 src: /10.250.13.240:48834 dest: /10.250.13.240:50010
081111 073355 23287 INFO dfs.DataNode$PacketResponder: PacketResponder 2 for block blk_887074582282066864 terminating
081111 073355 23287 INFO dfs.DataNode$PacketResponder: Received block blk_887074582282066864 of size 67108864 from /10.251.29.239
081111 073355 23305 INFO dfs.DataNode$DataXceiver: Receiving block blk_-7457778540583977203 src: /10.251.123.20:43789 dest: /10.251.123.20:50010
081111 073355 23316 INFO dfs.DataNode$DataXceiver: Receiving block blk_7606145103482420638 src: /10.251.121.224:52239 dest: /10.251.121.224:50010
081111 073355 23321 INFO dfs.DataNode$PacketResponder: PacketResponder 0 for block blk_-2102312108961657348 terminating
081111 073355 23321 INFO dfs.DataNode$PacketResponder: Received block blk_-2102312108961657348 of size 67108864 from /10.250.7.32
081111 073355 23329 INFO dfs.DataNode$PacketResponder: PacketResponder 0 for block blk_-4291081651712505919 terminating
081111 073355 23329 INFO dfs.DataNode$PacketResponder: Received block blk_-4291081651712505919 of size 67108864 from /10.251.90.81
081111 073355 23330 INFO dfs.DataNode$PacketResponder: PacketResponder 1 for block blk_-230450015471375386 terminating
081111 073355 23330 INFO dfs.DataNode$PacketResponder: Received block blk_-230450015471375386 of size 67108864 from /10.251.110.8
081111 073355 23340 INFO dfs.DataNode$PacketResponder: PacketResponder 1 for block blk_887074582282066864 terminating
081111 073355 23340 INFO dfs.DataNode$PacketResponder: Received block blk_887074582282066864 of size 67108864 from /10.251.29.239
081111 073355 23346 INFO dfs.DataNode$PacketResponder: PacketResponder 1 for block blk_-8146476151461013751 terminating
081111 073355 23346 INFO dfs.DataNode$PacketResponder: Received block blk_-8146476151461013751 of size 67108864 from /10.251.126.255
081111 073355 23364 INFO dfs.DataNode$PacketResponder: PacketResponder 2 for block blk_-3644406009041103559 terminating
081111 073355 23364 INFO dfs.DataNode$PacketResponder: Received block blk_-3644406009041103559 of size 67108864 from /10.251.107.196
081111 073355 23369 INFO dfs.DataNode$PacketResponder: PacketResponder 0 for block blk_-8146476151461013751 terminating
081111 073355 23369 INFO dfs.DataNode$PacketResponder: PacketResponder 1 for block blk_-2102312108961657348 terminating
081111 073355 23369 INFO dfs.DataNode$PacketResponder: Received block blk_-2102312108961657348 of size 67108864 from /10.251.107.196
081111 073355 23369 INFO dfs.DataNode$PacketResponder: Received block blk_-8146476151461013751 of size 67108864 from /10.251.109.209
081111 073355 23377 INFO dfs.DataNode$DataXceiver: Receiving block blk_-3209460324043607148 src: /10.250.10.176:36132 dest: /10.250.10.176:50010
081111 073355 23383 INFO dfs.DataNode$PacketResponder: PacketResponder 2 for block blk_-230450015471375386 terminating
081111 073355 23383 INFO dfs.DataNode$PacketResponder: Received block blk_-230450015471375386 of size 67108864 from /10.251.110.8
081111 073355 23389 INFO dfs.DataNode$DataXceiver: Receiving block blk_-227556465250196834 src: /10.251.110.8:42491 dest: /10.251.110.8:50010
081111 073355 23410 INFO dfs.DataNode$DataXceiver: Receiving block blk_-5345804896129443106 src: /10.250.6.223:54334 dest: /10.250.6.223:50010
081111 073355 23410 INFO dfs.DataNode$PacketResponder: PacketResponder 1 for block blk_-3644406009041103559 terminating
081111 073355 23410 INFO dfs.DataNode$PacketResponder: Received block blk_-3644406009041103559 of size 67108864 from /10.251.107.196
081111 073355 23412 INFO dfs.DataNode$DataXceiver: Receiving block blk_-3941232241645854336 src: /10.251.195.33:39556 dest: /10.251.195.33:50010
081111 073355 23447 INFO dfs.DataNode$PacketResponder: PacketResponder 0 for block blk_-807489604009545746 terminating
081111 073355 23447 INFO dfs.DataNode$PacketResponder: Received block blk_-807489604009545746 of size 67108864 from /10.251.111.209
081111 073355 23458 INFO dfs.DataNode$PacketResponder: PacketResponder 0 for block blk_-2706254284961883341 terminating
081111 073355 23458 INFO dfs.DataNode$PacketResponder: Received block blk_-2706254284961883341 of size 67108864 from /10.251.125.193
081111 073355 23489 INFO dfs.DataNode$DataXceiver: Receiving block blk_-227556465250196834 src: /10.251.110.8:39500 dest: /10.251.110.8:50010
081111 073355 23491 INFO dfs.DataNode$DataXceiver: Receiving block blk_-520194219828663887 src: /10.251.106.37:53067 dest: /10.251.106.37:50010
081111 073355 23515 INFO dfs.DataNode$PacketResponder: PacketResponder 0 for block blk_-3644406009041103559 terminating
081111 073355 23515 INFO dfs.DataNode$PacketResponder: PacketResponder 1 for block blk_-807489604009545746 terminating
081111 073355 23515 INFO dfs.DataNode$PacketResponder: Received block blk_-3644406009041103559 of size 67108864 from /10.251.70.211
081111 073355 23515 INFO dfs.DataNode$PacketResponder: Received block blk_-807489604009545746 of size 67108864 from /10.251.123.20
081111 073355 23516 INFO dfs.DataNode$PacketResponder: PacketResponder 2 for block blk_-807489604009545746 terminating
081111 073355 23516 INFO dfs.DataNode$PacketResponder: Received block blk_-807489604009545746 of size 67108864 from /10.251.123.20
081111 073355 23519 INFO dfs.DataNode$PacketResponder: PacketResponder 0 for block blk_-8320298407576356835 terminating
081111 073355 23519 INFO dfs.DataNode$PacketResponder: Received block blk_-8320298407576356835 of size 67108864 from /10.251.30.179
081111 073355 23530 INFO dfs.DataNode$DataXceiver: Receiving block blk_-7457778540583977203 src: /10.251.123.20:60339 dest: /10.251.123.20:50010
081111 073355 23550 INFO dfs.DataNode$DataXceiver: Receiving block blk_4825944986006458112 src: /10.251.199.19:57217 dest: /10.251.199.19:50010
081111 073355 23558 INFO dfs.DataNode$PacketResponder: PacketResponder 2 for block blk_-2706254284961883341 terminating
081111 073355 23558 INFO dfs.DataNode$PacketResponder: Received block blk_-2706254284961883341 of size 67108864 from /10.251.71.240
081111 073355 23571 INFO dfs.DataNode$DataXceiver: Receiving block blk_8584402150374232253 src: /10.251.71.240:51205 dest: /10.251.71.240:50010
081111 073355 23574 INFO dfs.DataNode$PacketResponder: PacketResponder 0 for block blk_-6817516363264172721 terminating
081111 073355 23574 INFO dfs.DataNode$PacketResponder: Received block blk_-6817516363264172721 of size 67108864 from /10.251.194.102
081111 073355 23576 INFO dfs.DataNode$PacketResponder: PacketResponder 0 for block blk_2518044522596232869 terminating
081111 073355 23576 INFO dfs.DataNode$PacketResponder: Received block blk_2518044522596232869 of size 67108864 from /10.250.10.223
081111 073355 23585 INFO dfs.DataNode$PacketResponder: PacketResponder 1 for block blk_-4291081651712505919 terminating
081111 073355 23585 INFO dfs.DataNode$PacketResponder: Received block blk_-4291081651712505919 of size 67108864 from /10.250.10.100
081111 073355 23724 INFO dfs.DataNode$PacketResponder: PacketResponder 0 for block blk_887074582282066864 terminating
081111 073355 23724 INFO dfs.DataNode$PacketResponder: Received block blk_887074582282066864 of size 67108864 from /10.251.123.1
081111 073355 26 INFO dfs.FSNamesystem: BLOCK* NameSystem.addStoredBlock: blockMap updated: 10.250.10.100:50010 is added to blk_-4291081651712505919 size 67108864
081111 073355 26 INFO dfs.FSNamesystem: BLOCK* NameSystem.addStoredBlock: blockMap updated: 10.250.13.188:50010 is added to blk_-230450015471375386 size 67108864
081111 073355 26 INFO dfs.FSNamesystem: BLOCK* NameSystem.addStoredBlock: blockMap updated: 10.251.125.193:50010 is added to blk_-2706254284961883341 size 67108864
081111 073355 26 INFO dfs.FSNamesystem: BLOCK* NameSystem.addStoredBlock: blockMap updated: 10.251.35.1:50010 is added to blk_4835580985638980787 size 67108864
081111 073355 26 INFO dfs.FSNamesystem: BLOCK* NameSystem.addStoredBlock: blockMap updated: 10.251.90.81:50010 is added to blk_-4291081651712505919 size 67108864
081111 073355 26 INFO dfs.FSNamesystem: BLOCK* NameSystem.allocateBlock: /user/root/rand6/_temporary/_task_200811101024_0013_m_001256_0/part-01256. blk_8584402150374232253
081111 073355 26 INFO dfs.FSNamesystem: BLOCK* NameSystem.allocateBlock: /user/root/rand6/_temporary/_task_200811101024_0013_m_001277_0/part-01277. blk_-7457778540583977203
081111 073355 27 INFO dfs.FSNamesystem: BLOCK* NameSystem.addStoredBlock: blockMap updated: 10.251.106.214:50010 is added to blk_-121367379554300530 size 67108864
081111 073355 27 INFO dfs.FSNamesystem: BLOCK* NameSystem.addStoredBlock: blockMap updated: 10.251.70.211:50010 is added to blk_-3644406009041103559 size 67108864
081111 073355 27 INFO dfs.FSNamesystem: BLOCK* NameSystem.addStoredBlock: blockMap updated: 10.251.71.146:50010 is added to blk_-2102312108961657348 size 67108864
081111 073355 27 INFO dfs.FSNamesystem: BLOCK* NameSystem.addStoredBlock: blockMap updated: 10.251.71.240:50010 is added to blk_-2706254284961883341 size 67108864
081111 073355 27 INFO dfs.FSNamesystem: BLOCK* NameSystem.allocateBlock: /user/root/rand6/_temporary/_task_200811101024_0013_m_001569_0/part-01569. blk_-4843134819010299366
081111 073355 28 INFO dfs.FSNamesystem: BLOCK* NameSystem.addStoredBlock: blockMap updated: 10.250.14.224:50010 is added to blk_4835580985638980787 size 67108864
081111 073355 28 INFO dfs.FSNamesystem: BLOCK* NameSystem.addStoredBlock: blockMap updated: 10.250.7.32:50010 is added to blk_-2102312108961657348 size 67108864
081111 073355 28 INFO dfs.FSNamesystem: BLOCK* NameSystem.addStoredBlock: blockMap updated: 10.251.111.209:50010 is added to blk_-807489604009545746 size 67108864
081111 073355 28 INFO dfs.FSNamesystem: BLOCK* NameSystem.addStoredBlock: blockMap updated: 10.251.123.20:50010 is added to blk_-3644406009041103559 size 67108864
081111 073355 28 INFO dfs.FSNamesystem: BLOCK* NameSystem.addStoredBlock: blockMap updated: 10.251.197.226:50010 is added to blk_2518044522596232869 size 67108864
081111 073355 28 INFO dfs.FSNamesystem: BLOCK* NameSystem.addStoredBlock: blockMap updated: 10.251.197.226:50010 is added to blk_-6817516363264172721 size 67108864
081111 073355 28 INFO dfs.FSNamesystem: BLOCK* NameSystem.addStoredBlock: blockMap updated: 10.251.75.143:50010 is added to blk_-8146476151461013751 size 67108864
081111 073355 30 INFO dfs.FSNamesystem: BLOCK* NameSystem.addStoredBlock: blockMap updated: 10.251.109.209:50010 is added to blk_-8146476151461013751 size 67108864
081111 073355 30 INFO dfs.FSNamesystem: BLOCK* NameSystem.addStoredBlock: blockMap updated: 10.251.110.8:50010 is added to blk_-230450015471375386 size 67108864
081111 073355 30 INFO dfs.FSNamesystem: BLOCK* NameSystem.addStoredBlock: blockMap updated: 10.251.123.1:50010 is added to blk_887074582282066864 size 67108864
081111 073355 31 INFO dfs.FSNamesystem: BLOCK* NameSystem.addStoredBlock: blockMap updated: 10.251.122.65:50010 is added to blk_4835580985638980787 size 67108864
081111 073355 31 INFO dfs.FSNamesystem: BLOCK* NameSystem.addStoredBlock: blockMap updated: 10.251.123.20:50010 is added to blk_-807489604009545746 size 67108864
081111 073355 31 INFO dfs.FSNamesystem: BLOCK* NameSystem.addStoredBlock: blockMap updated: 10.251.74.134:50010 is added to blk_887074582282066864 size 67108864
081111 073355 31 INFO dfs.FSNamesystem: BLOCK* NameSystem.allocateBlock: /user/root/rand6/_temporary/_task_200811101024_0013_m_001179_0/part-01179. blk_-227556465250196834
081111 073355 31 INFO dfs.FSNamesystem: BLOCK* NameSystem.allocateBlock: /user/root/rand6/_temporary/_task_200811101024_0013_m_001181_0/part-01181. blk_-4001877386354451250
081111 073355 32 INFO dfs.FSNamesystem: BLOCK* NameSystem.addStoredBlock: blockMap updated: 10.250.6.223:50010 is added to blk_-2706254284961883341 size 67108864
081111 073355 32 INFO dfs.FSNamesystem: BLOCK* NameSystem.addStoredBlock: blockMap updated: 10.251.29.239:50010 is added to blk_887074582282066864 size 67108864
081111 073355 32 INFO dfs.FSNamesystem: BLOCK* NameSystem.addStoredBlock: blockMap updated: 10.251.31.85:50010 is added to blk_-807489604009545746 size 67108864
081111 073355 32 INFO dfs.FSNamesystem: BLOCK* NameSystem.addStoredBlock: blockMap updated: 10.251.43.21:50010 is added to blk_-230450015471375386 size 67108864
081111 073355 33 INFO dfs.FSNamesystem: BLOCK* NameSystem.addStoredBlock: blockMap updated: 10.251.26.131:50010 is added to blk_-4291081651712505919 size 67108864
081111 073355 34 INFO dfs.FSNamesystem: BLOCK* NameSystem.allocateBlock: /user/root/rand6/_temporary/_task_200811101024_0013_m_001360_0/part-01360. blk_1258132887026366830
081111 073355 35 INFO dfs.FSNamesystem: BLOCK* NameSystem.allocateBlock: /user/root/rand6/_temporary/_task_200811101024_0013_m_001349_0/part-01349. blk_6609877602522707467
081111 073356 17855 INFO dfs.DataNode$DataXceiver: Receiving block blk_-9063767684245444028 src: /10.250.13.188:43700 dest: /10.250.13.188:50010
081111 073356 22852 INFO dfs.DataNode$DataXceiver: Receiving block blk_1258132887026366830 src: /10.251.75.49:41643 dest: /10.251.75.49:50010
081111 073356 22914 INFO dfs.DataNode$PacketResponder: PacketResponder 1 for block blk_-6576816019263633846 terminating
081111 073356 22914 INFO dfs.DataNode$PacketResponder: Received block blk_-6576816019263633846 of size 3537207 from /10.251.193.224
081111 073356 22983 INFO dfs.DataNode$PacketResponder: PacketResponder 2 for block blk_3423837092033737194 terminating
081111 073356 22983 INFO dfs.DataNode$PacketResponder: Received block blk_3423837092033737194 of size 67108864 from /10.251.111.37
081111 073356 22990 INFO dfs.DataNode$DataXceiver: Receiving block blk_4259561907735291943 src: /10.251.111.37:44128 dest: /10.251.111.37:50010
081111 073356 23064 INFO dfs.DataNode$DataXceiver: Receiving block blk_3358580012833223309 src: /10.251.125.193:51648 dest: /10.251.125.193:50010
081111 073356 23065 INFO dfs.DataNode$DataXceiver: Receiving block blk_5126192773154114934 src: /10.251.123.132:48011 dest: /10.251.123.132:50010
081111 073356 23068 INFO dfs.DataNode$PacketResponder: PacketResponder 1 for block blk_-643890363889539168 terminating
081111 073356 23068 INFO dfs.DataNode$PacketResponder: Received block blk_-643890363889539168 of size 67108864 from /10.250.17.225
081111 073356 23072 INFO dfs.DataNode$DataXceiver: Receiving block blk_4259561907735291943 src: /10.251.111.37:33911 dest: /10.251.111.37:50010
081111 073356 23074 INFO dfs.DataNode$PacketResponder: PacketResponder 1 for block blk_-4506213048594999801 terminating
081111 073356 23074 INFO dfs.DataNode$PacketResponder: Received block blk_-4506213048594999801 of size 67108864 from /10.251.39.179
081111 073356 23099 INFO dfs.DataNode$PacketResponder: PacketResponder 2 for block blk_-8467516481303781162 terminating
081111 073356 23099 INFO dfs.DataNode$PacketResponder: Received block blk_-8467516481303781162 of size 67108864 from /10.251.39.209
081111 073356 23106 INFO dfs.DataNode$DataXceiver: Receiving block blk_-9217155040479329911 src: /10.251.39.209:43622 dest: /10.251.39.209:50010
081111 073356 23131 INFO dfs.DataNode$DataXceiver: Receiving block blk_2572013903212692076 src: /10.251.110.8:44768 dest: /10.251.110.8:50010
081111 073356 23155 INFO dfs.DataNode$DataXceiver: Receiving block blk_5126192773154114934 src: /10.251.39.179:36408 dest: /10.251.39.179:50010
081111 073356 23158 INFO dfs.DataNode$PacketResponder: PacketResponder 1 for block blk_-550893701514900318 terminating
081111 073356 23158 INFO dfs.DataNode$PacketResponder: Received block blk_-550893701514900318 of size 67108864 from /10.251.35.1
081111 073356 23162 INFO dfs.DataNode$PacketResponder: PacketResponder 0 for block blk_-550893701514900318 terminating
081111 073356 23162 INFO dfs.DataNode$PacketResponder: Received block blk_-550893701514900318 of size 67108864 from /10.251.73.220
081111 073356 23178 INFO dfs.DataNode$PacketResponder: PacketResponder 1 for block blk_-8467516481303781162 terminating
081111 073356 23178 INFO dfs.DataNode$PacketResponder: PacketResponder 2 for block blk_-550893701514900318 terminating
081111 073356 23178 INFO dfs.DataNode$PacketResponder: Received block blk_-550893701514900318 of size 67108864 from /10.251.35.1
081111 073356 23178 INFO dfs.DataNode$PacketResponder: Received block blk_-8467516481303781162 of size 67108864 from /10.251.39.209
081111 073356 23181 INFO dfs.DataNode$PacketResponder: PacketResponder 0 for block blk_-6010485324099949729 terminating
081111 073356 23181 INFO dfs.DataNode$PacketResponder: Received block blk_-6010485324099949729 of size 67108864 from /10.251.199.19
081111 073356 23183 INFO dfs.DataNode$PacketResponder: PacketResponder 0 for block blk_38594368642766214 terminating
081111 073356 23183 INFO dfs.DataNode$PacketResponder: Received block blk_38594368642766214 of size 67108864 from /10.251.122.79
081111 073356 23193 INFO dfs.DataNode$DataXceiver: Receiving block blk_-4845275419547250191 src: /10.251.35.1:50280 dest: /10.251.35.1:50010
081111 073356 23194 INFO dfs.DataNode$DataXceiver: Receiving block blk_-9217155040479329911 src: /10.251.39.209:44274 dest: /10.251.39.209:50010
081111 073356 23195 INFO dfs.DataNode$PacketResponder: PacketResponder 2 for block blk_7651729449875439504 terminating
081111 073356 23195 INFO dfs.DataNode$PacketResponder: Received block blk_7651729449875439504 of size 67108864 from /10.251.125.193
081111 073356 23197 INFO dfs.DataNode$DataXceiver: Receiving block blk_3112157099486801031 src: /10.250.10.100:43912 dest: /10.250.10.100:50010
081111 073356 23205 INFO dfs.DataNode$DataXceiver: Receiving block blk_3358580012833223309 src: /10.251.125.193:60375 dest: /10.251.125.193:50010
081111 073356 23213 INFO dfs.DataNode$DataXceiver: Receiving block blk_-9063767684245444028 src: /10.251.123.33:45633 dest: /10.251.123.33:50010
081111 073356 23231 INFO dfs.DataNode$DataXceiver: Receiving block blk_3358580012833223309 src: /10.251.203.166:60385 dest: /10.251.203.166:50010
081111 073356 23266 INFO dfs.DataNode$PacketResponder: PacketResponder 1 for block blk_-8320298407576356835 terminating
081111 073356 23266 INFO dfs.DataNode$PacketResponder: Received block blk_-8320298407576356835 of size 67108864 from /10.250.13.188
081111 073356 23267 INFO dfs.DataNode$PacketResponder: PacketResponder 0 for block blk_7651729449875439504 terminating
081111 073356 23267 INFO dfs.DataNode$PacketResponder: Received block blk_7651729449875439504 of size 67108864 from /10.250.7.32
081111 073356 23273 INFO dfs.DataNode$PacketResponder: PacketResponder 2 for block blk_-8550661790014032291 terminating
081111 073356 23273 INFO dfs.DataNode$PacketResponder: Received block blk_-8550661790014032291 of size 67108864 from /10.251.199.19
081111 073356 23289 INFO dfs.DataNode$DataXceiver: Receiving block blk_6609877602522707467 src: /10.251.122.65:37567 dest: /10.251.122.65:50010
081111 073356 23294 INFO dfs.DataNode$PacketResponder: PacketResponder 1 for block blk_747750531690405917 terminating
081111 073356 23294 INFO dfs.DataNode$PacketResponder: Received block blk_747750531690405917 of size 67108864 from /10.251.198.196
081111 073356 23295 INFO dfs.DataNode$PacketResponder: PacketResponder 1 for block blk_-8550661790014032291 terminating
081111 073356 23295 INFO dfs.DataNode$PacketResponder: Received block blk_-8550661790014032291 of size 67108864 from /10.251.199.19
081111 073356 23299 INFO dfs.DataNode$PacketResponder: PacketResponder 2 for block blk_-6576816019263633846 terminating
081111 073356 23299 INFO dfs.DataNode$PacketResponder: Received block blk_-6576816019263633846 of size 3537207 from /10.251.193.224
081111 073356 23309 INFO dfs.DataNode$PacketResponder: PacketResponder 0 for block blk_747750531690405917 terminating
081111 073356 23309 INFO dfs.DataNode$PacketResponder: Received block blk_747750531690405917 of size 67108864 from /10.251.110.160
081111 073356 23314 INFO dfs.DataNode$DataXceiver: Receiving block blk_-4001877386354451250 src: /10.251.29.239:49415 dest: /10.251.29.239:50010
081111 073356 23316 INFO dfs.DataNode$PacketResponder: PacketResponder 1 for block blk_2518044522596232869 terminating
081111 073356 23316 INFO dfs.DataNode$PacketResponder: Received block blk_2518044522596232869 of size 67108864 from /10.251.215.192
081111 073356 23326 INFO dfs.DataNode$PacketResponder: PacketResponder 2 for block blk_-8320298407576356835 terminating
081111 073356 23326 INFO dfs.DataNode$PacketResponder: Received block blk_-8320298407576356835 of size 67108864 from /10.250.13.188
081111 073356 23328 INFO dfs.DataNode$PacketResponder: PacketResponder 1 for block blk_3423837092033737194 terminating
081111 073356 23328 INFO dfs.DataNode$PacketResponder: Received block blk_3423837092033737194 of size 67108864 from /10.251.111.37
081111 073356 23339 INFO dfs.DataNode$DataXceiver: Receiving block blk_-5671760940483200469 src: /10.250.14.224:34033 dest: /10.250.14.224:50010
081111 073356 23341 INFO dfs.DataNode$DataXceiver: Receiving block blk_-9063767684245444028 src: /10.250.13.188:57319 dest: /10.250.13.188:50010
081111 073356 23362 INFO dfs.DataNode$PacketResponder: PacketResponder 2 for block blk_-2102312108961657348 terminating
081111 073356 23362 INFO dfs.DataNode$PacketResponder: Received block blk_-2102312108961657348 of size 67108864 from /10.251.107.196
081111 073356 23371 INFO dfs.DataNode$PacketResponder: PacketResponder 0 for block blk_1062432411647010180 terminating
081111 073356 23371 INFO dfs.DataNode$PacketResponder: Received block blk_1062432411647010180 of size 67108864 from /10.251.127.191
081111 073356 23373 INFO dfs.DataNode$PacketResponder: PacketResponder 1 for block blk_7651729449875439504 terminating
081111 073356 23373 INFO dfs.DataNode$PacketResponder: Received block blk_7651729449875439504 of size 67108864 from /10.251.125.193
081111 073356 23375 INFO dfs.DataNode$DataXceiver: Receiving block blk_-7457778540583977203 src: /10.251.125.237:60447 dest: /10.251.125.237:50010
081111 073356 23381 INFO dfs.DataNode$DataXceiver: Receiving block blk_1258132887026366830 src: /10.251.107.196:55949 dest: /10.251.107.196:50010
081111 073356 23382 INFO dfs.DataNode$DataXceiver: Receiving block blk_6811667203151931196 src: /10.251.197.226:50598 dest: /10.251.197.226:50010
081111 073356 23383 INFO dfs.DataNode$DataXceiver: Receiving block blk_2572013903212692076 src: /10.251.107.196:55951 dest: /10.251.107.196:50010
081111 073356 23385 INFO dfs.DataNode$PacketResponder: PacketResponder 1 for block blk_2786459272248227558 terminating
081111 073356 23385 INFO dfs.DataNode$PacketResponder: Received block blk_2786459272248227558 of size 67108864 from /10.251.107.19
081111 073356 23390 INFO dfs.DataNode$DataXceiver: Receiving block blk_2572013903212692076 src: /10.251.107.196:43650 dest: /10.251.107.196:50010
081111 073356 23393 INFO dfs.DataNode$PacketResponder: PacketResponder 2 for block blk_-643890363889539168 terminating
081111 073356 23393 INFO dfs.DataNode$PacketResponder: Received block blk_-643890363889539168 of size 67108864 from /10.250.17.225
081111 073356 23407 INFO dfs.DataNode$PacketResponder: PacketResponder 0 for block blk_-8550661790014032291 terminating
081111 073356 23407 INFO dfs.DataNode$PacketResponder: Received block blk_-8550661790014032291 of size 67108864 from /10.250.14.196
081111 073356 23410 INFO dfs.DataNode$DataXceiver: Received block blk_-5345804896129443106 src: /10.250.6.223:54334 dest: /10.250.6.223:50010 of size 3557450
081111 073356 23410 INFO dfs.DataNode$PacketResponder: PacketResponder 0 for block blk_-6576816019263633846 terminating
081111 073356 23410 INFO dfs.DataNode$PacketResponder: Received block blk_-6576816019263633846 of size 3537207 from /10.251.203.246
081111 073356 23413 INFO dfs.DataNode$DataXceiver: Receiving block blk_-227556465250196834 src: /10.251.127.47:60588 dest: /10.251.127.47:50010
081111 073356 23436 INFO dfs.DataNode$PacketResponder: PacketResponder 0 for block blk_-643890363889539168 terminating
081111 073356 23436 INFO dfs.DataNode$PacketResponder: Received block blk_-643890363889539168 of size 67108864 from /10.251.197.161
081111 073356 23459 INFO dfs.DataNode$DataXceiver: Receiving block blk_1258132887026366830 src: /10.251.107.196:55528 dest: /10.251.107.196:50010
081111 073356 23464 INFO dfs.DataNode$DataTransfer: 10.250.6.223:50010:Transmitted block blk_-5345804896129443106 to /10.251.37.240:50010
081111 073356 23481 INFO dfs.DataNode$PacketResponder: PacketResponder 2 for block blk_-4506213048594999801 terminating
081111 073356 23481 INFO dfs.DataNode$PacketResponder: Received block blk_-4506213048594999801 of size 67108864 from /10.251.39.179
081111 073356 23492 INFO dfs.DataNode$DataXceiver: Receiving block blk_5126192773154114934 src: /10.251.39.179:43492 dest: /10.251.39.179:50010
081111 073356 23496 INFO dfs.DataNode$PacketResponder: PacketResponder 1 for block blk_38594368642766214 terminating
081111 073356 23496 INFO dfs.DataNode$PacketResponder: Received block blk_38594368642766214 of size 67108864 from /10.251.30.6
081111 073356 23505 INFO dfs.DataNode$DataXceiver: Receiving block blk_3112157099486801031 src: /10.250.10.100:39020 dest: /10.250.10.100:50010
081111 073356 23537 INFO dfs.DataNode$PacketResponder: PacketResponder 0 for block blk_-4506213048594999801 terminating
081111 073356 23537 INFO dfs.DataNode$PacketResponder: Received block blk_-4506213048594999801 of size 67108864 from /10.251.197.161
081111 073356 23540 INFO dfs.DataNode$DataXceiver: Receiving block blk_6609877602522707467 src: /10.251.197.226:59431 dest: /10.251.197.226:50010
081111 073356 23542 INFO dfs.DataNode$PacketResponder: PacketResponder 0 for block blk_-9059124384849868963 terminating
081111 073356 23542 INFO dfs.DataNode$PacketResponder: Received block blk_-9059124384849868963 of size 67108864 from /10.251.193.175
081111 073356 23592 INFO dfs.DataNode$DataXceiver: Receiving block blk_6609877602522707467 src: /10.251.122.65:38673 dest: /10.251.122.65:50010
081111 073356 23608 INFO dfs.DataNode$PacketResponder: PacketResponder 2 for block blk_2786459272248227558 terminating
081111 073356 23608 INFO dfs.DataNode$PacketResponder: Received block blk_2786459272248227558 of size 67108864 from /10.251.107.19
081111 073356 23678 INFO dfs.DataNode$PacketResponder: PacketResponder 0 for block blk_-8467516481303781162 terminating
081111 073356 23678 INFO dfs.DataNode$PacketResponder: Received block blk_-8467516481303781162 of size 67108864 from /10.251.106.214
081111 073356 23681 INFO dfs.DataNode$PacketResponder: PacketResponder 0 for block blk_2786459272248227558 terminating
081111 073356 23681 INFO dfs.DataNode$PacketResponder: Received block blk_2786459272248227558 of size 67108864 from /10.251.126.22
081111 073356 23698 INFO dfs.DataNode$DataXceiver: Receiving block blk_3112157099486801031 src: /10.251.122.79:56408 dest: /10.251.122.79:50010
081111 073356 26 INFO dfs.FSNamesystem: BLOCK* NameSystem.addStoredBlock: blockMap updated: 10.251.107.196:50010 is added to blk_-3644406009041103559 size 67108864
081111 073356 26 INFO dfs.FSNamesystem: BLOCK* NameSystem.addStoredBlock: blockMap updated: 10.251.111.37:50010 is added to blk_3423837092033737194 size 67108864
081111 073356 26 INFO dfs.FSNamesystem: BLOCK* NameSystem.addStoredBlock: blockMap updated: 10.251.203.149:50010 is added to blk_-550893701514900318 size 67108864
081111 073356 26 INFO dfs.FSNamesystem: BLOCK* NameSystem.allocateBlock: /user/root/rand6/_temporary/_task_200811101024_0013_m_001353_0/part-01353. blk_-4845275419547250191
081111 073356 27 INFO dfs.FSNamesystem: BLOCK* NameSystem.addStoredBlock: blockMap updated: 10.250.10.144:50010 is added to blk_2786459272248227558 size 67108864
081111 073356 27 INFO dfs.FSNamesystem: BLOCK* NameSystem.addStoredBlock: blockMap updated: 10.250.14.38:50010 is added to blk_3423837092033737194 size 67108864
081111 073356 27 INFO dfs.FSNamesystem: BLOCK* NameSystem.addStoredBlock: blockMap updated: 10.251.126.22:50010 is added to blk_2786459272248227558 size 67108864
081111 073356 27 INFO dfs.FSNamesystem: BLOCK* NameSystem.addStoredBlock: blockMap updated: 10.251.197.161:50010 is added to blk_-4506213048594999801 size 67108864
081111 073356 27 INFO dfs.FSNamesystem: BLOCK* NameSystem.addStoredBlock: blockMap updated: 10.251.197.161:50010 is added to blk_-643890363889539168 size 67108864
081111 073356 27 INFO dfs.FSNamesystem: BLOCK* NameSystem.allocateBlock: /user/root/rand6/_temporary/_task_200811101024_0013_m_001388_0/part-01388. blk_8844110140574232630
081111 073356 27 INFO dfs.FSNamesystem: BLOCK* NameSystem.allocateBlock: /user/root/rand6/_temporary/_task_200811101024_0013_m_001498_0/part-01498. blk_5126192773154114934
081111 073356 28 INFO dfs.FSNamesystem: BLOCK* NameSystem.addStoredBlock: blockMap updated: 10.250.10.223:50010 is added to blk_2518044522596232869 size 67108864
081111 073356 28 INFO dfs.FSNamesystem: BLOCK* NameSystem.addStoredBlock: blockMap updated: 10.251.106.214:50010 is added to blk_-8467516481303781162 size 67108864
081111 073356 28 INFO dfs.FSNamesystem: BLOCK* NameSystem.addStoredBlock: blockMap updated: 10.251.107.19:50010 is added to blk_2786459272248227558 size 67108864
081111 073356 28 INFO dfs.FSNamesystem: BLOCK* NameSystem.addStoredBlock: blockMap updated: 10.251.37.240:50010 is added to blk_-5345804896129443106 size 3557450
081111 073356 28 INFO dfs.FSNamesystem: BLOCK* NameSystem.addStoredBlock: blockMap updated: 10.251.90.134:50010 is added to blk_38594368642766214 size 67108864
081111 073356 28 INFO dfs.FSNamesystem: BLOCK* NameSystem.allocateBlock: /user/root/rand6/_temporary/_task_200811101024_0013_m_001241_0/part-01241. blk_4259561907735291943
081111 073356 28 INFO dfs.FSNamesystem: BLOCK* NameSystem.allocateBlock: /user/root/rand6/_temporary/_task_200811101024_0013_m_001323_0/part-01323. blk_2572013903212692076
081111 073356 29 INFO dfs.FSNamesystem: BLOCK* NameSystem.addStoredBlock: blockMap updated: 10.250.14.196:50010 is added to blk_-8550661790014032291 size 67108864
081111 073356 29 INFO dfs.FSNamesystem: BLOCK* NameSystem.addStoredBlock: blockMap updated: 10.251.193.224:50010 is added to blk_-6576816019263633846 size 3537207
081111 073356 29 INFO dfs.FSNamesystem: BLOCK* NameSystem.addStoredBlock: blockMap updated: 10.251.39.179:50010 is added to blk_-4506213048594999801 size 67108864
081111 073356 29 INFO dfs.FSNamesystem: BLOCK* NameSystem.allocateBlock: /user/root/rand6/_temporary/_task_200811101024_0013_m_001474_0/part-01474. blk_-9063767684245444028
081111 073356 30 INFO dfs.FSNamesystem: BLOCK* NameSystem.addStoredBlock: blockMap updated: 10.250.13.188:50010 is added to blk_-8320298407576356835 size 67108864
081111 073356 30 INFO dfs.FSNamesystem: BLOCK* NameSystem.addStoredBlock: blockMap updated: 10.251.195.33:50010 is added to blk_-4506213048594999801 size 67108864
081111 073356 30 INFO dfs.FSNamesystem: BLOCK* NameSystem.addStoredBlock: blockMap updated: 10.251.199.19:50010 is added to blk_-8550661790014032291 size 67108864
081111 073356 30 INFO dfs.FSNamesystem: BLOCK* NameSystem.addStoredBlock: blockMap updated: 10.251.75.143:50010 is added to blk_1062432411647010180 size 67108864
081111 073356 31 INFO dfs.FSNamesystem: BLOCK* NameSystem.addStoredBlock: blockMap updated: 10.251.215.16:50010 is added to blk_-6576816019263633846 size 3537207
081111 073356 31 INFO dfs.FSNamesystem: BLOCK* NameSystem.addStoredBlock: blockMap updated: 10.251.35.1:50010 is added to blk_-550893701514900318 size 67108864
081111 073356 31 INFO dfs.FSNamesystem: BLOCK* NameSystem.addStoredBlock: blockMap updated: 10.251.39.209:50010 is added to blk_-8467516481303781162 size 67108864
081111 073356 32 INFO dfs.FSNamesystem: BLOCK* NameSystem.addStoredBlock: blockMap updated: 10.250.17.225:50010 is added to blk_-643890363889539168 size 67108864
081111 073356 32 INFO dfs.FSNamesystem: BLOCK* NameSystem.addStoredBlock: blockMap updated: 10.251.107.196:50010 is added to blk_-2102312108961657348 size 67108864
081111 073356 32 INFO dfs.FSNamesystem: BLOCK* NameSystem.addStoredBlock: blockMap updated: 10.251.110.160:50010 is added to blk_747750531690405917 size 67108864
081111 073356 32 INFO dfs.FSNamesystem: BLOCK* NameSystem.addStoredBlock: blockMap updated: 10.251.30.179:50010 is added to blk_7651729449875439504 size 67108864
081111 073356 32 INFO dfs.FSNamesystem: BLOCK* NameSystem.addStoredBlock: blockMap updated: 10.251.73.220:50010 is added to blk_-550893701514900318 size 67108864
081111 073356 32 INFO dfs.FSNamesystem: BLOCK* NameSystem.addStoredBlock: blockMap updated: 10.251.90.134:50010 is added to blk_-6010485324099949729 size 67108864
081111 073356 32 INFO dfs.FSNamesystem: BLOCK* NameSystem.allocateBlock: /user/root/rand6/_temporary/_task_200811101024_0013_m_001266_0/part-01266. blk_3112157099486801031
081111 073356 33 INFO dfs.FSNamesystem: BLOCK* NameSystem.addStoredBlock: blockMap updated: 10.251.203.246:50010 is added to blk_-6576816019263633846 size 3537207
081111 073356 34 INFO dfs.FSNamesystem: BLOCK* NameSystem.addStoredBlock: blockMap updated: 10.250.5.161:50010 is added to blk_747750531690405917 size 67108864
081111 073356 34 INFO dfs.FSNamesystem: BLOCK* NameSystem.addStoredBlock: blockMap updated: 10.250.7.32:50010 is added to blk_7651729449875439504 size 67108864
081111 073356 34 INFO dfs.FSNamesystem: BLOCK* NameSystem.addStoredBlock: blockMap updated: 10.251.106.37:50010 is added to blk_-8320298407576356835 size 67108864
081111 073356 34 INFO dfs.FSNamesystem: BLOCK* NameSystem.addStoredBlock: blockMap updated: 10.251.214.67:50010 is added to blk_-8550661790014032291 size 67108864
081111 073356 34 INFO dfs.FSNamesystem: BLOCK* NameSystem.addStoredBlock: blockMap updated: 10.251.43.192:50010 is added to blk_-8467516481303781162 size 67108864
081111 073356 34 INFO dfs.FSNamesystem: BLOCK* NameSystem.allocateBlock: /user/root/rand6/_temporary/_task_200811101024_0013_m_001443_0/part-01443. blk_3358580012833223309
081111 073356 35 INFO dfs.FSNamesystem: BLOCK* NameSystem.addStoredBlock: blockMap updated: 10.251.110.68:50010 is added to blk_-9059124384849868963 size 67108864
081111 073356 35 INFO dfs.FSNamesystem: BLOCK* NameSystem.addStoredBlock: blockMap updated: 10.251.125.193:50010 is added to blk_7651729449875439504 size 67108864
081111 073356 35 INFO dfs.FSNamesystem: BLOCK* NameSystem.addStoredBlock: blockMap updated: 10.251.195.70:50010 is added to blk_-643890363889539168 size 67108864
081111 073356 35 INFO dfs.FSNamesystem: BLOCK* NameSystem.addStoredBlock: blockMap updated: 10.251.30.179:50010 is added to blk_-8320298407576356835 size 67108864
081111 073356 35 INFO dfs.FSNamesystem: BLOCK* NameSystem.allocateBlock: /user/root/rand6/_temporary/_task_200811101024_0013_m_001445_0/part-01445. blk_-9217155040479329911
081111 073357 13 INFO dfs.DataBlockScanner: Verification succeeded for blk_755842973788274034
081111 073357 18162 INFO dfs.DataNode$PacketResponder: PacketResponder 2 for block blk_7303727547909649253 terminating
081111 073357 18162 INFO dfs.DataNode$PacketResponder: Received block blk_7303727547909649253 of size 67108864 from /10.251.39.160
081111 073357 18165 INFO dfs.DataNode$DataXceiver: Receiving block blk_-3149577705163771118 src: /10.251.39.160:47391 dest: /10.251.39.160:50010
081111 073357 22891 INFO dfs.DataNode$PacketResponder: PacketResponder 2 for block blk_4817910379564343570 terminating
081111 073357 22891 INFO dfs.DataNode$PacketResponder: Received block blk_4817910379564343570 of size 67108864 from /10.251.203.80
081111 073357 22906 INFO dfs.DataNode$DataXceiver: Receiving block blk_-9102261833550903548 src: /10.250.13.188:38163 dest: /10.250.13.188:50010
081111 073357 22907 INFO dfs.DataNode$DataXceiver: Receiving block blk_-7634987923199707906 src: /10.251.203.80:34932 dest: /10.251.203.80:50010
081111 073357 22971 INFO dfs.DataNode$DataXceiver: Receiving block blk_-240222276105755694 src: /10.251.74.227:58967 dest: /10.251.74.227:50010
081111 073357 22972 INFO dfs.DataNode$DataXceiver: Receiving block blk_8844110140574232630 src: /10.251.107.19:38995 dest: /10.251.107.19:50010
081111 073357 22991 INFO dfs.DataNode$DataXceiver: Receiving block blk_-4411072009148842512 src: /10.251.194.102:53320 dest: /10.251.194.102:50010
081111 073357 23016 INFO dfs.DataNode$PacketResponder: PacketResponder 0 for block blk_-6003287437806042240 terminating
081111 073357 23016 INFO dfs.DataNode$PacketResponder: Received block blk_-6003287437806042240 of size 67108864 from /10.251.126.22
081111 073357 23048 INFO dfs.DataNode$PacketResponder: PacketResponder 2 for block blk_747750531690405917 terminating
081111 073357 23048 INFO dfs.DataNode$PacketResponder: Received block blk_747750531690405917 of size 67108864 from /10.251.198.196
081111 073357 23059 INFO dfs.DataNode$PacketResponder: PacketResponder 1 for block blk_4817910379564343570 terminating
081111 073357 23059 INFO dfs.DataNode$PacketResponder: Received block blk_4817910379564343570 of size 67108864 from /10.251.203.80
081111 073357 23061 INFO dfs.DataNode$DataXceiver: Receiving block blk_2166465481264489355 src: /10.251.198.196:38042 dest: /10.251.198.196:50010
081111 073357 23061 INFO dfs.DataNode$PacketResponder: PacketResponder 0 for block blk_1757534311962953146 terminating
081111 073357 23061 INFO dfs.DataNode$PacketResponder: Received block blk_1757534311962953146 of size 67108864 from /10.251.214.112
081111 073357 23063 INFO dfs.DataNode$PacketResponder: PacketResponder 2 for block blk_1757534311962953146 terminating
081111 073357 23063 INFO dfs.DataNode$PacketResponder: Received block blk_1757534311962953146 of size 67108864 from /10.251.203.166
081111 073357 23067 INFO dfs.DataNode$DataXceiver: Receiving block blk_8353849186728663285 src: /10.251.203.166:37914 dest: /10.251.203.166:50010
081111 073357 23076 INFO dfs.DataNode$PacketResponder: PacketResponder 2 for block blk_5248631077405565236 terminating
081111 073357 23076 INFO dfs.DataNode$PacketResponder: Received block blk_5248631077405565236 of size 67108864 from /10.251.197.161
081111 073357 23085 INFO dfs.DataNode$DataXceiver: Receiving block blk_3257215630257082963 src: /10.251.197.161:57379 dest: /10.251.197.161:50010
081111 073357 23091 INFO dfs.DataNode$PacketResponder: PacketResponder 0 for block blk_4817910379564343570 terminating
081111 073357 23091 INFO dfs.DataNode$PacketResponder: Received block blk_4817910379564343570 of size 67108864 from /10.251.203.166
081111 073357 23137 INFO dfs.DataNode$DataXceiver: Receiving block blk_-3780915672786347981 src: /10.251.42.84:60764 dest: /10.251.42.84:50010
081111 073357 23152 INFO dfs.DataNode$DataXceiver: Receiving block blk_-7634987923199707906 src: /10.251.203.80:38084 dest: /10.251.203.80:50010
081111 073357 23170 INFO dfs.DataNode$DataXceiver: Receiving block blk_424821144012266088 src: /10.251.90.239:48755 dest: /10.251.90.239:50010
081111 073357 23177 INFO dfs.DataNode$DataXceiver: Receiving block blk_-6029716542385131116 src: /10.251.30.101:57148 dest: /10.251.30.101:50010
081111 073357 23186 INFO dfs.DataNode$PacketResponder: PacketResponder 2 for block blk_38594368642766214 terminating
081111 073357 23186 INFO dfs.DataNode$PacketResponder: Received block blk_38594368642766214 of size 67108864 from /10.251.30.6
081111 073357 23193 INFO dfs.DataNode$DataXceiver: Receiving block blk_-3780915672786347981 src: /10.251.30.6:40253 dest: /10.251.30.6:50010
081111 073357 23196 INFO dfs.DataNode$PacketResponder: PacketResponder 2 for block blk_-6817516363264172721 terminating
081111 073357 23196 INFO dfs.DataNode$PacketResponder: Received block blk_-6817516363264172721 of size 67108864 from /10.251.74.227
081111 073357 23197 INFO dfs.DataNode$DataXceiver: Receiving block blk_-240222276105755694 src: /10.251.123.195:49015 dest: /10.251.123.195:50010
081111 073357 23198 INFO dfs.DataNode$DataXceiver: Receiving block blk_-6029716542385131116 src: /10.250.11.85:53249 dest: /10.250.11.85:50010
081111 073357 23215 INFO dfs.DataNode$DataXceiver: Receiving block blk_-240222276105755694 src: /10.251.74.227:49448 dest: /10.251.74.227:50010
081111 073357 23221 INFO dfs.DataNode$PacketResponder: PacketResponder 2 for block blk_1359011747359424170 terminating
081111 073357 23221 INFO dfs.DataNode$PacketResponder: Received block blk_1359011747359424170 of size 67108864 from /10.250.6.214
081111 073357 23230 INFO dfs.DataNode$DataXceiver: Receiving block blk_-4845275419547250191 src: /10.251.35.1:47163 dest: /10.251.35.1:50010
081111 073357 23238 INFO dfs.DataNode$DataXceiver: Receiving block blk_-4180179930309868323 src: /10.250.6.214:58776 dest: /10.250.6.214:50010
081111 073357 23239 INFO dfs.DataNode$DataXceiver: Receiving block blk_-3149577705163771118 src: /10.251.39.160:47907 dest: /10.251.39.160:50010
081111 073357 23260 INFO dfs.DataNode$PacketResponder: PacketResponder 1 for block blk_1359011747359424170 terminating
081111 073357 23260 INFO dfs.DataNode$PacketResponder: Received block blk_1359011747359424170 of size 67108864 from /10.250.6.214
081111 073357 23264 INFO dfs.DataNode$PacketResponder: PacketResponder 0 for block blk_7303727547909649253 terminating
081111 073357 23264 INFO dfs.DataNode$PacketResponder: Received block blk_7303727547909649253 of size 67108864 from /10.250.15.240
081111 073357 23267 INFO dfs.DataNode$PacketResponder: PacketResponder 1 for block blk_-6010485324099949729 terminating
081111 073357 23267 INFO dfs.DataNode$PacketResponder: Received block blk_-6010485324099949729 of size 67108864 from /10.251.194.245
081111 073357 23284 INFO dfs.DataNode$PacketResponder: PacketResponder 0 for block blk_6716133532612870702 terminating
081111 073357 23284 INFO dfs.DataNode$PacketResponder: Received block blk_6716133532612870702 of size 67108864 from /10.251.43.210
081111 073357 23288 INFO dfs.DataNode$DataXceiver: Receiving block blk_4971979243072460288 src: /10.251.199.19:54713 dest: /10.251.199.19:50010
081111 073357 23289 INFO dfs.DataNode$PacketResponder: PacketResponder 2 for block blk_6716133532612870702 terminating
081111 073357 23289 INFO dfs.DataNode$PacketResponder: Received block blk_6716133532612870702 of size 67108864 from /10.251.91.159
081111 073357 23293 INFO dfs.DataNode$DataXceiver: Receiving block blk_-4845275419547250191 src: /10.251.42.16:53168 dest: /10.251.42.16:50010
081111 073357 23303 INFO dfs.DataNode$DataXceiver: Receiving block blk_-6312905710201673627 src: /10.251.91.159:49755 dest: /10.251.91.159:50010
081111 073357 23309 INFO dfs.DataNode$PacketResponder: PacketResponder 2 for block blk_-4883570325853632307 terminating
081111 073357 23309 INFO dfs.DataNode$PacketResponder: Received block blk_-4883570325853632307 of size 67108864 from /10.251.194.102
081111 073357 23311 INFO dfs.DataNode$PacketResponder: PacketResponder 1 for block blk_-6817516363264172721 terminating
081111 073357 23311 INFO dfs.DataNode$PacketResponder: Received block blk_-6817516363264172721 of size 67108864 from /10.251.74.227
081111 073357 23320 INFO dfs.DataNode$DataXceiver: Receiving block blk_-4411072009148842512 src: /10.251.194.102:38096 dest: /10.251.194.102:50010
081111 073357 23336 INFO dfs.DataNode$PacketResponder: PacketResponder 1 for block blk_7303727547909649253 terminating
081111 073357 23336 INFO dfs.DataNode$PacketResponder: Received block blk_7303727547909649253 of size 67108864 from /10.251.39.160
081111 073357 23338 INFO dfs.DataNode$DataXceiver: Receiving block blk_-4411072009148842512 src: /10.251.111.37:60080 dest: /10.251.111.37:50010
081111 073357 23341 INFO dfs.DataNode$DataXceiver: Receiving block blk_-3149577705163771118 src: /10.251.65.203:56636 dest: /10.251.65.203:50010
081111 073357 23343 INFO dfs.DataNode$DataXceiver: Receiving block blk_-9102261833550903548 src: /10.251.194.245:53470 dest: /10.251.194.245:50010
081111 073357 23346 INFO dfs.DataNode$DataXceiver: Receiving block blk_2166465481264489355 src: /10.251.194.245:60940 dest: /10.251.194.245:50010
081111 073357 23348 INFO dfs.DataNode$DataXceiver: Receiving block blk_424821144012266088 src: /10.251.215.192:34138 dest: /10.251.215.192:50010
081111 073357 23350 INFO dfs.DataNode$PacketResponder: PacketResponder 1 for block blk_-2377581711055517382 terminating
081111 073357 23350 INFO dfs.DataNode$PacketResponder: Received block blk_-2377581711055517382 of size 67108864 from /10.251.30.101
081111 073357 23351 INFO dfs.DataNode$DataXceiver: Receiving block blk_-4001877386354451250 src: /10.251.29.239:56204 dest: /10.251.29.239:50010
081111 073357 23355 INFO dfs.DataNode$PacketResponder: PacketResponder 2 for block blk_-6003287437806042240 terminating
081111 073357 23355 INFO dfs.DataNode$PacketResponder: Received block blk_-6003287437806042240 of size 67108864 from /10.251.123.1
081111 073357 23376 INFO dfs.DataNode$PacketResponder: PacketResponder 1 for block blk_-6003287437806042240 terminating
081111 073357 23376 INFO dfs.DataNode$PacketResponder: Received block blk_-6003287437806042240 of size 67108864 from /10.251.123.1
081111 073357 23377 INFO dfs.DataNode$DataXceiver: Receiving block blk_-4903626644933116774 src: /10.251.123.1:41666 dest: /10.251.123.1:50010
081111 073357 23388 INFO dfs.DataNode$PacketResponder: PacketResponder 1 for block blk_5748229271439228196 terminating
081111 073357 23388 INFO dfs.DataNode$PacketResponder: Received block blk_5748229271439228196 of size 67108864 from /10.251.121.224
081111 073357 23392 INFO dfs.DataNode$PacketResponder: PacketResponder 2 for block blk_2518044522596232869 terminating
081111 073357 23392 INFO dfs.DataNode$PacketResponder: Received block blk_2518044522596232869 of size 67108864 from /10.251.215.192
081111 073357 23402 INFO dfs.DataNode$DataXceiver: Receiving block blk_424821144012266088 src: /10.251.215.192:38813 dest: /10.251.215.192:50010
081111 073357 23406 INFO dfs.DataNode$DataXceiver: Receiving block blk_1351964068746064671 src: /10.250.17.225:50012 dest: /10.250.17.225:50010
081111 073357 23406 INFO dfs.DataNode$PacketResponder: PacketResponder 2 for block blk_5748229271439228196 terminating
081111 073357 23406 INFO dfs.DataNode$PacketResponder: Received block blk_5748229271439228196 of size 67108864 from /10.251.121.224
081111 073357 23411 INFO dfs.DataNode$DataXceiver: Receiving block blk_1351964068746064671 src: /10.251.43.147:40083 dest: /10.251.43.147:50010
081111 073357 23411 INFO dfs.DataNode$DataXceiver: Receiving block blk_8584402150374232253 src: /10.251.71.240:54843 dest: /10.251.71.240:50010
081111 073357 23415 INFO dfs.DataNode$DataXceiver: Receiving block blk_1351964068746064671 src: /10.250.17.225:56865 dest: /10.250.17.225:50010
081111 073357 23415 INFO dfs.DataNode$PacketResponder: PacketResponder 0 for block blk_-3941232241645854336 terminating
081111 073357 23415 INFO dfs.DataNode$PacketResponder: Received block blk_-3941232241645854336 of size 3533617 from /10.251.195.33
081111 073357 23416 INFO dfs.DataNode$DataXceiver: Receiving block blk_7829881780642304630 src: /10.250.11.194:32870 dest: /10.250.11.194:50010
081111 073357 23421 INFO dfs.DataNode$DataXceiver: Receiving block blk_7829881780642304630 src: /10.251.121.224:53042 dest: /10.251.121.224:50010
081111 073357 23427 INFO dfs.DataNode$PacketResponder: PacketResponder 1 for block blk_6716133532612870702 terminating
081111 073357 23427 INFO dfs.DataNode$PacketResponder: Received block blk_6716133532612870702 of size 67108864 from /10.251.91.159
081111 073357 23465 INFO dfs.DataNode$PacketResponder: PacketResponder 2 for block blk_-3941232241645854336 terminating
081111 073357 23465 INFO dfs.DataNode$PacketResponder: Received block blk_-3941232241645854336 of size 3533617 from /10.250.6.223
081111 073357 23475 INFO dfs.DataNode$DataXceiver: Receiving block blk_-3340348884715339810 src: /10.251.215.192:50055 dest: /10.251.215.192:50010
081111 073357 23480 INFO dfs.DataNode$PacketResponder: PacketResponder 2 for block blk_-6010485324099949729 terminating
081111 073357 23480 INFO dfs.DataNode$PacketResponder: Received block blk_-6010485324099949729 of size 67108864 from /10.251.194.245
081111 073357 23481 INFO dfs.DataNode$DataXceiver: Receiving block blk_-9217155040479329911 src: /10.251.35.1:44322 dest: /10.251.35.1:50010
081111 073357 23482 INFO dfs.DataNode$DataXceiver: Receiving block blk_-3780915672786347981 src: /10.251.30.6:55190 dest: /10.251.30.6:50010
081111 073357 23493 INFO dfs.DataNode$DataXceiver: Receiving block blk_-9102261833550903548 src: /10.251.194.245:58314 dest: /10.251.194.245:50010
081111 073357 23494 INFO dfs.DataNode$DataXceiver: Receiving block blk_2166465481264489355 src: /10.251.198.196:39809 dest: /10.251.198.196:50010
081111 073357 23502 INFO dfs.DataNode$PacketResponder: PacketResponder 0 for block blk_5248631077405565236 terminating
081111 073357 23502 INFO dfs.DataNode$PacketResponder: Received block blk_5248631077405565236 of size 67108864 from /10.251.27.63
081111 073357 23522 INFO dfs.DataNode$PacketResponder: PacketResponder 1 for block blk_1757534311962953146 terminating
081111 073357 23522 INFO dfs.DataNode$PacketResponder: Received block blk_1757534311962953146 of size 67108864 from /10.251.203.166
081111 073357 23523 INFO dfs.DataNode$PacketResponder: PacketResponder 0 for block blk_-2377581711055517382 terminating
081111 073357 23523 INFO dfs.DataNode$PacketResponder: Received block blk_-2377581711055517382 of size 67108864 from /10.251.109.209
081111 073357 23553 INFO dfs.DataNode$PacketResponder: PacketResponder 1 for block blk_-3941232241645854336 terminating
081111 073357 23553 INFO dfs.DataNode$PacketResponder: Received block blk_-3941232241645854336 of size 3533617 from /10.250.6.223
081111 073357 23590 INFO dfs.DataNode$PacketResponder: PacketResponder 0 for block blk_1359011747359424170 terminating
081111 073357 23590 INFO dfs.DataNode$PacketResponder: Received block blk_1359011747359424170 of size 67108864 from /10.251.30.179
081111 073357 23615 INFO dfs.DataNode$DataXceiver: Receiving block blk_4259561907735291943 src: /10.251.25.237:45928 dest: /10.251.25.237:50010
081111 073357 23625 INFO dfs.DataNode$PacketResponder: PacketResponder 2 for block blk_-2377581711055517382 terminating
081111 073357 23625 INFO dfs.DataNode$PacketResponder: Received block blk_-2377581711055517382 of size 67108864 from /10.251.30.101
081111 073357 23631 INFO dfs.DataNode$DataXceiver: Receiving block blk_8844110140574232630 src: /10.251.107.19:43864 dest: /10.251.107.19:50010
081111 073357 23636 INFO dfs.DataNode$DataXceiver: Receiving block blk_-6029716542385131116 src: /10.251.30.101:59310 dest: /10.251.30.101:50010
081111 073357 23648 INFO dfs.DataNode$PacketResponder: PacketResponder 0 for block blk_3986899688542652085 terminating
081111 073357 23648 INFO dfs.DataNode$PacketResponder: Received block blk_3986899688542652085 of size 3542502 from /10.251.107.196
081111 073357 23724 INFO dfs.DataNode$PacketResponder: PacketResponder 1 for block blk_5248631077405565236 terminating
081111 073357 23724 INFO dfs.DataNode$PacketResponder: Received block blk_5248631077405565236 of size 67108864 from /10.251.197.161
081111 073357 23755 INFO dfs.DataNode$DataXceiver: Receiving block blk_4971979243072460288 src: /10.251.199.19:47092 dest: /10.251.199.19:50010
081111 073357 23851 INFO dfs.DataNode$DataXceiver: Receiving block blk_7829881780642304630 src: /10.251.121.224:50566 dest: /10.251.121.224:50010
081111 073357 26 INFO dfs.FSNamesystem: BLOCK* NameSystem.addStoredBlock: blockMap updated: 10.251.203.80:50010 is added to blk_4817910379564343570 size 67108864
081111 073357 26 INFO dfs.FSNamesystem: BLOCK* NameSystem.allocateBlock: /user/root/rand6/_temporary/_task_200811101024_0013_m_001333_0/part-01333. blk_-240222276105755694
081111 073357 26 INFO dfs.FSNamesystem: BLOCK* NameSystem.allocateBlock: /user/root/rand6/_temporary/_task_200811101024_0013_m_001499_0/part-01499. blk_3257215630257082963
081111 073357 27 INFO dfs.FSNamesystem: BLOCK* NameSystem.addStoredBlock: blockMap updated: 10.251.121.224:50010 is added to blk_5748229271439228196 size 67108864
081111 073357 27 INFO dfs.FSNamesystem: BLOCK* NameSystem.addStoredBlock: blockMap updated: 10.251.122.79:50010 is added to blk_38594368642766214 size 67108864
081111 073357 27 INFO dfs.FSNamesystem: BLOCK* NameSystem.addStoredBlock: blockMap updated: 10.251.194.102:50010 is added to blk_-4883570325853632307 size 67108864
081111 073357 27 INFO dfs.FSNamesystem: BLOCK* NameSystem.addStoredBlock: blockMap updated: 10.251.194.102:50010 is added to blk_-6817516363264172721 size 67108864
081111 073357 27 INFO dfs.FSNamesystem: BLOCK* NameSystem.addStoredBlock: blockMap updated: 10.251.25.237:50010 is added to blk_1757534311962953146 size 67108864
081111 073357 28 INFO dfs.FSNamesystem: BLOCK* NameSystem.addStoredBlock: blockMap updated: 10.251.109.209:50010 is added to blk_-2377581711055517382 size 67108864
081111 073357 28 INFO dfs.FSNamesystem: BLOCK* NameSystem.addStoredBlock: blockMap updated: 10.251.123.1:50010 is added to blk_-6003287437806042240 size 67108864
081111 073357 29 INFO dfs.FSNamesystem: BLOCK* NameSystem.addStoredBlock: blockMap updated: 10.250.6.223:50010 is added to blk_-3941232241645854336 size 3533617
081111 073357 29 INFO dfs.FSNamesystem: BLOCK* NameSystem.addStoredBlock: blockMap updated: 10.251.195.33:50010 is added to blk_-3941232241645854336 size 3533617
081111 073357 29 INFO dfs.FSNamesystem: BLOCK* NameSystem.addStoredBlock: blockMap updated: 10.251.199.19:50010 is added to blk_-6010485324099949729 size 67108864
081111 073357 29 INFO dfs.FSNamesystem: BLOCK* NameSystem.addStoredBlock: blockMap updated: 10.251.199.86:50010 is added to blk_1359011747359424170 size 67108864
081111 073357 29 INFO dfs.FSNamesystem: BLOCK* NameSystem.addStoredBlock: blockMap updated: 10.251.31.242:50010 is added to blk_5248631077405565236 size 67108864
081111 073357 29 INFO dfs.FSNamesystem: BLOCK* NameSystem.addStoredBlock: blockMap updated: 10.251.43.210:50010 is added to blk_6716133532612870702 size 67108864
081111 073357 29 INFO dfs.FSNamesystem: BLOCK* NameSystem.addStoredBlock: blockMap updated: 10.251.66.3:50010 is added to blk_3986899688542652085 size 3542502
081111 073357 29 INFO dfs.FSNamesystem: BLOCK* NameSystem.addStoredBlock: blockMap updated: 10.251.67.211:50010 is added to blk_-2377581711055517382 size 67108864
081111 073357 29 INFO dfs.FSNamesystem: BLOCK* NameSystem.allocateBlock: /user/root/rand6/_temporary/_task_200811101024_0013_m_001409_0/part-01409. blk_-4411072009148842512
081111 073357 29 INFO dfs.FSNamesystem: BLOCK* NameSystem.allocateBlock: /user/root/rand6/_temporary/_task_200811101024_0013_m_001500_0/part-01500. blk_7829881780642304630
081111 073357 29 INFO dfs.FSNamesystem: BLOCK* NameSystem.allocateBlock: /user/root/rand6/_temporary/_task_200811101024_0013_m_001507_0/part-01507. blk_-7634987923199707906
081111 073357 30 INFO dfs.FSNamesystem: BLOCK* NameSystem.addStoredBlock: blockMap updated: 10.251.197.161:50010 is added to blk_5248631077405565236 size 67108864
081111 073357 30 INFO dfs.FSNamesystem: BLOCK* NameSystem.addStoredBlock: blockMap updated: 10.251.30.179:50010 is added to blk_1359011747359424170 size 67108864
081111 073357 30 INFO dfs.FSNamesystem: BLOCK* NameSystem.addStoredBlock: blockMap updated: 10.251.30.6:50010 is added to blk_38594368642766214 size 67108864
081111 073357 30 INFO dfs.FSNamesystem: BLOCK* NameSystem.allocateBlock: /user/root/rand6/_temporary/_task_200811101024_0013_m_001324_0/part-01324. blk_-6029716542385131116
081111 073357 30 INFO dfs.FSNamesystem: BLOCK* NameSystem.allocateBlock: /user/root/rand6/_temporary/_task_200811101024_0013_m_001365_0/part-01365. blk_4971979243072460288
081111 073357 31 INFO dfs.FSNamesystem: BLOCK* NameSystem.addStoredBlock: blockMap updated: 10.250.15.240:50010 is added to blk_7303727547909649253 size 67108864
081111 073357 31 INFO dfs.FSNamesystem: BLOCK* NameSystem.addStoredBlock: blockMap updated: 10.251.106.50:50010 is added to blk_6716133532612870702 size 67108864
081111 073357 31 INFO dfs.FSNamesystem: BLOCK* NameSystem.addStoredBlock: blockMap updated: 10.251.107.227:50010 is added to blk_4817910379564343570 size 67108864
081111 073357 31 INFO dfs.FSNamesystem: BLOCK* NameSystem.addStoredBlock: blockMap updated: 10.251.198.196:50010 is added to blk_747750531690405917 size 67108864
081111 073357 31 INFO dfs.FSNamesystem: BLOCK* NameSystem.addStoredBlock: blockMap updated: 10.251.203.166:50010 is added to blk_1757534311962953146 size 67108864
081111 073357 31 INFO dfs.FSNamesystem: BLOCK* NameSystem.allocateBlock: /user/root/rand6/_temporary/_task_200811101024_0013_m_001477_0/part-01477. blk_1351964068746064671
081111 073357 32 INFO dfs.FSNamesystem: BLOCK* NameSystem.addStoredBlock: blockMap updated: 10.250.15.67:50010 is added to blk_-6003287437806042240 size 67108864
081111 073357 32 INFO dfs.FSNamesystem: BLOCK* NameSystem.addStoredBlock: blockMap updated: 10.251.27.63:50010 is added to blk_5248631077405565236 size 67108864
081111 073357 32 INFO dfs.FSNamesystem: BLOCK* NameSystem.addStoredBlock: blockMap updated: 10.251.74.79:50010 is added to blk_7303727547909649253 size 67108864
081111 073357 32 INFO dfs.FSNamesystem: BLOCK* NameSystem.allocateBlock: /user/root/rand6/_temporary/_task_200811101024_0013_m_001258_0/part-01258. blk_2166465481264489355
081111 073357 32 INFO dfs.FSNamesystem: BLOCK* NameSystem.allocateBlock: /user/root/rand6/_temporary/_task_200811101024_0013_m_001383_0/part-01383. blk_-3780915672786347981
081111 073357 32 INFO dfs.FSNamesystem: BLOCK* NameSystem.allocateBlock: /user/root/rand6/_temporary/_task_200811101024_0013_m_001487_0/part-01487. blk_-4903626644933116774
081111 073357 33 INFO dfs.FSNamesystem: BLOCK* NameSystem.addStoredBlock: blockMap updated: 10.250.6.214:50010 is added to blk_1359011747359424170 size 67108864
081111 073357 33 INFO dfs.FSNamesystem: BLOCK* NameSystem.addStoredBlock: blockMap updated: 10.251.203.166:50010 is added to blk_4817910379564343570 size 67108864
081111 073357 33 INFO dfs.FSNamesystem: BLOCK* NameSystem.addStoredBlock: blockMap updated: 10.251.214.112:50010 is added to blk_1757534311962953146 size 67108864
081111 073357 33 INFO dfs.FSNamesystem: BLOCK* NameSystem.addStoredBlock: blockMap updated: 10.251.215.192:50010 is added to blk_2518044522596232869 size 67108864
081111 073357 33 INFO dfs.FSNamesystem: BLOCK* NameSystem.addStoredBlock: blockMap updated: 10.251.215.192:50010 is added to blk_5748229271439228196 size 67108864
081111 073357 33 INFO dfs.FSNamesystem: BLOCK* NameSystem.allocateBlock: /user/root/rand6/_temporary/_task_200811101024_0013_m_001424_0/part-01424. blk_-9102261833550903548
081111 073357 34 INFO dfs.FSNamesystem: BLOCK* NameSystem.addStoredBlock: blockMap updated: 10.251.194.245:50010 is added to blk_-6010485324099949729 size 67108864
081111 073357 34 INFO dfs.FSNamesystem: BLOCK* NameSystem.addStoredBlock: blockMap updated: 10.251.214.67:50010 is added to blk_-3941232241645854336 size 3533617
081111 073357 34 INFO dfs.FSNamesystem: BLOCK* NameSystem.addStoredBlock: blockMap updated: 10.251.30.101:50010 is added to blk_-2377581711055517382 size 67108864
081111 073357 34 INFO dfs.FSNamesystem: BLOCK* NameSystem.addStoredBlock: blockMap updated: 10.251.39.160:50010 is added to blk_7303727547909649253 size 67108864
081111 073357 35 INFO dfs.FSNamesystem: BLOCK* NameSystem.addStoredBlock: blockMap updated: 10.251.66.102:50010 is added to blk_8163871822334729242 size 67108864
081111 073357 35 INFO dfs.FSNamesystem: BLOCK* NameSystem.addStoredBlock: blockMap updated: 10.251.74.227:50010 is added to blk_-6817516363264172721 size 67108864
081111 073357 35 INFO dfs.FSNamesystem: BLOCK* NameSystem.allocateBlock: /user/root/rand6/_temporary/_task_200811101024_0013_m_001208_0/part-01208. blk_8353849186728663285
081111 073357 35 INFO dfs.FSNamesystem: BLOCK* NameSystem.allocateBlock: /user/root/rand6/_temporary/_task_200811101024_0013_m_001226_0/part-01226. blk_424821144012266088
081111 073357 35 INFO dfs.FSNamesystem: BLOCK* NameSystem.allocateBlock: /user/root/rand6/_temporary/_task_200811101024_0013_m_001250_0/part-01250. blk_-3149577705163771118
081111 073357 35 INFO dfs.FSNamesystem: BLOCK* NameSystem.allocateBlock: /user/root/rand6/_temporary/_task_200811101024_0013_m_001328_0/part-01328. blk_-4180179930309868323
081111 073358 13 INFO dfs.DataBlockScanner: Verification succeeded for blk_-2210037882137035752
081111 073358 13 INFO dfs.DataBlockScanner: Verification succeeded for blk_2861467721779845525
081111 073358 23126 INFO dfs.DataNode$PacketResponder: PacketResponder 2 for block blk_-545950534917353913 terminating
081111 073358 23126 INFO dfs.DataNode$PacketResponder: Received block blk_-545950534917353913 of size 67108864 from /10.251.214.32
081111 073358 23139 INFO dfs.DataNode$DataXceiver: Receiving block blk_-6370310025314406860 src: /10.251.214.32:54167 dest: /10.251.214.32:50010
081111 073358 23187 INFO dfs.DataNode$PacketResponder: PacketResponder 1 for block blk_5549559678638882082 terminating
081111 073358 23187 INFO dfs.DataNode$PacketResponder: Received block blk_5549559678638882082 of size 67108864 from /10.251.105.189
081111 073358 23206 INFO dfs.DataNode$DataXceiver: Receiving block blk_-4001877386354451250 src: /10.250.10.213:41254 dest: /10.250.10.213:50010
081111 073358 23217 INFO dfs.DataNode$DataXceiver: Receiving block blk_4971979243072460288 src: /10.251.74.134:48014 dest: /10.251.74.134:50010
081111 073358 23262 INFO dfs.DataNode$PacketResponder: PacketResponder 0 for block blk_-1035322003344402668 terminating
081111 073358 23262 INFO dfs.DataNode$PacketResponder: Received block blk_-1035322003344402668 of size 67108864 from /10.251.199.86
081111 073358 23264 INFO dfs.DataNode$PacketResponder: PacketResponder 2 for block blk_4644033549029511126 terminating
081111 073358 23264 INFO dfs.DataNode$PacketResponder: Received block blk_4644033549029511126 of size 67108864 from /10.251.31.180
081111 073358 23269 INFO dfs.DataNode$PacketResponder: PacketResponder 0 for block blk_5503165395899731553 terminating
081111 073358 23269 INFO dfs.DataNode$PacketResponder: Received block blk_5503165395899731553 of size 67108864 from /10.251.121.224
081111 073358 23271 INFO dfs.DataNode$DataXceiver: Receiving block blk_1643515387072192762 src: /10.251.31.180:58220 dest: /10.251.31.180:50010
081111 073358 23271 INFO dfs.DataNode$PacketResponder: PacketResponder 1 for block blk_-545950534917353913 terminating
081111 073358 23271 INFO dfs.DataNode$PacketResponder: Received block blk_-545950534917353913 of size 67108864 from /10.251.214.32
081111 073358 23285 INFO dfs.DataNode$DataXceiver: Receiving block blk_-4180179930309868323 src: /10.251.70.211:33578 dest: /10.251.70.211:50010
081111 073358 23343 INFO dfs.DataNode$DataXceiver: Receiving block blk_-4903626644933116774 src: /10.251.106.37:57976 dest: /10.251.106.37:50010
081111 073358 23352 INFO dfs.DataNode$PacketResponder: PacketResponder 2 for block blk_5503165395899731553 terminating
081111 073358 23352 INFO dfs.DataNode$PacketResponder: Received block blk_5503165395899731553 of size 67108864 from /10.251.109.209
081111 073358 23359 INFO dfs.DataNode$PacketResponder: PacketResponder 2 for block blk_-1035322003344402668 terminating
081111 073358 23359 INFO dfs.DataNode$PacketResponder: Received block blk_-1035322003344402668 of size 67108864 from /10.251.31.160
081111 073358 23361 INFO dfs.DataNode$DataXceiver: Receiving block blk_8584402150374232253 src: /10.251.199.225:53913 dest: /10.251.199.225:50010
081111 073358 23365 INFO dfs.DataNode$DataXceiver: Receiving block blk_5769484517570004853 src: /10.251.109.209:36441 dest: /10.251.109.209:50010
081111 073358 23365 INFO dfs.DataNode$PacketResponder: PacketResponder 0 for block blk_4644033549029511126 terminating
081111 073358 23365 INFO dfs.DataNode$PacketResponder: Received block blk_4644033549029511126 of size 67108864 from /10.251.70.211
081111 073358 23375 INFO dfs.DataNode$PacketResponder: PacketResponder 0 for block blk_5549559678638882082 terminating
081111 073358 23375 INFO dfs.DataNode$PacketResponder: Received block blk_5549559678638882082 of size 67108864 from /10.251.214.225
081111 073358 23379 INFO dfs.DataNode$PacketResponder: PacketResponder 1 for block blk_3986899688542652085 terminating
081111 073358 23379 INFO dfs.DataNode$PacketResponder: Received block blk_3986899688542652085 of size 3542502 from /10.251.111.209
081111 073358 23392 INFO dfs.DataNode$DataXceiver: Receiving block blk_-6312905710201673627 src: /10.251.91.159:48254 dest: /10.251.91.159:50010
081111 073358 23406 INFO dfs.DataNode$DataXceiver: Receiving block blk_3257215630257082963 src: /10.251.197.161:41950 dest: /10.251.197.161:50010
081111 073358 23408 INFO dfs.DataNode$DataXceiver: Receiving block blk_-9000494525278044909 src: /10.250.6.191:55867 dest: /10.250.6.191:50010
081111 073358 23408 INFO dfs.DataNode$PacketResponder: PacketResponder 1 for block blk_5503165395899731553 terminating
081111 073358 23408 INFO dfs.DataNode$PacketResponder: Received block blk_5503165395899731553 of size 67108864 from /10.251.109.209
081111 073358 23418 INFO dfs.DataNode$PacketResponder: PacketResponder 1 for block blk_4644033549029511126 terminating
081111 073358 23418 INFO dfs.DataNode$PacketResponder: Received block blk_4644033549029511126 of size 67108864 from /10.251.31.180
081111 073358 23427 INFO dfs.DataNode$DataXceiver: Receiving block blk_-4180179930309868323 src: /10.250.6.214:44722 dest: /10.250.6.214:50010
081111 073358 23429 INFO dfs.DataNode$PacketResponder: PacketResponder 0 for block blk_8163871822334729242 terminating
081111 073358 23429 INFO dfs.DataNode$PacketResponder: Received block blk_8163871822334729242 of size 67108864 from /10.251.110.68
081111 073358 23430 INFO dfs.DataNode$DataXceiver: Receiving block blk_-9000494525278044909 src: /10.250.17.225:55998 dest: /10.250.17.225:50010
081111 073358 23432 INFO dfs.DataNode$PacketResponder: PacketResponder 2 for block blk_5549559678638882082 terminating
081111 073358 23432 INFO dfs.DataNode$PacketResponder: Received block blk_5549559678638882082 of size 67108864 from /10.251.105.189
081111 073358 23466 INFO dfs.DataNode$DataXceiver: Receiving block blk_1643943528040620897 src: /10.250.6.223:46993 dest: /10.250.6.223:50010
081111 073358 23542 INFO dfs.DataNode$DataXceiver: Receiving block blk_-4903626644933116774 src: /10.251.123.1:36565 dest: /10.251.123.1:50010
081111 073358 23544 INFO dfs.DataNode$PacketResponder: PacketResponder 1 for block blk_8163871822334729242 terminating
081111 073358 23544 INFO dfs.DataNode$PacketResponder: Received block blk_8163871822334729242 of size 67108864 from /10.250.6.191
081111 073358 23579 INFO dfs.DataNode$DataXceiver: Receiving block blk_8844110140574232630 src: /10.251.75.228:47066 dest: /10.251.75.228:50010
081111 073358 23592 INFO dfs.DataNode$PacketResponder: PacketResponder 1 for block blk_-1035322003344402668 terminating
081111 073358 23592 INFO dfs.DataNode$PacketResponder: Received block blk_-1035322003344402668 of size 67108864 from /10.251.31.160
081111 073358 23595 INFO dfs.DataNode$DataXceiver: Receiving block blk_1643943528040620897 src: /10.250.6.223:47550 dest: /10.250.6.223:50010
081111 073358 23693 INFO dfs.DataNode$DataXceiver: Receiving block blk_3257215630257082963 src: /10.251.126.22:38876 dest: /10.251.126.22:50010
081111 073358 23717 INFO dfs.DataNode$PacketResponder: PacketResponder 2 for block blk_8163871822334729242 terminating
081111 073358 23717 INFO dfs.DataNode$PacketResponder: Received block blk_8163871822334729242 of size 67108864 from /10.250.6.191
081111 073358 23722 INFO dfs.DataNode$DataXceiver: Receiving block blk_-9000494525278044909 src: /10.250.6.191:60439 dest: /10.250.6.191:50010
081111 073358 26 INFO dfs.FSNamesystem: BLOCK* NameSystem.addStoredBlock: blockMap updated: 10.251.110.68:50010 is added to blk_8163871822334729242 size 67108864
081111 073358 26 INFO dfs.FSNamesystem: BLOCK* NameSystem.addStoredBlock: blockMap updated: 10.251.214.225:50010 is added to blk_5549559678638882082 size 67108864
081111 073358 26 INFO dfs.FSNamesystem: BLOCK* NameSystem.addStoredBlock: blockMap updated: 10.251.31.160:50010 is added to blk_4644033549029511126 size 67108864
081111 073358 26 INFO dfs.FSNamesystem: BLOCK* NameSystem.allocateBlock: /user/root/rand6/_temporary/_task_200811101024_0013_m_001457_0/part-01457. blk_5769484517570004853
081111 073358 27 INFO dfs.FSNamesystem: BLOCK* NameSystem.allocateBlock: /user/root/rand6/_temporary/_task_200811101024_0013_m_001327_0/part-01327. blk_-8554500934384878964
081111 073358 28 INFO dfs.FSNamesystem: BLOCK* NameSystem.addStoredBlock: blockMap updated: 10.251.214.32:50010 is added to blk_-545950534917353913 size 67108864
081111 073358 28 INFO dfs.FSNamesystem: BLOCK* NameSystem.addStoredBlock: blockMap updated: 10.251.31.180:50010 is added to blk_4644033549029511126 size 67108864
081111 073358 29 INFO dfs.FSNamesystem: BLOCK* NameSystem.addStoredBlock: blockMap updated: 10.251.109.209:50010 is added to blk_5503165395899731553 size 67108864
081111 073358 29 INFO dfs.FSNamesystem: BLOCK* NameSystem.allocateBlock: /user/root/rand6/_temporary/_task_200811101024_0013_m_001182_0/part-01182. blk_1643515387072192762
081111 073358 31 INFO dfs.FSNamesystem: BLOCK* NameSystem.addStoredBlock: blockMap updated: 10.251.105.189:50010 is added to blk_5549559678638882082 size 67108864
081111 073358 31 INFO dfs.FSNamesystem: BLOCK* NameSystem.addStoredBlock: blockMap updated: 10.251.91.159:50010 is added to blk_6716133532612870702 size 67108864
081111 073358 32 INFO dfs.FSNamesystem: BLOCK* NameSystem.addStoredBlock: blockMap updated: 10.250.6.191:50010 is added to blk_8163871822334729242 size 67108864
081111 073358 32 INFO dfs.FSNamesystem: BLOCK* NameSystem.addStoredBlock: blockMap updated: 10.251.214.175:50010 is added to blk_-1035322003344402668 size 67108864
081111 073358 32 INFO dfs.FSNamesystem: BLOCK* NameSystem.addStoredBlock: blockMap updated: 10.251.42.191:50010 is added to blk_-545950534917353913 size 67108864
081111 073358 32 INFO dfs.FSNamesystem: BLOCK* NameSystem.addStoredBlock: blockMap updated: 10.251.42.191:50010 is added to blk_5503165395899731553 size 67108864
081111 073358 32 INFO dfs.FSNamesystem: BLOCK* NameSystem.allocateBlock: /user/root/rand6/_temporary/_task_200811101024_0013_m_001358_0/part-01358. blk_-6312905710201673627
081111 073358 32 INFO dfs.FSNamesystem: BLOCK* NameSystem.allocateBlock: /user/root/rand6/_temporary/_task_200811101024_0013_m_001560_0/part-01560. blk_-6370310025314406860
081111 073358 32 INFO dfs.FSNamesystem: BLOCK* NameSystem.allocateBlock: /user/root/rand6/_temporary/_task_200811101024_0013_m_001570_0/part-01570. blk_1643943528040620897
081111 073358 33 INFO dfs.FSNamesystem: BLOCK* NameSystem.addStoredBlock: blockMap updated: 10.251.107.196:50010 is added to blk_3986899688542652085 size 3542502
081111 073358 33 INFO dfs.FSNamesystem: BLOCK* NameSystem.addStoredBlock: blockMap updated: 10.251.126.22:50010 is added to blk_-6003287437806042240 size 67108864
081111 073358 33 INFO dfs.FSNamesystem: BLOCK* NameSystem.addStoredBlock: blockMap updated: 10.251.70.211:50010 is added to blk_4644033549029511126 size 67108864
081111 073358 34 INFO dfs.FSNamesystem: BLOCK* NameSystem.addStoredBlock: blockMap updated: 10.251.31.160:50010 is added to blk_-1035322003344402668 size 67108864
081111 073358 35 INFO dfs.FSNamesystem: BLOCK* NameSystem.addStoredBlock: blockMap updated: 10.251.121.224:50010 is added to blk_5503165395899731553 size 67108864
081111 073358 35 INFO dfs.FSNamesystem: BLOCK* NameSystem.allocateBlock: /user/root/rand6/_temporary/_task_200811101024_0013_m_001340_0/part-01340. blk_-9000494525278044909
081111 073359 17849 INFO dfs.DataNode$PacketResponder: PacketResponder 1 for block blk_3769382980789197971 terminating
081111 073359 17849 INFO dfs.DataNode$PacketResponder: Received block blk_3769382980789197971 of size 67108864 from /10.251.74.134
081111 073359 19 INFO dfs.FSDataset: Deleting block blk_-5345804896129443106 file /mnt/hadoop/dfs/data/current/subdir28/blk_-5345804896129443106
081111 073359 22932 INFO dfs.DataNode$DataXceiver: Receiving block blk_1643943528040620897 src: /10.251.197.226:54530 dest: /10.251.197.226:50010
081111 073359 22969 INFO dfs.DataNode$PacketResponder: PacketResponder 2 for block blk_-8389680516475304628 terminating
081111 073359 22969 INFO dfs.DataNode$PacketResponder: Received block blk_-8389680516475304628 of size 67108864 from /10.251.75.228
081111 073359 22974 INFO dfs.DataNode$DataXceiver: Receiving block blk_-6320213957866283911 src: /10.251.75.228:40972 dest: /10.251.75.228:50010
081111 073359 22995 INFO dfs.DataNode$PacketResponder: PacketResponder 0 for block blk_-8482982827917875701 terminating
081111 073359 22995 INFO dfs.DataNode$PacketResponder: Received block blk_-8482982827917875701 of size 67108864 from /10.251.126.83
081111 073359 22999 INFO dfs.DataNode$PacketResponder: PacketResponder 1 for block blk_5310758281772357727 terminating
081111 073359 22999 INFO dfs.DataNode$PacketResponder: Received block blk_5310758281772357727 of size 67108864 from /10.251.31.242
081111 073359 23095 INFO dfs.DataNode$PacketResponder: Received block blk_-1282963612694456259 of size 67108864 from /10.251.199.245
081111 073359 23102 INFO dfs.DataNode$DataXceiver: Receiving block blk_1295795568208382968 src: /10.251.109.236:55886 dest: /10.251.109.236:50010
081111 073359 23141 INFO dfs.DataNode$PacketResponder: PacketResponder 0 for block blk_5310758281772357727 terminating
081111 073359 23141 INFO dfs.DataNode$PacketResponder: Received block blk_5310758281772357727 of size 67108864 from /10.251.202.134
081111 073359 23147 INFO dfs.DataNode$PacketResponder: PacketResponder 0 for block blk_2539722870381304113 terminating
081111 073359 23147 INFO dfs.DataNode$PacketResponder: Received block blk_2539722870381304113 of size 67108864 from /10.250.6.4
081111 073359 23153 INFO dfs.DataNode$DataXceiver: Receiving block blk_1295795568208382968 src: /10.251.26.131:57116 dest: /10.251.26.131:50010
081111 073359 23164 INFO dfs.DataNode$DataXceiver: Receiving block blk_-1278903586467068300 src: /10.251.31.160:59161 dest: /10.251.31.160:50010
081111 073359 23199 INFO dfs.DataNode$DataXceiver: Receiving block blk_5769484517570004853 src: /10.251.109.209:55047 dest: /10.251.109.209:50010
081111 073359 23220 INFO dfs.DataNode$PacketResponder: PacketResponder 0 for block blk_-552059810293862762 terminating
081111 073359 23220 INFO dfs.DataNode$PacketResponder: Received block blk_-552059810293862762 of size 67108864 from /10.250.7.230
081111 073359 23223 INFO dfs.DataNode$DataXceiver: Receiving block blk_-6370310025314406860 src: /10.251.214.32:45077 dest: /10.251.214.32:50010
081111 073359 23249 INFO dfs.DataNode$DataXceiver: Receiving block blk_-1426642155863178763 src: /10.251.90.239:39957 dest: /10.251.90.239:50010
081111 073359 23266 INFO dfs.DataNode$PacketResponder: PacketResponder 2 for block blk_7531506707922699147 terminating
081111 073359 23266 INFO dfs.DataNode$PacketResponder: Received block blk_7531506707922699147 of size 67108864 from /10.251.43.21
081111 073359 23272 INFO dfs.DataNode$PacketResponder: PacketResponder 0 for block blk_-8389680516475304628 terminating
081111 073359 23272 INFO dfs.DataNode$PacketResponder: Received block blk_-8389680516475304628 of size 67108864 from /10.251.123.20
081111 073359 23282 INFO dfs.DataNode$PacketResponder: PacketResponder 1 for block blk_-2783628646494977362 terminating
081111 073359 23282 INFO dfs.DataNode$PacketResponder: Received block blk_-2783628646494977362 of size 67108864 from /10.251.193.175
081111 073359 23300 INFO dfs.DataNode$PacketResponder: PacketResponder 1 for block blk_-3267333874228208344 terminating
081111 073359 23300 INFO dfs.DataNode$PacketResponder: Received block blk_-3267333874228208344 of size 67108864 from /10.251.38.214
081111 073359 23320 INFO dfs.DataNode$PacketResponder: PacketResponder 0 for block blk_-2783628646494977362 terminating
081111 073359 23320 INFO dfs.DataNode$PacketResponder: Received block blk_-2783628646494977362 of size 67108864 from /10.251.122.65
081111 073359 23325 INFO dfs.DataNode$PacketResponder: PacketResponder 2 for block blk_-3267333874228208344 terminating
081111 073359 23325 INFO dfs.DataNode$PacketResponder: Received block blk_-3267333874228208344 of size 67108864 from /10.251.38.214
081111 073359 23330 INFO dfs.DataNode$DataXceiver: Receiving block blk_3040334361641714748 src: /10.251.38.214:53506 dest: /10.251.38.214:50010
081111 073359 23348 INFO dfs.DataNode$DataXceiver: Receiving block blk_1295795568208382968 src: /10.251.109.236:38759 dest: /10.251.109.236:50010
081111 073359 23362 INFO dfs.DataNode$PacketResponder: PacketResponder 1 for block blk_2539722870381304113 terminating
081111 073359 23362 INFO dfs.DataNode$PacketResponder: Received block blk_2539722870381304113 of size 67108864 from /10.251.91.15
081111 073359 23378 INFO dfs.DataNode$DataXceiver: Receiving block blk_-1278903586467068300 src: /10.251.31.160:49818 dest: /10.251.31.160:50010
081111 073359 23390 INFO dfs.DataNode$DataXceiver: Receiving block blk_-6370310025314406860 src: /10.251.73.188:38951 dest: /10.251.73.188:50010
081111 073359 23407 INFO dfs.DataNode$DataXceiver: Receiving block blk_5769484517570004853 src: /10.250.10.100:59988 dest: /10.250.10.100:50010
081111 073359 23431 INFO dfs.DataNode$PacketResponder: PacketResponder 0 for block blk_115181276002980764 terminating
081111 073359 23431 INFO dfs.DataNode$PacketResponder: Received block blk_115181276002980764 of size 67108864 from /10.250.7.96
081111 073359 23444 INFO dfs.DataNode$PacketResponder: PacketResponder 0 for block blk_3769382980789197971 terminating
081111 073359 23444 INFO dfs.DataNode$PacketResponder: Received block blk_3769382980789197971 of size 67108864 from /10.251.123.33
081111 073359 23445 INFO dfs.DataNode$DataXceiver: Receiving block blk_-8554500934384878964 src: /10.251.105.189:39509 dest: /10.251.105.189:50010
081111 073359 23459 INFO dfs.DataNode$PacketResponder: PacketResponder 2 for block blk_2539722870381304113 terminating
081111 073359 23459 INFO dfs.DataNode$PacketResponder: Received block blk_2539722870381304113 of size 67108864 from /10.251.91.15
081111 073359 23460 INFO dfs.DataNode$PacketResponder: PacketResponder 0 for block blk_6680244492130172930 terminating
081111 073359 23460 INFO dfs.DataNode$PacketResponder: Received block blk_6680244492130172930 of size 67108864 from /10.251.107.19
081111 073359 23467 INFO dfs.DataNode$DataXceiver: Receiving block blk_1643515387072192762 src: /10.251.31.180:60816 dest: /10.251.31.180:50010
081111 073359 23490 INFO dfs.DataNode$PacketResponder: PacketResponder 2 for block blk_5310758281772357727 terminating
081111 073359 23490 INFO dfs.DataNode$PacketResponder: Received block blk_5310758281772357727 of size 67108864 from /10.251.31.242
081111 073359 23508 INFO dfs.DataNode$DataXceiver: Receiving block blk_2630066423762560609 src: /10.251.31.242:50038 dest: /10.251.31.242:50010
081111 073359 23522 INFO dfs.DataNode$PacketResponder: PacketResponder 1 for block blk_-8389680516475304628 terminating
081111 073359 23522 INFO dfs.DataNode$PacketResponder: Received block blk_-8389680516475304628 of size 67108864 from /10.251.75.228
081111 073359 23528 INFO dfs.DataNode$DataXceiver: Receiving block blk_2630066423762560609 src: /10.251.31.242:57748 dest: /10.251.31.242:50010
081111 073359 23578 INFO dfs.DataNode$PacketResponder: PacketResponder 0 for block blk_-3267333874228208344 terminating
081111 073359 23578 INFO dfs.DataNode$PacketResponder: Received block blk_-3267333874228208344 of size 67108864 from /10.251.199.150
081111 073359 23583 INFO dfs.DataNode$DataXceiver: Receiving block blk_-5697703524879257028 src: /10.251.74.134:40670 dest: /10.251.74.134:50010
081111 073359 23610 INFO dfs.DataNode$PacketResponder: PacketResponder 1 for block blk_6680244492130172930 terminating
081111 073359 23610 INFO dfs.DataNode$PacketResponder: Received block blk_6680244492130172930 of size 67108864 from /10.251.27.63
081111 073359 23714 INFO dfs.DataNode$PacketResponder: PacketResponder 2 for block blk_6680244492130172930 terminating
081111 073359 23714 INFO dfs.DataNode$PacketResponder: Received block blk_6680244492130172930 of size 67108864 from /10.251.27.63
081111 073359 23749 INFO dfs.DataNode$PacketResponder: PacketResponder 2 for block blk_3769382980789197971 terminating
081111 073359 23749 INFO dfs.DataNode$PacketResponder: Received block blk_3769382980789197971 of size 67108864 from /10.251.74.134
081111 073359 23757 INFO dfs.DataNode$DataXceiver: Receiving block blk_-5697703524879257028 src: /10.251.74.134:40312 dest: /10.251.74.134:50010
081111 073359 26 INFO dfs.FSNamesystem: BLOCK* NameSystem.addStoredBlock: blockMap updated: 10.251.199.245:50010 is added to blk_6680244492130172930 size 67108864
081111 073359 26 INFO dfs.FSNamesystem: BLOCK* NameSystem.addStoredBlock: blockMap updated: 10.251.31.242:50010 is added to blk_5310758281772357727 size 67108864
081111 073359 26 INFO dfs.FSNamesystem: BLOCK* NameSystem.allocateBlock: /user/root/rand6/_temporary/_task_200811101024_0013_m_001308_0/part-01308. blk_5601648133249712490
081111 073359 26 INFO dfs.FSNamesystem: BLOCK* NameSystem.allocateBlock: /user/root/rand6/_temporary/_task_200811101024_0013_m_001497_0/part-01497. blk_-5697703524879257028
081111 073359 27 INFO dfs.FSNamesystem: BLOCK* NameSystem.addStoredBlock: blockMap updated: 10.250.7.32:50010 is added to blk_5549559678638882082 size 67108864
081111 073359 27 INFO dfs.FSNamesystem: BLOCK* NameSystem.addStoredBlock: blockMap updated: 10.251.66.102:50010 is added to blk_115181276002980764 size 67108864
081111 073359 27 INFO dfs.FSNamesystem: BLOCK* NameSystem.allocateBlock: /user/root/rand6/_temporary/_task_200811101024_0013_m_001239_0/part-01239. blk_-1278903586467068300
081111 073359 28 INFO dfs.FSNamesystem: BLOCK* NameSystem.addStoredBlock: blockMap updated: 10.251.107.227:50010 is added to blk_-1282963612694456259 size 67108864
081111 073359 28 INFO dfs.FSNamesystem: BLOCK* NameSystem.addStoredBlock: blockMap updated: 10.251.123.33:50010 is added to blk_3769382980789197971 size 67108864
081111 073359 28 INFO dfs.FSNamesystem: BLOCK* NameSystem.addStoredBlock: blockMap updated: 10.251.38.214:50010 is added to blk_-3267333874228208344 size 67108864
081111 073359 29 INFO dfs.FSNamesystem: BLOCK* NameSystem.addStoredBlock: blockMap updated: 10.251.122.65:50010 is added to blk_-2783628646494977362 size 67108864
081111 073359 29 INFO dfs.FSNamesystem: BLOCK* NameSystem.addStoredBlock: blockMap updated: 10.251.71.68:50010 is added to blk_2539722870381304113 size 67108864
081111 073359 29 INFO dfs.FSNamesystem: BLOCK* NameSystem.addStoredBlock: blockMap updated: 10.251.71.68:50010 is added to blk_5310758281772357727 size 67108864
081111 073359 29 INFO dfs.FSNamesystem: BLOCK* NameSystem.addStoredBlock: blockMap updated: 10.251.91.32:50010 is added to blk_7531506707922699147 size 67108864
081111 073359 29 INFO dfs.FSNamesystem: BLOCK* NameSystem.allocateBlock: /user/root/rand6/_temporary/_task_200811101024_0013_m_001450_0/part-01450. blk_-6298987183781255510
081111 073359 30 INFO dfs.FSNamesystem: BLOCK* NameSystem.addStoredBlock: blockMap updated: 10.251.111.130:50010 is added to blk_-2783628646494977362 size 67108864
081111 073359 30 INFO dfs.FSNamesystem: BLOCK* NameSystem.addStoredBlock: blockMap updated: 10.251.202.134:50010 is added to blk_5310758281772357727 size 67108864
081111 073359 30 INFO dfs.FSNamesystem: BLOCK* NameSystem.allocateBlock: /user/root/rand6/_temporary/_task_200811101024_0013_m_001410_0/part-01410. blk_1295795568208382968
081111 073359 30 INFO dfs.FSNamesystem: BLOCK* NameSystem.allocateBlock: /user/root/rand6/_temporary/_task_200811101024_0013_m_001495_0/part-01495. blk_3040334361641714748
081111 073359 30 INFO dfs.FSNamesystem: BLOCK* NameSystem.allocateBlock: /user/root/rand6/_temporary/_task_200811101024_0013_m_001503_0/part-01503. blk_-6320213957866283911
081111 073359 31 INFO dfs.FSNamesystem: BLOCK* NameSystem.addStoredBlock: blockMap updated: 10.251.199.150:50010 is added to blk_-3267333874228208344 size 67108864
081111 073359 32 INFO dfs.FSNamesystem: BLOCK* NameSystem.addStoredBlock: blockMap updated: 10.251.27.63:50010 is added to blk_6680244492130172930 size 67108864
081111 073359 32 INFO dfs.FSNamesystem: BLOCK* NameSystem.addStoredBlock: blockMap updated: 10.251.74.134:50010 is added to blk_3769382980789197971 size 67108864
081111 073359 33 INFO dfs.FSNamesystem: BLOCK* NameSystem.addStoredBlock: blockMap updated: 10.250.6.4:50010 is added to blk_2539722870381304113 size 67108864
081111 073359 33 INFO dfs.FSNamesystem: BLOCK* NameSystem.addStoredBlock: blockMap updated: 10.251.74.192:50010 is added to blk_-552059810293862762 size 67108864
081111 073359 33 INFO dfs.FSNamesystem: BLOCK* NameSystem.addStoredBlock: blockMap updated: 10.251.74.79:50010 is added to blk_-8389680516475304628 size 67108864
081111 073359 33 INFO dfs.FSNamesystem: BLOCK* NameSystem.addStoredBlock: blockMap updated: 10.251.75.228:50010 is added to blk_-8389680516475304628 size 67108864
081111 073359 33 INFO dfs.FSNamesystem: BLOCK* NameSystem.addStoredBlock: blockMap updated: 10.251.91.15:50010 is added to blk_2539722870381304113 size 67108864
081111 073359 34 INFO dfs.FSNamesystem: BLOCK* NameSystem.addStoredBlock: blockMap updated: 10.251.107.19:50010 is added to blk_6680244492130172930 size 67108864
081111 073359 34 INFO dfs.FSNamesystem: BLOCK* NameSystem.addStoredBlock: blockMap updated: 10.251.126.255:50010 is added to blk_4560965565498917575 size 67108864
081111 073359 34 INFO dfs.FSNamesystem: BLOCK* NameSystem.addStoredBlock: blockMap updated: 10.251.126.255:50010 is added to blk_7531506707922699147 size 67108864
081111 073359 34 INFO dfs.FSNamesystem: BLOCK* NameSystem.addStoredBlock: blockMap updated: 10.251.126.255:50010 is added to blk_-8146476151461013751 size 67108864
081111 073359 34 INFO dfs.FSNamesystem: BLOCK* NameSystem.addStoredBlock: blockMap updated: 10.251.195.70:50010 is added to blk_3769382980789197971 size 67108864
081111 073359 34 INFO dfs.FSNamesystem: BLOCK* NameSystem.addStoredBlock: blockMap updated: 10.251.202.134:50010 is added to blk_-8482982827917875701 size 67108864
081111 073359 34 INFO dfs.FSNamesystem: BLOCK* NameSystem.allocateBlock: /user/root/rand6/_temporary/_task_200811101024_0013_m_001359_0/part-01359. blk_2630066423762560609
081111 073359 35 INFO dfs.FSNamesystem: BLOCK* NameSystem.addStoredBlock: blockMap updated: 10.251.197.226:50010 is added to blk_-3267333874228208344 size 67108864
081111 073359 35 INFO dfs.FSNamesystem: BLOCK* NameSystem.addStoredBlock: blockMap updated: 10.251.199.86:50010 is added to blk_-1035322003344402668 size 67108864
081111 073400 17852 INFO dfs.DataNode$PacketResponder: PacketResponder 0 for block blk_4678720351071183027 terminating
081111 073400 17852 INFO dfs.DataNode$PacketResponder: Received block blk_4678720351071183027 of size 67108864 from /10.250.14.224
081111 073400 22765 INFO dfs.DataNode$PacketResponder: PacketResponder 1 for block blk_7531506707922699147 terminating
081111 073400 22765 INFO dfs.DataNode$PacketResponder: Received block blk_7531506707922699147 of size 67108864 from /10.251.43.21
081111 073400 22862 INFO dfs.DataNode$PacketResponder: PacketResponder 2 for block blk_-8146476151461013751 terminating
081111 073400 22862 INFO dfs.DataNode$PacketResponder: Received block blk_-8146476151461013751 of size 67108864 from /10.251.126.255
081111 073400 22868 INFO dfs.DataNode$PacketResponder: PacketResponder 1 for block blk_4560965565498917575 terminating
081111 073400 22868 INFO dfs.DataNode$PacketResponder: Received block blk_4560965565498917575 of size 67108864 from /10.251.110.196
081111 073400 22870 INFO dfs.DataNode$PacketResponder: PacketResponder 0 for block blk_7531506707922699147 terminating
081111 073400 22870 INFO dfs.DataNode$PacketResponder: Received block blk_7531506707922699147 of size 67108864 from /10.251.91.32
081111 073400 22877 INFO dfs.DataNode$DataXceiver: Receiving block blk_5601648133249712490 src: /10.251.126.255:44232 dest: /10.251.126.255:50010
081111 073400 22996 INFO dfs.DataNode$PacketResponder: PacketResponder 2 for block blk_2809716756033561737 terminating
081111 073400 22996 INFO dfs.DataNode$PacketResponder: Received block blk_2809716756033561737 of size 67108864 from /10.251.202.134
081111 073400 23013 INFO dfs.DataNode$DataXceiver: Receiving block blk_6863779986721914278 src: /10.251.202.134:37614 dest: /10.251.202.134:50010
081111 073400 23047 INFO dfs.DataNode$PacketResponder: PacketResponder 2 for block blk_5035928476250704885 terminating
081111 073400 23047 INFO dfs.DataNode$PacketResponder: Received block blk_5035928476250704885 of size 67108864 from /10.251.198.196
081111 073400 23063 INFO dfs.DataNode$DataXceiver: Receiving block blk_152354972116847102 src: /10.251.198.196:38044 dest: /10.251.198.196:50010
081111 073400 23076 INFO dfs.DataNode$PacketResponder: PacketResponder 1 for block blk_4678720351071183027 terminating
081111 073400 23076 INFO dfs.DataNode$PacketResponder: Received block blk_4678720351071183027 of size 67108864 from /10.251.126.227
081111 073400 23094 INFO dfs.DataNode$PacketResponder: PacketResponder 0 for block blk_1064284200240345318 terminating
081111 073400 23094 INFO dfs.DataNode$PacketResponder: Received block blk_1064284200240345318 of size 67108864 from /10.251.43.21
081111 073400 23095 INFO dfs.DataNode$PacketResponder: PacketResponder 0 for block blk_-1282963612694456259 terminating
081111 073400 23108 INFO dfs.DataNode$DataXceiver: Receiving block blk_-7208601791068152416 src: /10.251.214.175:60850 dest: /10.251.214.175:50010
081111 073400 23141 INFO dfs.DataNode$DataXceiver: Receiving block blk_-6298987183781255510 src: /10.251.27.63:50471 dest: /10.251.27.63:50010
081111 073400 23143 INFO dfs.DataNode$PacketResponder: PacketResponder 2 for block blk_1107543694132363697 terminating
081111 073400 23143 INFO dfs.DataNode$PacketResponder: Received block blk_1107543694132363697 of size 67108864 from /10.251.71.68
081111 073400 23149 INFO dfs.DataNode$PacketResponder: PacketResponder 1 for block blk_5035928476250704885 terminating
081111 073400 23149 INFO dfs.DataNode$PacketResponder: Received block blk_5035928476250704885 of size 67108864 from /10.251.198.196
081111 073400 23155 INFO dfs.DataNode$DataXceiver: Receiving block blk_-6298987183781255510 src: /10.251.214.32:51286 dest: /10.251.214.32:50010
081111 073400 23165 INFO dfs.DataNode$DataXceiver: Receiving block blk_2630066423762560609 src: /10.251.111.209:41503 dest: /10.251.111.209:50010
081111 073400 23167 INFO dfs.DataNode$PacketResponder: PacketResponder 1 for block blk_4122879012779176771 terminating
081111 073400 23167 INFO dfs.DataNode$PacketResponder: Received block blk_4122879012779176771 of size 67108864 from /10.251.90.81
081111 073400 23175 INFO dfs.DataNode$PacketResponder: PacketResponder 1 for block blk_1107543694132363697 terminating
081111 073400 23175 INFO dfs.DataNode$PacketResponder: Received block blk_1107543694132363697 of size 67108864 from /10.251.71.68
081111 073400 23229 INFO dfs.DataNode$PacketResponder: PacketResponder 0 for block blk_5035928476250704885 terminating
081111 073400 23229 INFO dfs.DataNode$PacketResponder: Received block blk_5035928476250704885 of size 67108864 from /10.251.71.68
081111 073400 23240 INFO dfs.DataNode$DataXceiver: Receiving block blk_554597131593649565 src: /10.251.43.21:52516 dest: /10.251.43.21:50010
081111 073400 23263 INFO dfs.DataNode$DataXceiver: Receiving block blk_3040334361641714748 src: /10.251.38.214:51540 dest: /10.251.38.214:50010
081111 073400 23264 INFO dfs.DataNode$PacketResponder: PacketResponder 1 for block blk_1064284200240345318 terminating
081111 073400 23264 INFO dfs.DataNode$PacketResponder: Received block blk_1064284200240345318 of size 67108864 from /10.251.30.85
081111 073400 23266 INFO dfs.DataNode$PacketResponder: PacketResponder 2 for block blk_-552059810293862762 terminating
081111 073400 23266 INFO dfs.DataNode$PacketResponder: Received block blk_-552059810293862762 of size 67108864 from /10.251.214.175
081111 073400 23268 INFO dfs.DataNode$PacketResponder: PacketResponder 2 for block blk_4678720351071183027 terminating
081111 073400 23268 INFO dfs.DataNode$PacketResponder: Received block blk_4678720351071183027 of size 67108864 from /10.251.126.227
081111 073400 23273 INFO dfs.DataNode$DataXceiver: Receiving block blk_-4090646154998975009 src: /10.251.126.227:42902 dest: /10.251.126.227:50010
081111 073400 23275 INFO dfs.DataNode$DataXceiver: Receiving block blk_554597131593649565 src: /10.251.43.21:55971 dest: /10.251.43.21:50010
081111 073400 23275 INFO dfs.DataNode$DataXceiver: Receiving block blk_-7208601791068152416 src: /10.251.214.175:55565 dest: /10.251.214.175:50010
081111 073400 23285 INFO dfs.DataNode$PacketResponder: PacketResponder 1 for block blk_-1124783414365996995 terminating
081111 073400 23285 INFO dfs.DataNode$PacketResponder: Received block blk_-1124783414365996995 of size 67108864 from /10.251.214.18
081111 073400 23294 INFO dfs.DataNode$PacketResponder: PacketResponder 0 for block blk_4122879012779176771 terminating
081111 073400 23294 INFO dfs.DataNode$PacketResponder: Received block blk_4122879012779176771 of size 67108864 from /10.251.90.134
081111 073400 23295 INFO dfs.DataNode$DataXceiver: Receiving block blk_3317109703262858040 src: /10.251.199.225:56348 dest: /10.251.199.225:50010
081111 073400 23308 INFO dfs.DataNode$DataXceiver: Receiving block blk_-1376675375951354483 src: /10.251.42.84:47152 dest: /10.251.42.84:50010
081111 073400 23315 INFO dfs.DataNode$PacketResponder: PacketResponder 1 for block blk_2809716756033561737 terminating
081111 073400 23315 INFO dfs.DataNode$PacketResponder: Received block blk_2809716756033561737 of size 67108864 from /10.251.202.134
081111 073400 23317 INFO dfs.DataNode$PacketResponder: PacketResponder 1 for block blk_2581662025688400754 terminating
081111 073400 23317 INFO dfs.DataNode$PacketResponder: Received block blk_2581662025688400754 of size 67108864 from /10.251.39.64
081111 073400 23318 INFO dfs.DataNode$DataXceiver: Receiving block blk_1643515387072192762 src: /10.250.6.223:49229 dest: /10.250.6.223:50010
081111 073400 23326 INFO dfs.DataNode$DataXceiver: Receiving block blk_-5697703524879257028 src: /10.250.18.114:54660 dest: /10.250.18.114:50010
081111 073400 23328 INFO dfs.DataNode$PacketResponder: PacketResponder 2 for block blk_6467633145143951421 terminating
081111 073400 23328 INFO dfs.DataNode$PacketResponder: Received block blk_6467633145143951421 of size 67108864 from /10.250.13.188
081111 073400 23345 INFO dfs.DataNode$DataXceiver: Receiving block blk_6863779986721914278 src: /10.251.71.240:50261 dest: /10.251.71.240:50010
081111 073400 23345 INFO dfs.DataNode$DataXceiver: Receiving block blk_-7986043862473856661 src: /10.250.13.188:57322 dest: /10.250.13.188:50010
081111 073400 23362 INFO dfs.DataNode$DataXceiver: Receiving block blk_3040334361641714748 src: /10.251.111.80:52028 dest: /10.251.111.80:50010
081111 073400 23382 INFO dfs.DataNode$DataXceiver: Receiving block blk_-6320213957866283911 src: /10.251.75.228:47580 dest: /10.251.75.228:50010
081111 073400 23383 INFO dfs.DataNode$DataXceiver: Receiving block blk_5601648133249712490 src: /10.251.126.255:35179 dest: /10.251.126.255:50010
081111 073400 23390 INFO dfs.DataNode$PacketResponder: PacketResponder 0 for block blk_6467633145143951421 terminating
081111 073400 23390 INFO dfs.DataNode$PacketResponder: Received block blk_6467633145143951421 of size 67108864 from /10.251.110.196
081111 073400 23394 INFO dfs.DataNode$DataXceiver: Receiving block blk_-3119373556226774440 src: /10.251.110.8:42494 dest: /10.251.110.8:50010
081111 073400 23395 INFO dfs.DataNode$PacketResponder: PacketResponder 0 for block blk_-1555907669205119583 terminating
081111 073400 23395 INFO dfs.DataNode$PacketResponder: Received block blk_-1555907669205119583 of size 67108864 from /10.251.66.102
081111 073400 23405 INFO dfs.DataNode$PacketResponder: PacketResponder 2 for block blk_-1555907669205119583 terminating
081111 073400 23405 INFO dfs.DataNode$PacketResponder: Received block blk_-1555907669205119583 of size 67108864 from /10.251.214.67
081111 073400 23409 INFO dfs.DataNode$DataXceiver: Receiving block blk_-3119373556226774440 src: /10.251.110.8:33051 dest: /10.251.110.8:50010
081111 073400 23414 INFO dfs.DataNode$DataXceiver: Receiving block blk_8353849186728663285 src: /10.251.203.166:60916 dest: /10.251.203.166:50010
081111 073400 23415 INFO dfs.DataNode$DataXceiver: Receiving block blk_3317109703262858040 src: /10.251.214.67:53600 dest: /10.251.214.67:50010
081111 073400 23417 INFO dfs.DataNode$PacketResponder: PacketResponder 0 for block blk_2581662025688400754 terminating
081111 073400 23417 INFO dfs.DataNode$PacketResponder: Received block blk_2581662025688400754 of size 67108864 from /10.251.194.102
081111 073400 23418 INFO dfs.DataNode$DataXceiver: Receiving block blk_3317109703262858040 src: /10.251.214.67:50952 dest: /10.251.214.67:50010
081111 073400 23427 INFO dfs.DataNode$PacketResponder: PacketResponder 1 for block blk_-1555907669205119583 terminating
081111 073400 23427 INFO dfs.DataNode$PacketResponder: Received block blk_-1555907669205119583 of size 67108864 from /10.251.214.67
081111 073400 23438 INFO dfs.DataNode$PacketResponder: PacketResponder 0 for block blk_1107543694132363697 terminating
081111 073400 23438 INFO dfs.DataNode$PacketResponder: Received block blk_1107543694132363697 of size 67108864 from /10.250.15.198
081111 073400 23460 INFO dfs.DataNode$PacketResponder: PacketResponder 2 for block blk_-1124783414365996995 terminating
081111 073400 23460 INFO dfs.DataNode$PacketResponder: Received block blk_-1124783414365996995 of size 67108864 from /10.251.214.18
081111 073400 23469 INFO dfs.DataNode$DataXceiver: Receiving block blk_2067812363998044922 src: /10.251.214.18:48169 dest: /10.251.214.18:50010
081111 073400 23470 INFO dfs.DataNode$DataXceiver: Receiving block blk_152354972116847102 src: /10.251.198.196:58374 dest: /10.251.198.196:50010
081111 073400 23472 INFO dfs.DataNode$DataXceiver: Receiving block blk_-5971672173141611782 src: /10.251.91.15:38523 dest: /10.251.91.15:50010
081111 073400 23473 INFO dfs.DataNode$PacketResponder: PacketResponder 1 for block blk_-1282963612694456259 terminating
081111 073400 23473 INFO dfs.DataNode$PacketResponder: Received block blk_-1282963612694456259 of size 67108864 from /10.251.42.84
081111 073400 23477 INFO dfs.DataNode$PacketResponder: PacketResponder 2 for block blk_-1282963612694456259 terminating
081111 073400 23477 INFO dfs.DataNode$PacketResponder: Received block blk_-1282963612694456259 of size 67108864 from /10.251.42.84
081111 073400 23478 INFO dfs.DataNode$PacketResponder: PacketResponder 1 for block blk_-552059810293862762 terminating
081111 073400 23478 INFO dfs.DataNode$PacketResponder: Received block blk_-552059810293862762 of size 67108864 from /10.251.214.175
081111 073400 23485 INFO dfs.DataNode$DataXceiver: Receiving block blk_-1376675375951354483 src: /10.251.42.84:39513 dest: /10.251.42.84:50010
081111 073400 23490 INFO dfs.DataNode$DataXceiver: Receiving block blk_-6320213957866283911 src: /10.251.75.143:36143 dest: /10.251.75.143:50010
081111 073400 23492 INFO dfs.DataNode$DataXceiver: Receiving block blk_-5971672173141611782 src: /10.251.91.15:39439 dest: /10.251.91.15:50010
081111 073400 23494 INFO dfs.DataNode$DataXceiver: Receiving block blk_5601648133249712490 src: /10.251.75.143:37325 dest: /10.251.75.143:50010
081111 073400 23503 INFO dfs.DataNode$PacketResponder: PacketResponder 0 for block blk_-1124783414365996995 terminating
081111 073400 23503 INFO dfs.DataNode$PacketResponder: Received block blk_-1124783414365996995 of size 67108864 from /10.251.91.159
081111 073400 23525 INFO dfs.DataNode$PacketResponder: PacketResponder 2 for block blk_3986899688542652085 terminating
081111 073400 23525 INFO dfs.DataNode$PacketResponder: Received block blk_3986899688542652085 of size 3542502 from /10.251.111.209
081111 073400 23526 INFO dfs.DataNode$PacketResponder: PacketResponder 1 for block blk_6467633145143951421 terminating
081111 073400 23526 INFO dfs.DataNode$PacketResponder: Received block blk_6467633145143951421 of size 67108864 from /10.250.13.188
081111 073400 23527 INFO dfs.DataNode$PacketResponder: PacketResponder 2 for block blk_4560965565498917575 terminating
081111 073400 23527 INFO dfs.DataNode$PacketResponder: Received block blk_4560965565498917575 of size 67108864 from /10.251.110.196
081111 073400 23529 INFO dfs.DataNode$DataXceiver: Receiving block blk_-5971672173141611782 src: /10.251.91.84:59350 dest: /10.251.91.84:50010
081111 073400 23532 INFO dfs.DataNode$DataXceiver: Receiving block blk_-4960502580007190210 src: /10.251.110.196:40847 dest: /10.251.110.196:50010
081111 073400 23533 INFO dfs.DataNode$DataXceiver: Receiving block blk_-7634987923199707906 src: /10.250.9.207:50799 dest: /10.250.9.207:50010
081111 073400 23555 INFO dfs.DataNode$DataXceiver: Receiving block blk_554597131593649565 src: /10.250.6.214:58267 dest: /10.250.6.214:50010
081111 073400 23573 INFO dfs.DataNode$DataXceiver: Receiving block blk_6863779986721914278 src: /10.251.202.134:55145 dest: /10.251.202.134:50010
081111 073400 23577 INFO dfs.DataNode$PacketResponder: PacketResponder 2 for block blk_4122879012779176771 terminating
081111 073400 23577 INFO dfs.DataNode$PacketResponder: Received block blk_4122879012779176771 of size 67108864 from /10.251.90.81
081111 073400 23587 INFO dfs.DataNode$PacketResponder: PacketResponder 0 for block blk_2809716756033561737 terminating
081111 073400 23587 INFO dfs.DataNode$PacketResponder: Received block blk_2809716756033561737 of size 67108864 from /10.251.111.130
081111 073400 23600 INFO dfs.DataNode$DataXceiver: Receiving block blk_6894179468203030428 src: /10.251.90.81:43316 dest: /10.251.90.81:50010
081111 073400 23604 INFO dfs.DataNode$DataXceiver: Receiving block blk_6894179468203030428 src: /10.251.90.81:53762 dest: /10.251.90.81:50010
081111 073400 23731 INFO dfs.DataNode$DataXceiver: Receiving block blk_-6298987183781255510 src: /10.251.27.63:60484 dest: /10.251.27.63:50010
081111 073400 26 INFO dfs.FSNamesystem: BLOCK* NameSystem.addStoredBlock: blockMap updated: 10.250.5.161:50010 is added to blk_4122879012779176771 size 67108864
081111 073400 26 INFO dfs.FSNamesystem: BLOCK* NameSystem.addStoredBlock: blockMap updated: 10.251.111.209:50010 is added to blk_3986899688542652085 size 3542502
081111 073400 26 INFO dfs.FSNamesystem: BLOCK* NameSystem.addStoredBlock: blockMap updated: 10.251.43.21:50010 is added to blk_1064284200240345318 size 67108864
081111 073400 26 INFO dfs.FSNamesystem: BLOCK* NameSystem.allocateBlock: /user/root/rand6/_temporary/_task_200811101024_0013_m_001153_0/part-01153. blk_-4960502580007190210
081111 073400 26 INFO dfs.FSNamesystem: BLOCK* NameSystem.allocateBlock: /user/root/rand6/_temporary/_task_200811101024_0013_m_001302_0/part-01302. blk_-3003617088019402380
081111 073400 26 INFO dfs.FSNamesystem: BLOCK* NameSystem.allocateBlock: /user/root/rand6/_temporary/_task_200811101024_0013_m_001505_0/part-01505. blk_-1376675375951354483
081111 073400 27 INFO dfs.FSNamesystem: BLOCK* NameSystem.addStoredBlock: blockMap updated: 10.251.194.102:50010 is added to blk_2581662025688400754 size 67108864
081111 073400 27 INFO dfs.FSNamesystem: BLOCK* NameSystem.addStoredBlock: blockMap updated: 10.251.42.84:50010 is added to blk_-1282963612694456259 size 67108864
081111 073400 27 INFO dfs.FSNamesystem: BLOCK* NameSystem.addStoredBlock: blockMap updated: 10.251.90.81:50010 is added to blk_4122879012779176771 size 67108864
081111 073400 27 INFO dfs.FSNamesystem: BLOCK* NameSystem.allocateBlock: /user/root/rand6/_temporary/_task_200811101024_0013_m_001367_0/part-01367. blk_-5971672173141611782
081111 073400 28 INFO dfs.FSNamesystem: BLOCK* NameSystem.addStoredBlock: blockMap updated: 10.250.13.188:50010 is added to blk_6467633145143951421 size 67108864
081111 073400 28 INFO dfs.FSNamesystem: BLOCK* NameSystem.addStoredBlock: blockMap updated: 10.250.7.230:50010 is added to blk_-552059810293862762 size 67108864
081111 073400 28 INFO dfs.FSNamesystem: BLOCK* NameSystem.addStoredBlock: blockMap updated: 10.251.110.196:50010 is added to blk_4560965565498917575 size 67108864
081111 073400 28 INFO dfs.FSNamesystem: BLOCK* NameSystem.addStoredBlock: blockMap updated: 10.251.215.70:50010 is added to blk_2581662025688400754 size 67108864
081111 073400 28 INFO dfs.FSNamesystem: BLOCK* NameSystem.addStoredBlock: blockMap updated: 10.251.37.240:50010 is added to blk_-1555907669205119583 size 67108864
081111 073400 28 INFO dfs.FSNamesystem: BLOCK* NameSystem.allocateBlock: /user/root/rand6/_temporary/_task_200811101024_0013_m_001385_0/part-01385. blk_-4269054410827772894
081111 073400 28 INFO dfs.FSNamesystem: BLOCK* NameSystem.allocateBlock: /user/root/rand6/_temporary/_task_200811101024_0013_m_001531_0/part-01531. blk_-4090646154998975009
081111 073400 29 INFO dfs.FSNamesystem: BLOCK* NameSystem.addStoredBlock: blockMap updated: 10.250.15.198:50010 is added to blk_1107543694132363697 size 67108864
081111 073400 29 INFO dfs.FSNamesystem: BLOCK* NameSystem.addStoredBlock: blockMap updated: 10.251.111.130:50010 is added to blk_2809716756033561737 size 67108864
081111 073400 29 INFO dfs.FSNamesystem: BLOCK* NameSystem.addStoredBlock: blockMap updated: 10.251.214.67:50010 is added to blk_-1555907669205119583 size 67108864
081111 073400 29 INFO dfs.FSNamesystem: BLOCK* NameSystem.addStoredBlock: blockMap updated: 10.251.43.21:50010 is added to blk_7531506707922699147 size 67108864
081111 073400 29 INFO dfs.FSNamesystem: BLOCK* NameSystem.addStoredBlock: blockMap updated: 10.251.71.68:50010 is added to blk_5035928476250704885 size 67108864
081111 073400 30 INFO dfs.FSNamesystem: BLOCK* NameSystem.addStoredBlock: blockMap updated: 10.251.198.196:50010 is added to blk_5035928476250704885 size 67108864
081111 073400 30 INFO dfs.FSNamesystem: BLOCK* NameSystem.addStoredBlock: blockMap updated: 10.251.202.134:50010 is added to blk_2809716756033561737 size 67108864
081111 073400 30 INFO dfs.FSNamesystem: BLOCK* NameSystem.addStoredBlock: blockMap updated: 10.251.66.102:50010 is added to blk_-1555907669205119583 size 67108864
081111 073400 30 INFO dfs.FSNamesystem: BLOCK* NameSystem.allocateBlock: /user/root/rand6/_temporary/_task_200811101024_0013_m_001249_0/part-01249. blk_-7986043862473856661
081111 073400 31 INFO dfs.FSNamesystem: BLOCK* NameSystem.addStoredBlock: blockMap updated: 10.250.5.237:50010 is added to blk_-1124783414365996995 size 67108864
081111 073400 31 INFO dfs.FSNamesystem: BLOCK* NameSystem.addStoredBlock: blockMap updated: 10.250.6.214:50010 is added to blk_5035928476250704885 size 67108864
081111 073400 31 INFO dfs.FSNamesystem: BLOCK* NameSystem.addStoredBlock: blockMap updated: 10.251.90.134:50010 is added to blk_4122879012779176771 size 67108864
081111 073400 32 INFO dfs.FSNamesystem: BLOCK* NameSystem.addStoredBlock: blockMap updated: 10.251.195.70:50010 is added to blk_1107543694132363697 size 67108864
081111 073400 32 INFO dfs.FSNamesystem: BLOCK* NameSystem.addStoredBlock: blockMap updated: 10.251.214.175:50010 is added to blk_-552059810293862762 size 67108864
081111 073400 32 INFO dfs.FSNamesystem: BLOCK* NameSystem.addStoredBlock: blockMap updated: 10.251.30.85:50010 is added to blk_1064284200240345318 size 67108864
081111 073400 33 INFO dfs.FSNamesystem: BLOCK* NameSystem.addStoredBlock: blockMap updated: 10.251.123.33:50010 is added to blk_4678720351071183027 size 67108864
081111 073400 33 INFO dfs.FSNamesystem: BLOCK* NameSystem.addStoredBlock: blockMap updated: 10.251.199.245:50010 is added to blk_-1282963612694456259 size 67108864
081111 073400 33 INFO dfs.FSNamesystem: BLOCK* NameSystem.addStoredBlock: blockMap updated: 10.251.214.18:50010 is added to blk_-1124783414365996995 size 67108864
081111 073400 33 INFO dfs.FSNamesystem: BLOCK* NameSystem.addStoredBlock: blockMap updated: 10.251.215.192:50010 is added to blk_6467633145143951421 size 67108864
081111 073400 33 INFO dfs.FSNamesystem: BLOCK* NameSystem.addStoredBlock: blockMap updated: 10.251.67.225:50010 is added to blk_2809716756033561737 size 67108864
081111 073400 33 INFO dfs.FSNamesystem: BLOCK* NameSystem.allocateBlock: /user/root/rand6/_temporary/_task_200811101024_0013_m_001163_0/part-01163. blk_6894179468203030428
081111 073400 33 INFO dfs.FSNamesystem: BLOCK* NameSystem.allocateBlock: /user/root/rand6/_temporary/_task_200811101024_0013_m_001313_0/part-01313. blk_-7208601791068152416
081111 073400 34 INFO dfs.FSNamesystem: BLOCK* NameSystem.addStoredBlock: blockMap updated: 10.250.14.224:50010 is added to blk_4678720351071183027 size 67108864
081111 073400 34 INFO dfs.FSNamesystem: BLOCK* NameSystem.addStoredBlock: blockMap updated: 10.251.109.236:50010 is added to blk_1064284200240345318 size 67108864
081111 073400 34 INFO dfs.FSNamesystem: BLOCK* NameSystem.addStoredBlock: blockMap updated: 10.251.110.196:50010 is added to blk_6467633145143951421 size 67108864
081111 073400 34 INFO dfs.FSNamesystem: BLOCK* NameSystem.addStoredBlock: blockMap updated: 10.251.71.68:50010 is added to blk_1107543694132363697 size 67108864
081111 073400 34 INFO dfs.FSNamesystem: BLOCK* NameSystem.allocateBlock: /user/root/rand6/_temporary/_task_200811101024_0013_m_001207_0/part-01207. blk_6863779986721914278
081111 073400 34 INFO dfs.FSNamesystem: BLOCK* NameSystem.allocateBlock: /user/root/rand6/_temporary/_task_200811101024_0013_m_001357_0/part-01357. blk_3317109703262858040
081111 073400 34 INFO dfs.FSNamesystem: BLOCK* NameSystem.allocateBlock: /user/root/rand6/_temporary/_task_200811101024_0013_m_001523_0/part-01523. blk_152354972116847102
081111 073400 34 INFO dfs.FSNamesystem: BLOCK* NameSystem.allocateBlock: /user/root/rand6/_temporary/_task_200811101024_0013_m_001559_0/part-01559. blk_-3119373556226774440
081111 073400 35 INFO dfs.FSNamesystem: BLOCK* NameSystem.addStoredBlock: blockMap updated: 10.250.17.177:50010 is added to blk_-8096393857231004456 size 67108864
081111 073400 35 INFO dfs.FSNamesystem: BLOCK* NameSystem.addStoredBlock: blockMap updated: 10.251.123.20:50010 is added to blk_-8389680516475304628 size 67108864
081111 073400 35 INFO dfs.FSNamesystem: BLOCK* NameSystem.addStoredBlock: blockMap updated: 10.251.126.227:50010 is added to blk_4678720351071183027 size 67108864
081111 073400 35 INFO dfs.FSNamesystem: BLOCK* NameSystem.addStoredBlock: blockMap updated: 10.251.91.159:50010 is added to blk_-1124783414365996995 size 67108864
081111 073400 35 INFO dfs.FSNamesystem: BLOCK* NameSystem.allocateBlock: /user/root/rand6/_temporary/_task_200811101024_0013_m_001215_0/part-01215. blk_554597131593649565
081111 073400 35 INFO dfs.FSNamesystem: BLOCK* NameSystem.allocateBlock: /user/root/rand6/_temporary/_task_200811101024_0013_m_001291_0/part-01291. blk_2067812363998044922
081111 073400 8548 INFO dfs.DataNode$PacketResponder: PacketResponder 2 for block blk_1064284200240345318 terminating
081111 073400 8548 INFO dfs.DataNode$PacketResponder: Received block blk_1064284200240345318 of size 67108864 from /10.251.30.85
081111 073400 8572 INFO dfs.DataNode$DataXceiver: Receiving block blk_-4269054410827772894 src: /10.251.30.85:59615 dest: /10.251.30.85:50010
081111 073401 22849 INFO dfs.DataNode$PacketResponder: PacketResponder 0 for block blk_5215417512172127338 terminating
081111 073401 22849 INFO dfs.DataNode$PacketResponder: Received block blk_5215417512172127338 of size 67108864 from /10.251.39.209
081111 073401 22879 INFO dfs.DataNode$DataXceiver: Receiving block blk_2183961290259644462 src: /10.250.6.4:45420 dest: /10.250.6.4:50010
081111 073401 22973 INFO dfs.DataNode$DataXceiver: Receiving block blk_-7986043862473856661 src: /10.250.13.188:37224 dest: /10.250.13.188:50010
081111 073401 22994 INFO dfs.DataNode$DataXceiver: Receiving block blk_-4090646154998975009 src: /10.251.39.179:51723 dest: /10.251.39.179:50010
081111 073401 23070 INFO dfs.DataNode$PacketResponder: PacketResponder 0 for block blk_8581866969443786674 terminating
081111 073401 23070 INFO dfs.DataNode$PacketResponder: Received block blk_8581866969443786674 of size 67108864 from /10.251.38.53
081111 073401 23095 INFO dfs.DataNode$PacketResponder: PacketResponder 1 for block blk_828333545041345425 terminating
081111 073401 23095 INFO dfs.DataNode$PacketResponder: Received block blk_828333545041345425 of size 67108864 from /10.250.7.146
081111 073401 23103 INFO dfs.DataNode$PacketResponder: PacketResponder 1 for block blk_5215417512172127338 terminating
081111 073401 23103 INFO dfs.DataNode$PacketResponder: Received block blk_5215417512172127338 of size 67108864 from /10.251.214.225
081111 073401 23133 INFO dfs.DataNode$DataXceiver: Receiving block blk_-3354956512212585277 src: /10.251.43.210:37746 dest: /10.251.43.210:50010
081111 073401 23142 INFO dfs.DataNode$PacketResponder: PacketResponder 1 for block blk_6486828925203493700 terminating
081111 073401 23142 INFO dfs.DataNode$PacketResponder: Received block blk_6486828925203493700 of size 67108864 from /10.251.38.53
081111 073401 23158 INFO dfs.DataNode$DataXceiver: Receiving block blk_-7986043862473856661 src: /10.251.123.195:50939 dest: /10.251.123.195:50010
081111 073401 23164 INFO dfs.DataNode$DataXceiver: Receiving block blk_-3003617088019402380 src: /10.251.71.68:56179 dest: /10.251.71.68:50010
081111 073401 23169 INFO dfs.DataNode$PacketResponder: PacketResponder 0 for block blk_6486828925203493700 terminating
081111 073401 23169 INFO dfs.DataNode$PacketResponder: Received block blk_6486828925203493700 of size 67108864 from /10.251.107.98
081111 073401 23185 INFO dfs.DataNode$PacketResponder: PacketResponder 2 for block blk_828333545041345425 terminating
081111 073401 23185 INFO dfs.DataNode$PacketResponder: Received block blk_828333545041345425 of size 67108864 from /10.250.7.146
081111 073401 23189 INFO dfs.DataNode$DataXceiver: Receiving block blk_-6312905710201673627 src: /10.251.67.4:57985 dest: /10.251.67.4:50010
081111 073401 23193 INFO dfs.DataNode$PacketResponder: PacketResponder 2 for block blk_5215417512172127338 terminating
081111 073401 23193 INFO dfs.DataNode$PacketResponder: Received block blk_5215417512172127338 of size 67108864 from /10.251.214.225
081111 073401 23197 INFO dfs.DataNode$DataXceiver: Receiving block blk_-8975913141493734718 src: /10.251.39.64:52559 dest: /10.251.39.64:50010
081111 073401 23199 INFO dfs.DataNode$DataXceiver: Receiving block blk_-7208601791068152416 src: /10.251.39.209:44275 dest: /10.251.39.209:50010
081111 073401 23231 INFO dfs.DataNode$PacketResponder: PacketResponder 2 for block blk_2581662025688400754 terminating
081111 073401 23231 INFO dfs.DataNode$PacketResponder: Received block blk_2581662025688400754 of size 67108864 from /10.251.39.64
081111 073401 23243 INFO dfs.DataNode$PacketResponder: PacketResponder 0 for block blk_-8096393857231004456 terminating
081111 073401 23243 INFO dfs.DataNode$PacketResponder: Received block blk_-8096393857231004456 of size 67108864 from /10.251.123.1
081111 073401 23253 INFO dfs.DataNode$DataXceiver: Receiving block blk_-8975913141493734718 src: /10.251.39.64:56919 dest: /10.251.39.64:50010
081111 073401 23266 INFO dfs.DataNode$PacketResponder: PacketResponder 2 for block blk_7949248293345461197 terminating
081111 073401 23266 INFO dfs.DataNode$PacketResponder: Received block blk_7949248293345461197 of size 67108864 from /10.250.14.143
081111 073401 23273 INFO dfs.DataNode$DataXceiver: Receiving block blk_-3003617088019402380 src: /10.251.71.68:60708 dest: /10.251.71.68:50010
081111 073401 23274 INFO dfs.DataNode$DataXceiver: Receiving block blk_-4340935651053444367 src: /10.251.39.144:50545 dest: /10.251.39.144:50010
081111 073401 23277 INFO dfs.DataNode$DataXceiver: Receiving block blk_-4269054410827772894 src: /10.250.10.213:33097 dest: /10.250.10.213:50010
081111 073401 23298 INFO dfs.DataNode$PacketResponder: PacketResponder 2 for block blk_-8096393857231004456 terminating
081111 073401 23298 INFO dfs.DataNode$PacketResponder: Received block blk_-8096393857231004456 of size 67108864 from /10.251.125.237
081111 073401 23299 INFO dfs.DataNode$PacketResponder: PacketResponder 2 for block blk_-8503639229379807527 terminating
081111 073401 23299 INFO dfs.DataNode$PacketResponder: Received block blk_-8503639229379807527 of size 67108864 from /10.250.5.161
081111 073401 23303 INFO dfs.DataNode$PacketResponder: PacketResponder 1 for block blk_-8503639229379807527 terminating
081111 073401 23303 INFO dfs.DataNode$PacketResponder: Received block blk_-8503639229379807527 of size 67108864 from /10.250.5.161
081111 073401 23307 INFO dfs.DataNode$DataXceiver: Receiving block blk_-3354956512212585277 src: /10.251.125.237:33859 dest: /10.251.125.237:50010
081111 073401 23307 INFO dfs.DataNode$PacketResponder: PacketResponder 0 for block blk_7949248293345461197 terminating
081111 073401 23307 INFO dfs.DataNode$PacketResponder: Received block blk_7949248293345461197 of size 67108864 from /10.250.5.161
081111 073401 23311 INFO dfs.DataNode$DataXceiver: Receiving block blk_-4340935651053444367 src: /10.251.31.180:58813 dest: /10.251.31.180:50010
081111 073401 23311 INFO dfs.DataNode$PacketResponder: PacketResponder 1 for block blk_7949248293345461197 terminating
081111 073401 23311 INFO dfs.DataNode$PacketResponder: Received block blk_7949248293345461197 of size 67108864 from /10.250.14.143
081111 073401 23317 INFO dfs.DataNode$PacketResponder: PacketResponder 2 for block blk_-2842509209642355438 terminating
081111 073401 23317 INFO dfs.DataNode$PacketResponder: Received block blk_-2842509209642355438 of size 67108864 from /10.250.10.223
081111 073401 23320 INFO dfs.DataNode$DataXceiver: Receiving block blk_2183961290259644462 src: /10.250.5.161:40116 dest: /10.250.5.161:50010
081111 073401 23329 INFO dfs.DataNode$PacketResponder: PacketResponder 1 for block blk_4545431903091552181 terminating
081111 073401 23329 INFO dfs.DataNode$PacketResponder: Received block blk_4545431903091552181 of size 67108864 from /10.251.215.16
081111 073401 23333 INFO dfs.DataNode$PacketResponder: PacketResponder 0 for block blk_-2842509209642355438 terminating
081111 073401 23333 INFO dfs.DataNode$PacketResponder: Received block blk_-2842509209642355438 of size 67108864 from /10.251.215.16
081111 073401 23354 INFO dfs.DataNode$DataXceiver: Receiving block blk_-4269054410827772894 src: /10.251.30.85:57731 dest: /10.251.30.85:50010
081111 073401 23364 INFO dfs.DataNode$PacketResponder: PacketResponder 1 for block blk_-8096393857231004456 terminating
081111 073401 23364 INFO dfs.DataNode$PacketResponder: Received block blk_-8096393857231004456 of size 67108864 from /10.251.125.237
081111 073401 23379 INFO dfs.DataNode$DataXceiver: Receiving block blk_2183961290259644462 src: /10.250.5.161:41858 dest: /10.250.5.161:50010
081111 073401 23379 INFO dfs.DataNode$DataXceiver: Receiving block blk_-2217894440149511635 src: /10.251.123.1:41672 dest: /10.251.123.1:50010
081111 073401 23392 INFO dfs.DataNode$DataXceiver: Receiving block blk_-4960502580007190210 src: /10.251.110.196:56169 dest: /10.251.110.196:50010
081111 073401 23402 INFO dfs.DataNode$PacketResponder: PacketResponder 1 for block blk_-2842509209642355438 terminating
081111 073401 23402 INFO dfs.DataNode$PacketResponder: Received block blk_-2842509209642355438 of size 67108864 from /10.250.10.223
081111 073401 23438 INFO dfs.DataNode$DataXceiver: Receiving block blk_-3354956512212585277 src: /10.251.125.237:54448 dest: /10.251.125.237:50010
081111 073401 23454 INFO dfs.DataNode$PacketResponder: PacketResponder 0 for block blk_-8503639229379807527 terminating
081111 073401 23454 INFO dfs.DataNode$PacketResponder: Received block blk_-8503639229379807527 of size 67108864 from /10.251.29.239
081111 073401 23470 INFO dfs.DataNode$DataXceiver: Receiving block blk_2721827506461556890 src: /10.250.6.223:47000 dest: /10.250.6.223:50010
081111 073401 23496 INFO dfs.DataNode$DataXceiver: Receiving block blk_-4090646154998975009 src: /10.251.126.227:50229 dest: /10.251.126.227:50010
081111 073401 23521 INFO dfs.DataNode$PacketResponder: PacketResponder 0 for block blk_828333545041345425 terminating
081111 073401 23521 INFO dfs.DataNode$PacketResponder: Received block blk_828333545041345425 of size 67108864 from /10.251.39.209
081111 073401 23531 INFO dfs.DataNode$DataXceiver: Receiving block blk_-8975913141493734718 src: /10.251.30.6:46674 dest: /10.251.30.6:50010
081111 073401 23575 INFO dfs.DataNode$DataXceiver: Receiving block blk_6894179468203030428 src: /10.251.67.225:57674 dest: /10.251.67.225:50010
081111 073401 23591 INFO dfs.DataNode$PacketResponder: PacketResponder 0 for block blk_-4834613620150972667 terminating
081111 073401 23591 INFO dfs.DataNode$PacketResponder: Received block blk_-4834613620150972667 of size 67108864 from /10.251.30.101
081111 073401 23611 INFO dfs.DataNode$PacketResponder: PacketResponder 2 for block blk_-4834613620150972667 terminating
081111 073401 23611 INFO dfs.DataNode$PacketResponder: Received block blk_-4834613620150972667 of size 67108864 from /10.251.39.144
081111 073401 23616 INFO dfs.DataNode$DataXceiver: Receiving block blk_-4340935651053444367 src: /10.251.39.144:36384 dest: /10.251.39.144:50010
081111 073401 23629 INFO dfs.DataNode$PacketResponder: PacketResponder 1 for block blk_-4834613620150972667 terminating
081111 073401 23629 INFO dfs.DataNode$PacketResponder: Received block blk_-4834613620150972667 of size 67108864 from /10.251.39.144
081111 073401 26 INFO dfs.FSNamesystem: BLOCK* NameSystem.addStoredBlock: blockMap updated: 10.250.14.143:50010 is added to blk_7949248293345461197 size 67108864
081111 073401 26 INFO dfs.FSNamesystem: BLOCK* NameSystem.addStoredBlock: blockMap updated: 10.251.107.98:50010 is added to blk_6486828925203493700 size 67108864
081111 073401 26 INFO dfs.FSNamesystem: BLOCK* NameSystem.allocateBlock: /user/root/rand6/_temporary/_task_200811101024_0013_m_001271_0/part-01271. blk_-8975913141493734718
081111 073401 27 INFO dfs.FSNamesystem: BLOCK* NameSystem.addStoredBlock: blockMap updated: 10.251.29.239:50010 is added to blk_-8503639229379807527 size 67108864
081111 073401 27 INFO dfs.FSNamesystem: BLOCK* NameSystem.addStoredBlock: blockMap updated: 10.251.39.209:50010 is added to blk_828333545041345425 size 67108864
081111 073401 27 INFO dfs.FSNamesystem: BLOCK* NameSystem.addStoredBlock: blockMap updated: 10.251.39.64:50010 is added to blk_2581662025688400754 size 67108864
081111 073401 28 INFO dfs.FSNamesystem: BLOCK* NameSystem.addStoredBlock: blockMap updated: 10.250.14.224:50010 is added to blk_8581866969443786674 size 67108864
081111 073401 29 INFO dfs.FSNamesystem: BLOCK* NameSystem.addStoredBlock: blockMap updated: 10.251.214.225:50010 is added to blk_5215417512172127338 size 67108864
081111 073401 29 INFO dfs.FSNamesystem: BLOCK* NameSystem.addStoredBlock: blockMap updated: 10.251.215.16:50010 is added to blk_-2842509209642355438 size 67108864
081111 073401 29 INFO dfs.FSNamesystem: BLOCK* NameSystem.allocateBlock: /user/root/rand6/_temporary/_task_200811101024_0013_m_001534_0/part-01534. blk_-4340935651053444367
081111 073401 30 INFO dfs.FSNamesystem: BLOCK* NameSystem.addStoredBlock: blockMap updated: 10.251.30.101:50010 is added to blk_-4834613620150972667 size 67108864
081111 073401 30 INFO dfs.FSNamesystem: BLOCK* NameSystem.addStoredBlock: blockMap updated: 10.251.39.144:50010 is added to blk_-4834613620150972667 size 67108864
081111 073401 30 INFO dfs.FSNamesystem: BLOCK* NameSystem.addStoredBlock: blockMap updated: 10.251.71.97:50010 is added to blk_-2842509209642355438 size 67108864
081111 073401 31 INFO dfs.FSNamesystem: BLOCK* NameSystem.addStoredBlock: blockMap updated: 10.250.5.161:50010 is added to blk_-8503639229379807527 size 67108864
081111 073401 31 INFO dfs.FSNamesystem: BLOCK* NameSystem.addStoredBlock: blockMap updated: 10.251.29.239:50010 is added to blk_7949248293345461197 size 67108864
081111 073401 31 INFO dfs.FSNamesystem: BLOCK* NameSystem.allocateBlock: /user/root/rand6/_temporary/_task_200811101024_0013_m_001571_0/part-01571. blk_-2217894440149511635
081111 073401 32 INFO dfs.FSNamesystem: BLOCK* NameSystem.addStoredBlock: blockMap updated: 10.251.39.209:50010 is added to blk_5215417512172127338 size 67108864
081111 073401 33 INFO dfs.FSNamesystem: BLOCK* NameSystem.addStoredBlock: blockMap updated: 10.251.106.37:50010 is added to blk_828333545041345425 size 67108864
081111 073401 33 INFO dfs.FSNamesystem: BLOCK* NameSystem.addStoredBlock: blockMap updated: 10.251.90.81:50010 is added to blk_-4834613620150972667 size 67108864
081111 073401 34 INFO dfs.FSNamesystem: BLOCK* NameSystem.addStoredBlock: blockMap updated: 10.251.125.237:50010 is added to blk_-8096393857231004456 size 67108864
081111 073401 34 INFO dfs.FSNamesystem: BLOCK* NameSystem.addStoredBlock: blockMap updated: 10.251.214.18:50010 is added to blk_-8503639229379807527 size 67108864
081111 073401 35 INFO dfs.FSNamesystem: BLOCK* NameSystem.addStoredBlock: blockMap updated: 10.250.5.161:50010 is added to blk_7949248293345461197 size 67108864
081111 073401 35 INFO dfs.FSNamesystem: BLOCK* NameSystem.addStoredBlock: blockMap updated: 10.251.123.1:50010 is added to blk_-8096393857231004456 size 67108864
081111 073401 35 INFO dfs.FSNamesystem: BLOCK* NameSystem.addStoredBlock: blockMap updated: 10.251.42.9:50010 is added to blk_6486828925203493700 size 67108864
081111 073401 35 INFO dfs.FSNamesystem: BLOCK* NameSystem.allocateBlock: /user/root/rand6/_temporary/_task_200811101024_0013_m_001315_0/part-01315. blk_-2200985078667725926
081111 073401 35 INFO dfs.FSNamesystem: BLOCK* NameSystem.allocateBlock: /user/root/rand6/_temporary/_task_200811101024_0013_m_001425_0/part-01425. blk_-3354956512212585277
081111 073401 35 INFO dfs.FSNamesystem: BLOCK* NameSystem.allocateBlock: /user/root/rand6/_temporary/_task_200811101024_0013_m_001501_0/part-01501. blk_2183961290259644462
081111 073401 35 INFO dfs.FSNamesystem: BLOCK* NameSystem.allocateBlock: /user/root/rand6/_temporary/_task_200811101024_0013_m_001573_0/part-01573. blk_2721827506461556890
081111 073402 13 INFO dfs.DataBlockScanner: Verification succeeded for blk_-837817683637080501
081111 073402 17857 INFO dfs.DataNode$DataXceiver: Receiving block blk_-4089807722951838974 src: /10.250.11.53:37420 dest: /10.250.11.53:50010
081111 073402 20836 INFO dfs.DataNode$PacketResponder: PacketResponder 1 for block blk_-691626508076105605 terminating
081111 073402 20836 INFO dfs.DataNode$PacketResponder: Received block blk_-691626508076105605 of size 67108864 from /10.251.107.242
081111 073402 22866 INFO dfs.DataNode$PacketResponder: PacketResponder 1 for block blk_-8451767167949278093 terminating
081111 073402 22866 INFO dfs.DataNode$PacketResponder: Received block blk_-8451767167949278093 of size 67108864 from /10.251.66.102
081111 073402 22910 INFO dfs.DataNode$DataXceiver: Receiving block blk_6684161724769202228 src: /10.251.203.166:51033 dest: /10.251.203.166:50010
081111 073402 22939 INFO dfs.DataNode$PacketResponder: PacketResponder 2 for block blk_-691626508076105605 terminating
081111 073402 22939 INFO dfs.DataNode$PacketResponder: Received block blk_-691626508076105605 of size 67108864 from /10.251.107.242
081111 073402 22960 INFO dfs.DataNode$DataXceiver: Receiving block blk_3642754554880845736 src: /10.251.107.242:42023 dest: /10.251.107.242:50010
081111 073402 22976 INFO dfs.DataNode$DataXceiver: Receiving block blk_3833346110663122544 src: /10.251.91.15:35863 dest: /10.251.91.15:50010
081111 073402 23002 INFO dfs.DataNode$PacketResponder: PacketResponder 1 for block blk_1847527010180727021 terminating
081111 073402 23002 INFO dfs.DataNode$PacketResponder: Received block blk_1847527010180727021 of size 67108864 from /10.250.15.67
081111 073402 23026 INFO dfs.DataNode$PacketResponder: PacketResponder 2 for block blk_1847527010180727021 terminating
081111 073402 23026 INFO dfs.DataNode$PacketResponder: Received block blk_1847527010180727021 of size 67108864 from /10.250.15.67
081111 073402 23061 INFO dfs.DataNode$PacketResponder: PacketResponder 2 for block blk_8581866969443786674 terminating
081111 073402 23061 INFO dfs.DataNode$PacketResponder: Received block blk_8581866969443786674 of size 67108864 from /10.251.203.166
081111 073402 23068 INFO dfs.DataNode$DataXceiver: Receiving block blk_6684161724769202228 src: /10.251.203.166:37916 dest: /10.251.203.166:50010
081111 073402 23079 INFO dfs.DataNode$PacketResponder: PacketResponder 2 for block blk_5160653032900292591 terminating
081111 073402 23079 INFO dfs.DataNode$PacketResponder: Received block blk_5160653032900292591 of size 67108864 from /10.251.127.243
081111 073402 23091 INFO dfs.DataNode$DataXceiver: Receiving block blk_7600803295301917041 src: /10.251.127.243:38630 dest: /10.251.127.243:50010
081111 073402 23110 INFO dfs.DataNode$DataXceiver: Receiving block blk_3833346110663122544 src: /10.251.75.228:53911 dest: /10.251.75.228:50010
081111 073402 23128 INFO dfs.DataNode$PacketResponder: PacketResponder 1 for block blk_4218325015176810978 terminating
081111 073402 23128 INFO dfs.DataNode$PacketResponder: Received block blk_4218325015176810978 of size 67108864 from /10.251.199.225
081111 073402 23175 INFO dfs.DataNode$PacketResponder: PacketResponder 2 for block blk_4264525230374887188 terminating
081111 073402 23175 INFO dfs.DataNode$PacketResponder: Received block blk_4264525230374887188 of size 67108864 from /10.251.67.113
081111 073402 23200 INFO dfs.DataNode$DataXceiver: Receiving block blk_5112811271915129959 src: /10.250.7.146:44013 dest: /10.250.7.146:50010
081111 073402 23201 INFO dfs.DataNode$DataXceiver: Receiving block blk_-2200985078667725926 src: /10.251.43.21:54243 dest: /10.251.43.21:50010
081111 073402 23202 INFO dfs.DataNode$DataXceiver: Receiving block blk_-4279160384825475809 src: /10.251.214.225:39585 dest: /10.251.214.225:50010
081111 073402 23234 INFO dfs.DataNode$DataXceiver: Receiving block blk_-4279160384825475809 src: /10.251.214.225:41048 dest: /10.251.214.225:50010
081111 073402 23266 INFO dfs.DataNode$PacketResponder: PacketResponder 0 for block blk_-691626508076105605 terminating
081111 073402 23266 INFO dfs.DataNode$PacketResponder: Received block blk_-691626508076105605 of size 67108864 from /10.251.107.50
081111 073402 23269 INFO dfs.DataNode$PacketResponder: PacketResponder 1 for block blk_-6582946343515350467 terminating
081111 073402 23269 INFO dfs.DataNode$PacketResponder: Received block blk_-6582946343515350467 of size 67108864 from /10.250.7.96
081111 073402 23273 INFO dfs.DataNode$DataXceiver: Receiving block blk_-2200985078667725926 src: /10.250.14.143:38947 dest: /10.250.14.143:50010
081111 073402 23279 INFO dfs.DataNode$DataXceiver: Receiving block blk_-2200985078667725926 src: /10.250.14.143:52480 dest: /10.250.14.143:50010
081111 073402 23279 INFO dfs.DataNode$DataXceiver: Receiving block blk_2204470345194149424 src: /10.251.91.84:33246 dest: /10.251.91.84:50010
081111 073402 23281 INFO dfs.DataNode$DataXceiver: Receiving block blk_-5485766685956895324 src: /10.250.6.191:37548 dest: /10.250.6.191:50010
081111 073402 23282 INFO dfs.DataNode$PacketResponder: PacketResponder 2 for block blk_-6257212098225907287 terminating
081111 073402 23282 INFO dfs.DataNode$PacketResponder: Received block blk_-6257212098225907287 of size 67108864 from /10.251.106.50
081111 073402 23287 INFO dfs.DataNode$DataXceiver: Receiving block blk_-91002884287410228 src: /10.251.66.102:58491 dest: /10.251.66.102:50010
081111 073402 23297 INFO dfs.DataNode$DataXceiver: Receiving block blk_6684161724769202228 src: /10.251.203.80:37759 dest: /10.251.203.80:50010
081111 073402 23297 INFO dfs.DataNode$PacketResponder: PacketResponder 0 for block blk_8325752418615195520 terminating
081111 073402 23297 INFO dfs.DataNode$PacketResponder: Received block blk_8325752418615195520 of size 67108864 from /10.250.13.240
081111 073402 23299 INFO dfs.DataNode$DataXceiver: Receiving block blk_1138534254517147495 src: /10.251.106.50:56930 dest: /10.251.106.50:50010
081111 073402 23300 INFO dfs.DataNode$DataXceiver: Receiving block blk_-5485766685956895324 src: /10.251.193.224:53812 dest: /10.251.193.224:50010
081111 073402 23302 INFO dfs.DataNode$DataXceiver: Receiving block blk_-1272939520048602397 src: /10.251.199.225:54523 dest: /10.251.199.225:50010
081111 073402 23308 INFO dfs.DataNode$PacketResponder: PacketResponder 0 for block blk_-7470409106752087667 terminating
081111 073402 23308 INFO dfs.DataNode$PacketResponder: Received block blk_-7470409106752087667 of size 67108864 from /10.251.43.192
081111 073402 23312 INFO dfs.DataNode$PacketResponder: PacketResponder 0 for block blk_4218325015176810978 terminating
081111 073402 23312 INFO dfs.DataNode$PacketResponder: Received block blk_4218325015176810978 of size 67108864 from /10.251.214.32
081111 073402 23326 INFO dfs.DataNode$DataXceiver: Receiving block blk_1739705686404642355 src: /10.250.10.223:42843 dest: /10.250.10.223:50010
081111 073402 23330 INFO dfs.DataNode$PacketResponder: PacketResponder 0 for block blk_1847527010180727021 terminating
081111 073402 23330 INFO dfs.DataNode$PacketResponder: Received block blk_1847527010180727021 of size 67108864 from /10.251.202.134
081111 073402 23332 INFO dfs.DataNode$PacketResponder: PacketResponder 1 for block blk_5160653032900292591 terminating
081111 073402 23332 INFO dfs.DataNode$PacketResponder: Received block blk_5160653032900292591 of size 67108864 from /10.251.127.243
081111 073402 23340 INFO dfs.DataNode$PacketResponder: PacketResponder 1 for block blk_-691718415551996161 terminating
081111 073402 23340 INFO dfs.DataNode$PacketResponder: PacketResponder 1 for block blk_8246084630741251037 terminating
081111 073402 23340 INFO dfs.DataNode$PacketResponder: Received block blk_-691718415551996161 of size 67108864 from /10.250.19.16
081111 073402 23340 INFO dfs.DataNode$PacketResponder: Received block blk_8246084630741251037 of size 67108864 from /10.251.27.63
081111 073402 23345 INFO dfs.DataNode$PacketResponder: PacketResponder 0 for block blk_-691718415551996161 terminating
081111 073402 23345 INFO dfs.DataNode$PacketResponder: Received block blk_-691718415551996161 of size 67108864 from /10.251.71.97
081111 073402 23348 INFO dfs.DataNode$PacketResponder: PacketResponder 0 for block blk_-8451767167949278093 terminating
081111 073402 23348 INFO dfs.DataNode$PacketResponder: Received block blk_-8451767167949278093 of size 67108864 from /10.251.126.255
081111 073402 23359 INFO dfs.DataNode$DataXceiver: Receiving block blk_7600803295301917041 src: /10.251.127.243:33281 dest: /10.251.127.243:50010
081111 073402 23363 INFO dfs.DataNode$DataXceiver: Receiving block blk_1739705686404642355 src: /10.251.91.15:48372 dest: /10.251.91.15:50010
081111 073402 23379 INFO dfs.DataNode$DataXceiver: Receiving block blk_-8554500934384878964 src: /10.251.105.189:57312 dest: /10.251.105.189:50010
081111 073402 23397 INFO dfs.DataNode$PacketResponder: PacketResponder 2 for block blk_-6582946343515350467 terminating
081111 073402 23397 INFO dfs.DataNode$PacketResponder: Received block blk_-6582946343515350467 of size 67108864 from /10.250.7.96
081111 073402 23398 INFO dfs.DataNode$PacketResponder: PacketResponder 2 for block blk_4545431903091552181 terminating
081111 073402 23398 INFO dfs.DataNode$PacketResponder: Received block blk_4545431903091552181 of size 67108864 from /10.251.215.16
081111 073402 23399 INFO dfs.DataNode$PacketResponder: PacketResponder 1 for block blk_115181276002980764 terminating
081111 073402 23399 INFO dfs.DataNode$PacketResponder: Received block blk_115181276002980764 of size 67108864 from /10.251.91.15
081111 073402 23403 INFO dfs.DataNode$PacketResponder: PacketResponder 0 for block blk_-773151868318070077 terminating
081111 073402 23403 INFO dfs.DataNode$PacketResponder: Received block blk_-773151868318070077 of size 67108864 from /10.251.43.210
081111 073402 23406 INFO dfs.DataNode$PacketResponder: PacketResponder 2 for block blk_4218325015176810978 terminating
081111 073402 23406 INFO dfs.DataNode$PacketResponder: Received block blk_4218325015176810978 of size 67108864 from /10.251.199.225
081111 073402 23408 INFO dfs.DataNode$PacketResponder: PacketResponder 1 for block blk_-8058032814958554319 terminating
081111 073402 23408 INFO dfs.DataNode$PacketResponder: Received block blk_-8058032814958554319 of size 67108864 from /10.251.215.192
081111 073402 23409 INFO dfs.DataNode$PacketResponder: PacketResponder 1 for block blk_4264525230374887188 terminating
081111 073402 23409 INFO dfs.DataNode$PacketResponder: Received block blk_4264525230374887188 of size 67108864 from /10.251.67.113
081111 073402 23412 INFO dfs.DataNode$DataXceiver: Receiving block blk_7475680242139601697 src: /10.250.7.96:37683 dest: /10.250.7.96:50010
081111 073402 23413 INFO dfs.DataNode$DataXceiver: Receiving block blk_-4089807722951838974 src: /10.251.215.16:60078 dest: /10.251.215.16:50010
081111 073402 23416 INFO dfs.DataNode$PacketResponder: PacketResponder 2 for block blk_-5470725799401346236 terminating
081111 073402 23416 INFO dfs.DataNode$PacketResponder: Received block blk_-5470725799401346236 of size 67108864 from /10.251.70.211
081111 073402 23417 INFO dfs.DataNode$DataXceiver: Receiving block blk_-1272939520048602397 src: /10.251.199.225:60859 dest: /10.251.199.225:50010
081111 073402 23419 INFO dfs.DataNode$PacketResponder: PacketResponder 2 for block blk_-8451767167949278093 terminating
081111 073402 23419 INFO dfs.DataNode$PacketResponder: Received block blk_-8451767167949278093 of size 67108864 from /10.251.66.102
081111 073402 23429 INFO dfs.DataNode$DataXceiver: Receiving block blk_3397447498466667322 src: /10.251.70.211:37417 dest: /10.251.70.211:50010
081111 073402 23429 INFO dfs.DataNode$PacketResponder: PacketResponder 1 for block blk_-773151868318070077 terminating
081111 073402 23429 INFO dfs.DataNode$PacketResponder: Received block blk_-773151868318070077 of size 67108864 from /10.251.91.84
081111 073402 23438 INFO dfs.DataNode$DataXceiver: Receiving block blk_-8554500934384878964 src: /10.251.31.160:54914 dest: /10.251.31.160:50010
081111 073402 23439 INFO dfs.DataNode$DataXceiver: Receiving block blk_-91002884287410228 src: /10.251.66.102:50718 dest: /10.251.66.102:50010
081111 073402 23443 INFO dfs.DataNode$PacketResponder: PacketResponder 0 for block blk_8246084630741251037 terminating
081111 073402 23443 INFO dfs.DataNode$PacketResponder: Received block blk_8246084630741251037 of size 67108864 from /10.250.10.6
081111 073402 23444 INFO dfs.DataNode$PacketResponder: PacketResponder 2 for block blk_6486828925203493700 terminating
081111 073402 23444 INFO dfs.DataNode$PacketResponder: Received block blk_6486828925203493700 of size 67108864 from /10.251.38.53
081111 073402 23445 INFO dfs.DataNode$PacketResponder: PacketResponder 1 for block blk_-5470725799401346236 terminating
081111 073402 23445 INFO dfs.DataNode$PacketResponder: Received block blk_-5470725799401346236 of size 67108864 from /10.251.70.211
081111 073402 23447 INFO dfs.DataNode$PacketResponder: PacketResponder 0 for block blk_5160653032900292591 terminating
081111 073402 23447 INFO dfs.DataNode$PacketResponder: Received block blk_5160653032900292591 of size 67108864 from /10.250.13.188
081111 073402 23450 INFO dfs.DataNode$PacketResponder: PacketResponder 1 for block blk_8581866969443786674 terminating
081111 073402 23450 INFO dfs.DataNode$PacketResponder: Received block blk_8581866969443786674 of size 67108864 from /10.251.203.166
081111 073402 23452 INFO dfs.DataNode$PacketResponder: PacketResponder 0 for block blk_7732999373556965470 terminating
081111 073402 23452 INFO dfs.DataNode$PacketResponder: Received block blk_7732999373556965470 of size 67108864 from /10.251.193.175
081111 073402 23455 INFO dfs.DataNode$DataXceiver: Receiving block blk_-3119373556226774440 src: /10.250.7.96:51245 dest: /10.250.7.96:50010
081111 073402 23455 INFO dfs.DataNode$PacketResponder: PacketResponder 0 for block blk_-6582946343515350467 terminating
081111 073402 23455 INFO dfs.DataNode$PacketResponder: Received block blk_-6582946343515350467 of size 67108864 from /10.251.199.19
081111 073402 23457 INFO dfs.DataNode$PacketResponder: PacketResponder 1 for block blk_-6257212098225907287 terminating
081111 073402 23457 INFO dfs.DataNode$PacketResponder: Received block blk_-6257212098225907287 of size 67108864 from /10.251.106.50
081111 073402 23458 INFO dfs.DataNode$DataXceiver: Receiving block blk_-5673931656076702607 src: /10.251.38.53:44733 dest: /10.251.38.53:50010
081111 073402 23463 INFO dfs.DataNode$PacketResponder: PacketResponder 2 for block blk_115181276002980764 terminating
081111 073402 23463 INFO dfs.DataNode$PacketResponder: Received block blk_115181276002980764 of size 67108864 from /10.251.91.15
081111 073402 23471 INFO dfs.DataNode$DataXceiver: Receiving block blk_3642754554880845736 src: /10.251.107.242:40994 dest: /10.251.107.242:50010
081111 073402 23474 INFO dfs.DataNode$DataXceiver: Receiving block blk_1739705686404642355 src: /10.250.10.223:48595 dest: /10.250.10.223:50010
081111 073402 23476 INFO dfs.DataNode$DataXceiver: Receiving block blk_3833346110663122544 src: /10.251.91.15:38526 dest: /10.251.91.15:50010
081111 073402 23487 INFO dfs.DataNode$PacketResponder: PacketResponder 2 for block blk_-773151868318070077 terminating
081111 073402 23487 INFO dfs.DataNode$PacketResponder: Received block blk_-773151868318070077 of size 67108864 from /10.251.91.84
081111 073402 23492 INFO dfs.DataNode$PacketResponder: PacketResponder 0 for block blk_4560695115504354397 terminating
081111 073402 23492 INFO dfs.DataNode$PacketResponder: Received block blk_4560695115504354397 of size 67108864 from /10.251.126.255
081111 073402 23494 INFO dfs.DataNode$DataXceiver: Receiving block blk_2204470345194149424 src: /10.251.91.84:53863 dest: /10.251.91.84:50010
081111 073402 23494 INFO dfs.DataNode$PacketResponder: PacketResponder 0 for block blk_-5470725799401346236 terminating
081111 073402 23494 INFO dfs.DataNode$PacketResponder: Received block blk_-5470725799401346236 of size 67108864 from /10.251.38.53
081111 073402 23502 INFO dfs.DataNode$PacketResponder: PacketResponder 0 for block blk_4545431903091552181 terminating
081111 073402 23502 INFO dfs.DataNode$PacketResponder: Received block blk_4545431903091552181 of size 67108864 from /10.250.7.244
081111 073402 23576 INFO dfs.DataNode$PacketResponder: PacketResponder 0 for block blk_6894179468203030428 terminating
081111 073402 23576 INFO dfs.DataNode$PacketResponder: Received block blk_6894179468203030428 of size 3546579 from /10.251.67.225
081111 073402 23585 INFO dfs.DataNode$DataXceiver: Receiving block blk_-1376675375951354483 src: /10.250.14.196:43965 dest: /10.250.14.196:50010
081111 073402 23601 INFO dfs.DataNode$PacketResponder: PacketResponder 2 for block blk_6894179468203030428 terminating
081111 073402 23601 INFO dfs.DataNode$PacketResponder: Received block blk_6894179468203030428 of size 3546579 from /10.251.90.81
081111 073402 23605 INFO dfs.DataNode$PacketResponder: PacketResponder 1 for block blk_6894179468203030428 terminating
081111 073402 23605 INFO dfs.DataNode$PacketResponder: Received block blk_6894179468203030428 of size 3546579 from /10.251.90.81
081111 073402 23607 INFO dfs.DataNode$PacketResponder: PacketResponder 0 for block blk_4264525230374887188 terminating
081111 073402 23607 INFO dfs.DataNode$PacketResponder: Received block blk_4264525230374887188 of size 67108864 from /10.251.214.67
081111 073402 23684 INFO dfs.DataNode$PacketResponder: PacketResponder 1 for block blk_-7470409106752087667 terminating
081111 073402 23684 INFO dfs.DataNode$PacketResponder: Received block blk_-7470409106752087667 of size 67108864 from /10.251.126.5
081111 073402 23700 INFO dfs.DataNode$DataXceiver: Receiving block blk_-4089807722951838974 src: /10.251.215.16:43483 dest: /10.251.215.16:50010
081111 073402 23708 INFO dfs.DataNode$PacketResponder: PacketResponder 2 for block blk_8246084630741251037 terminating
081111 073402 23708 INFO dfs.DataNode$PacketResponder: Received block blk_8246084630741251037 of size 67108864 from /10.251.27.63
081111 073402 23724 INFO dfs.DataNode$DataXceiver: Receiving block blk_-5485766685956895324 src: /10.251.193.224:34506 dest: /10.251.193.224:50010
081111 073402 23733 INFO dfs.DataNode$DataXceiver: Receiving block blk_-3234952032955998356 src: /10.251.27.63:60486 dest: /10.251.27.63:50010
081111 073402 26 INFO dfs.FSNamesystem: BLOCK* NameSystem.addStoredBlock: blockMap updated: 10.251.107.242:50010 is added to blk_-691626508076105605 size 67108864
081111 073402 26 INFO dfs.FSNamesystem: BLOCK* NameSystem.addStoredBlock: blockMap updated: 10.251.38.197:50010 is added to blk_-6257212098225907287 size 67108864
081111 073402 26 INFO dfs.FSNamesystem: BLOCK* NameSystem.addStoredBlock: blockMap updated: 10.251.38.197:50010 is added to blk_8246084630741251037 size 67108864
081111 073402 26 INFO dfs.FSNamesystem: BLOCK* NameSystem.addStoredBlock: blockMap updated: 10.251.66.102:50010 is added to blk_-8451767167949278093 size 67108864
081111 073402 26 INFO dfs.FSNamesystem: BLOCK* NameSystem.allocateBlock: /user/root/rand6/_temporary/_task_200811101024_0013_m_001465_0/part-01465. blk_-4089807722951838974
081111 073402 26 INFO dfs.FSNamesystem: BLOCK* NameSystem.allocateBlock: /user/root/rand6/_temporary/_task_200811101024_0013_m_001546_0/part-01546. blk_-91002884287410228
081111 073402 27 INFO dfs.FSNamesystem: BLOCK* NameSystem.addStoredBlock: blockMap updated: 10.250.10.6:50010 is added to blk_8246084630741251037 size 67108864
081111 073402 27 INFO dfs.FSNamesystem: BLOCK* NameSystem.addStoredBlock: blockMap updated: 10.251.194.147:50010 is added to blk_-7470409106752087667 size 67108864
081111 073402 27 INFO dfs.FSNamesystem: BLOCK* NameSystem.addStoredBlock: blockMap updated: 10.251.215.16:50010 is added to blk_4545431903091552181 size 67108864
081111 073402 27 INFO dfs.FSNamesystem: BLOCK* NameSystem.addStoredBlock: blockMap updated: 10.251.38.197:50010 is added to blk_-6582946343515350467 size 67108864
081111 073402 27 INFO dfs.FSNamesystem: BLOCK* NameSystem.addStoredBlock: blockMap updated: 10.251.38.197:50010 is added to blk_7732999373556965470 size 67108864
081111 073402 27 INFO dfs.FSNamesystem: BLOCK* NameSystem.addStoredBlock: blockMap updated: 10.251.38.53:50010 is added to blk_5160653032900292591 size 67108864
081111 073402 27 INFO dfs.FSNamesystem: BLOCK* NameSystem.addStoredBlock: blockMap updated: 10.251.38.53:50010 is added to blk_6486828925203493700 size 67108864
081111 073402 27 INFO dfs.FSNamesystem: BLOCK* NameSystem.addStoredBlock: blockMap updated: 10.251.43.210:50010 is added to blk_-773151868318070077 size 67108864
081111 073402 27 INFO dfs.FSNamesystem: BLOCK* NameSystem.addStoredBlock: blockMap updated: 10.251.70.211:50010 is added to blk_-5470725799401346236 size 67108864
081111 073402 27 INFO dfs.FSNamesystem: BLOCK* NameSystem.addStoredBlock: blockMap updated: 10.251.71.97:50010 is added to blk_-691718415551996161 size 67108864
081111 073402 27 INFO dfs.FSNamesystem: BLOCK* NameSystem.addStoredBlock: blockMap updated: 10.251.91.84:50010 is added to blk_-773151868318070077 size 67108864
081111 073402 28 INFO dfs.FSNamesystem: BLOCK* NameSystem.addStoredBlock: blockMap updated: 10.250.15.67:50010 is added to blk_1847527010180727021 size 67108864
081111 073402 28 INFO dfs.FSNamesystem: BLOCK* NameSystem.addStoredBlock: blockMap updated: 10.250.7.146:50010 is added to blk_828333545041345425 size 67108864
081111 073402 28 INFO dfs.FSNamesystem: BLOCK* NameSystem.addStoredBlock: blockMap updated: 10.250.7.244:50010 is added to blk_4545431903091552181 size 67108864
081111 073402 28 INFO dfs.FSNamesystem: BLOCK* NameSystem.addStoredBlock: blockMap updated: 10.250.7.96:50010 is added to blk_115181276002980764 size 67108864
081111 073402 28 INFO dfs.FSNamesystem: BLOCK* NameSystem.addStoredBlock: blockMap updated: 10.251.65.237:50010 is added to blk_-773151868318070077 size 67108864
081111 073402 28 INFO dfs.FSNamesystem: BLOCK* NameSystem.addStoredBlock: blockMap updated: 10.251.71.240:50010 is added to blk_6894179468203030428 size 3546579
081111 073402 28 INFO dfs.FSNamesystem: BLOCK* NameSystem.addStoredBlock: blockMap updated: 10.251.90.81:50010 is added to blk_6894179468203030428 size 3546579
081111 073402 28 INFO dfs.FSNamesystem: BLOCK* NameSystem.allocateBlock: /user/root/rand6/_temporary/_task_200811101024_0013_m_001326_0/part-01326. blk_2204470345194149424
081111 073402 28 INFO dfs.FSNamesystem: BLOCK* NameSystem.allocateBlock: /user/root/rand6/_temporary/_task_200811101024_0013_m_001364_0/part-01364. blk_1138534254517147495
081111 073402 29 INFO dfs.FSNamesystem: BLOCK* NameSystem.addStoredBlock: blockMap updated: 10.251.126.255:50010 is added to blk_-8451767167949278093 size 67108864
081111 073402 29 INFO dfs.FSNamesystem: BLOCK* NameSystem.addStoredBlock: blockMap updated: 10.251.43.192:50010 is added to blk_-7470409106752087667 size 67108864
081111 073402 29 INFO dfs.FSNamesystem: BLOCK* NameSystem.addStoredBlock: blockMap updated: 10.251.91.15:50010 is added to blk_115181276002980764 size 67108864
081111 073402 29 INFO dfs.FSNamesystem: BLOCK* NameSystem.allocateBlock: /user/root/rand6/_temporary/_task_200811101024_0013_m_001269_0/part-01269. blk_6684161724769202228
081111 073402 29 INFO dfs.FSNamesystem: BLOCK* NameSystem.allocateBlock: /user/root/rand6/_temporary/_task_200811101024_0013_m_001309_0/part-01309. blk_3833346110663122544
081111 073402 29 INFO dfs.FSNamesystem: BLOCK* NameSystem.allocateBlock: /user/root/rand6/_temporary/_task_200811101024_0013_m_001494_0/part-01494. blk_-5673931656076702607
081111 073402 30 INFO dfs.FSNamesystem: BLOCK* NameSystem.addStoredBlock: blockMap updated: 10.251.203.166:50010 is added to blk_8581866969443786674 size 67108864
081111 073402 30 INFO dfs.FSNamesystem: BLOCK* NameSystem.allocateBlock: /user/root/rand6/_temporary/_task_200811101024_0013_m_001211_0/part-01211. blk_1739705686404642355
081111 073402 30 INFO dfs.FSNamesystem: BLOCK* NameSystem.allocateBlock: /user/root/rand6/_temporary/_task_200811101024_0013_m_001355_0/part-01355. blk_7827565989993298175
081111 073402 30 INFO dfs.FSNamesystem: BLOCK* NameSystem.allocateBlock: /user/root/rand6/_temporary/_task_200811101024_0013_m_001572_0/part-01572. blk_-5485766685956895324
081111 073402 31 INFO dfs.FSNamesystem: BLOCK* NameSystem.addStoredBlock: blockMap updated: 10.250.14.196:50010 is added to blk_8325752418615195520 size 67108864
081111 073402 31 INFO dfs.FSNamesystem: BLOCK* NameSystem.addStoredBlock: blockMap updated: 10.250.15.240:50010 is added to blk_-691718415551996161 size 67108864
081111 073402 31 INFO dfs.FSNamesystem: BLOCK* NameSystem.addStoredBlock: blockMap updated: 10.250.7.96:50010 is added to blk_-6582946343515350467 size 67108864
081111 073402 31 INFO dfs.FSNamesystem: BLOCK* NameSystem.addStoredBlock: blockMap updated: 10.251.194.147:50010 is added to blk_4218325015176810978 size 67108864
081111 073402 31 INFO dfs.FSNamesystem: BLOCK* NameSystem.addStoredBlock: blockMap updated: 10.251.199.225:50010 is added to blk_4218325015176810978 size 67108864
081111 073402 31 INFO dfs.FSNamesystem: BLOCK* NameSystem.addStoredBlock: blockMap updated: 10.251.199.86:50010 is added to blk_4264525230374887188 size 67108864
081111 073402 31 INFO dfs.FSNamesystem: BLOCK* NameSystem.addStoredBlock: blockMap updated: 10.251.203.129:50010 is added to blk_5215417512172127338 size 67108864
081111 073402 31 INFO dfs.FSNamesystem: BLOCK* NameSystem.addStoredBlock: blockMap updated: 10.251.67.113:50010 is added to blk_4264525230374887188 size 67108864
081111 073402 31 INFO dfs.FSNamesystem: BLOCK* NameSystem.allocateBlock: /user/root/rand6/_temporary/_task_200811101024_0013_m_001220_0/part-01220. blk_-3234952032955998356
081111 073402 31 INFO dfs.FSNamesystem: BLOCK* NameSystem.allocateBlock: /user/root/rand6/_temporary/_task_200811101024_0013_m_001517_0/part-01517. blk_-4279160384825475809
081111 073402 32 INFO dfs.FSNamesystem: BLOCK* NameSystem.addStoredBlock: blockMap updated: 10.250.10.223:50010 is added to blk_-2842509209642355438 size 67108864
081111 073402 32 INFO dfs.FSNamesystem: BLOCK* NameSystem.addStoredBlock: blockMap updated: 10.251.106.50:50010 is added to blk_-6257212098225907287 size 67108864
081111 073402 32 INFO dfs.FSNamesystem: BLOCK* NameSystem.addStoredBlock: blockMap updated: 10.251.214.67:50010 is added to blk_4264525230374887188 size 67108864
081111 073402 32 INFO dfs.FSNamesystem: BLOCK* NameSystem.addStoredBlock: blockMap updated: 10.251.27.63:50010 is added to blk_8246084630741251037 size 67108864
081111 073402 32 INFO dfs.FSNamesystem: BLOCK* NameSystem.addStoredBlock: blockMap updated: 10.251.67.225:50010 is added to blk_6894179468203030428 size 3546579
081111 073402 32 INFO dfs.FSNamesystem: BLOCK* NameSystem.addStoredBlock: blockMap updated: 10.251.90.239:50010 is added to blk_1847527010180727021 size 67108864
081111 073402 32 INFO dfs.FSNamesystem: BLOCK* NameSystem.allocateBlock: /user/root/rand6/_temporary/_task_200811101024_0013_m_001276_0/part-01276. blk_-1272939520048602397
081111 073402 32 INFO dfs.FSNamesystem: BLOCK* NameSystem.allocateBlock: /user/root/rand6/_temporary/_task_200811101024_0013_m_001489_0/part-01489. blk_5112811271915129959
081111 073402 33 INFO dfs.FSNamesystem: BLOCK* NameSystem.addStoredBlock: blockMap updated: 10.250.13.188:50010 is added to blk_5160653032900292591 size 67108864
081111 073402 33 INFO dfs.FSNamesystem: BLOCK* NameSystem.addStoredBlock: blockMap updated: 10.251.127.243:50010 is added to blk_5160653032900292591 size 67108864
081111 073402 33 INFO dfs.FSNamesystem: BLOCK* NameSystem.addStoredBlock: blockMap updated: 10.251.38.53:50010 is added to blk_-5470725799401346236 size 67108864
081111 073402 33 INFO dfs.FSNamesystem: BLOCK* NameSystem.addStoredBlock: blockMap updated: 10.251.38.53:50010 is added to blk_8581866969443786674 size 67108864
081111 073402 34 INFO dfs.FSNamesystem: BLOCK* NameSystem.addStoredBlock: blockMap updated: 10.251.107.50:50010 is added to blk_-691626508076105605 size 67108864
081111 073402 34 INFO dfs.FSNamesystem: BLOCK* NameSystem.addStoredBlock: blockMap updated: 10.251.199.19:50010 is added to blk_-6582946343515350467 size 67108864
081111 073402 34 INFO dfs.FSNamesystem: BLOCK* NameSystem.addStoredBlock: blockMap updated: 10.251.214.32:50010 is added to blk_4218325015176810978 size 67108864
081111 073402 34 INFO dfs.FSNamesystem: BLOCK* NameSystem.addStoredBlock: blockMap updated: 10.251.31.5:50010 is added to blk_4560695115504354397 size 67108864
081111 073402 34 INFO dfs.FSNamesystem: BLOCK* NameSystem.allocateBlock: /user/root/rand6/_temporary/_task_200811101024_0013_m_001202_0/part-01202. blk_3397447498466667322
081111 073402 34 INFO dfs.FSNamesystem: BLOCK* NameSystem.allocateBlock: /user/root/rand6/_temporary/_task_200811101024_0013_m_001217_0/part-01217. blk_7600803295301917041
081111 073402 34 INFO dfs.FSNamesystem: BLOCK* NameSystem.allocateBlock: /user/root/rand6/_temporary/_task_200811101024_0013_m_001375_0/part-01375. blk_7475680242139601697
081111 073402 35 INFO dfs.FSNamesystem: BLOCK* NameSystem.addStoredBlock: blockMap updated: 10.250.10.176:50010 is added to blk_-8451767167949278093 size 67108864
081111 073402 35 INFO dfs.FSNamesystem: BLOCK* NameSystem.addStoredBlock: blockMap updated: 10.251.122.79:50010 is added to blk_-5470725799401346236 size 67108864
081111 073402 35 INFO dfs.FSNamesystem: BLOCK* NameSystem.addStoredBlock: blockMap updated: 10.251.194.213:50010 is added to blk_-691626508076105605 size 67108864
081111 073402 35 INFO dfs.FSNamesystem: BLOCK* NameSystem.addStoredBlock: blockMap updated: 10.251.202.134:50010 is added to blk_1847527010180727021 size 67108864
081111 073402 35 INFO dfs.FSNamesystem: BLOCK* NameSystem.addStoredBlock: blockMap updated: 10.251.215.50:50010 is added to blk_4545431903091552181 size 67108864
081111 073402 35 INFO dfs.FSNamesystem: BLOCK* NameSystem.allocateBlock: /user/root/rand6/_temporary/_task_200811101024_0013_m_001331_0/part-01331. blk_3642754554880845736
081111 073403 18169 INFO dfs.DataNode$DataXceiver: Receiving block blk_1913404323370443729 src: /10.250.10.223:60551 dest: /10.250.10.223:50010
081111 073403 20825 INFO dfs.DataNode$PacketResponder: PacketResponder 1 for block blk_1422407274472886915 terminating
081111 073403 20825 INFO dfs.DataNode$PacketResponder: Received block blk_1422407274472886915 of size 67108864 from /10.251.39.192
081111 073403 22123 INFO dfs.DataNode$DataXceiver: Receiving block blk_-6409222241984449625 src: /10.250.15.67:56181 dest: /10.250.15.67:50010
081111 073403 22832 INFO dfs.DataNode$PacketResponder: PacketResponder 0 for block blk_-2356092732421197051 terminating
081111 073403 22832 INFO dfs.DataNode$PacketResponder: Received block blk_-2356092732421197051 of size 67108864 from /10.250.19.227
081111 073403 22856 INFO dfs.DataNode$DataXceiver: Receiving block blk_-4755476295177469263 src: /10.251.127.191:40754 dest: /10.251.127.191:50010
081111 073403 22872 INFO dfs.DataNode$PacketResponder: PacketResponder 1 for block blk_4560695115504354397 terminating
081111 073403 22872 INFO dfs.DataNode$PacketResponder: Received block blk_4560695115504354397 of size 67108864 from /10.251.70.5
081111 073403 22875 INFO dfs.DataNode$DataXceiver: Receiving block blk_7600803295301917041 src: /10.250.15.240:53822 dest: /10.250.15.240:50010
081111 073403 22902 INFO dfs.DataNode$PacketResponder: PacketResponder 0 for block blk_7660888757863714243 terminating
081111 073403 22902 INFO dfs.DataNode$PacketResponder: Received block blk_7660888757863714243 of size 67108864 from /10.251.74.79
081111 073403 22915 INFO dfs.DataNode$DataXceiver: Receiving block blk_2721827506461556890 src: /10.250.6.223:47271 dest: /10.250.6.223:50010
081111 073403 22998 INFO dfs.DataNode$PacketResponder: PacketResponder 0 for block blk_7337148117609510990 terminating
081111 073403 22998 INFO dfs.DataNode$PacketResponder: Received block blk_7337148117609510990 of size 67108864 from /10.251.42.246
081111 073403 23035 INFO dfs.DataNode$DataXceiver: Receiving block blk_-6409222241984449625 src: /10.250.15.67:49606 dest: /10.250.15.67:50010
081111 073403 23064 INFO dfs.DataNode$DataXceiver: Receiving block blk_3397447498466667322 src: /10.251.122.38:47555 dest: /10.251.122.38:50010
081111 073403 23141 INFO dfs.DataNode$PacketResponder: PacketResponder 2 for block blk_-3438432978711440988 terminating
081111 073403 23141 INFO dfs.DataNode$PacketResponder: Received block blk_-3438432978711440988 of size 67108864 from /10.250.9.207
081111 073403 23150 INFO dfs.DataNode$PacketResponder: PacketResponder 2 for block blk_1422407274472886915 terminating
081111 073403 23150 INFO dfs.DataNode$PacketResponder: Received block blk_1422407274472886915 of size 67108864 from /10.251.39.192
081111 073403 23157 INFO dfs.DataNode$DataXceiver: Receiving block blk_152354972116847102 src: /10.251.214.18:42323 dest: /10.251.214.18:50010
081111 073403 23184 INFO dfs.DataNode$PacketResponder: PacketResponder 0 for block blk_-4301178988618507084 terminating
081111 073403 23184 INFO dfs.DataNode$PacketResponder: Received block blk_-4301178988618507084 of size 67108864 from /10.250.11.100
081111 073403 23190 INFO dfs.DataNode$DataXceiver: Receiving block blk_-7745387067588847250 src: /10.251.214.18:55490 dest: /10.251.214.18:50010
081111 073403 23192 INFO dfs.DataNode$DataXceiver: Receiving block blk_7827565989993298175 src: /10.251.67.113:58687 dest: /10.251.67.113:50010
081111 073403 23193 INFO dfs.DataNode$DataXceiver: Receiving block blk_1138534254517147495 src: /10.250.10.213:35527 dest: /10.250.10.213:50010
081111 073403 23194 INFO dfs.DataNode$DataXceiver: Receiving block blk_-3452684216911660317 src: /10.251.39.192:51015 dest: /10.251.39.192:50010
081111 073403 23217 INFO dfs.DataNode$DataXceiver: Receiving block blk_-6237614581619225096 src: /10.251.194.147:47344 dest: /10.251.194.147:50010
081111 073403 23223 INFO dfs.DataNode$PacketResponder: PacketResponder 1 for block blk_1555235217328181988 terminating
081111 073403 23223 INFO dfs.DataNode$PacketResponder: Received block blk_1555235217328181988 of size 67108864 from /10.251.194.147
081111 073403 23226 INFO dfs.DataNode$PacketResponder: PacketResponder 2 for block blk_-85872290979354091 terminating
081111 073403 23226 INFO dfs.DataNode$PacketResponder: Received block blk_-85872290979354091 of size 67108864 from /10.251.74.192
081111 073403 23231 INFO dfs.DataNode$DataXceiver: Receiving block blk_7306254392764813149 src: /10.251.74.192:55233 dest: /10.251.74.192:50010
081111 073403 23270 INFO dfs.DataNode$PacketResponder: PacketResponder 1 for block blk_7660888757863714243 terminating
081111 073403 23270 INFO dfs.DataNode$PacketResponder: Received block blk_7660888757863714243 of size 67108864 from /10.251.126.83
081111 073403 23274 INFO dfs.DataNode$PacketResponder: PacketResponder 2 for block blk_4560695115504354397 terminating
081111 073403 23274 INFO dfs.DataNode$PacketResponder: Received block blk_4560695115504354397 of size 67108864 from /10.251.70.5
081111 073403 23280 INFO dfs.DataNode$DataXceiver: Receiving block blk_5162751594187995010 src: /10.251.70.5:37813 dest: /10.251.70.5:50010
081111 073403 23283 INFO dfs.DataNode$DataXceiver: Receiving block blk_5162751594187995010 src: /10.251.70.5:51554 dest: /10.251.70.5:50010
081111 073403 23306 INFO dfs.DataNode$PacketResponder: PacketResponder 2 for block blk_1555235217328181988 terminating
081111 073403 23306 INFO dfs.DataNode$PacketResponder: Received block blk_1555235217328181988 of size 67108864 from /10.251.194.147
081111 073403 23307 INFO dfs.DataNode$DataXceiver: Receiving block blk_2721827506461556890 src: /10.251.203.246:43046 dest: /10.251.203.246:50010
081111 073403 23313 INFO dfs.DataNode$DataXceiver: Receiving block blk_8353849186728663285 src: /10.251.127.191:38057 dest: /10.251.127.191:50010
081111 073403 23315 INFO dfs.DataNode$DataXceiver: Receiving block blk_-6237614581619225096 src: /10.251.194.147:57740 dest: /10.251.194.147:50010
081111 073403 23316 INFO dfs.DataNode$DataXceiver: Receiving block blk_3397447498466667322 src: /10.251.70.211:57728 dest: /10.251.70.211:50010
081111 073403 23318 INFO dfs.DataNode$PacketResponder: PacketResponder 2 for block blk_-121367379554300530 terminating
081111 073403 23318 INFO dfs.DataNode$PacketResponder: Received block blk_-121367379554300530 of size 67108864 from /10.250.7.244
081111 073403 23323 INFO dfs.DataNode$PacketResponder: PacketResponder 2 for block blk_-4775914925348642713 terminating
081111 073403 23323 INFO dfs.DataNode$PacketResponder: Received block blk_-4775914925348642713 of size 67108864 from /10.250.10.223
081111 073403 23328 INFO dfs.DataNode$DataXceiver: Receiving block blk_1913404323370443729 src: /10.250.10.223:42845 dest: /10.250.10.223:50010
081111 073403 23330 INFO dfs.DataNode$PacketResponder: PacketResponder 0 for block blk_-7356044793618859038 terminating
081111 073403 23330 INFO dfs.DataNode$PacketResponder: PacketResponder 1 for block blk_-85872290979354091 terminating
081111 073403 23330 INFO dfs.DataNode$PacketResponder: Received block blk_-7356044793618859038 of size 67108864 from /10.251.123.99
081111 073403 23330 INFO dfs.DataNode$PacketResponder: Received block blk_-85872290979354091 of size 67108864 from /10.251.74.192
081111 073403 23342 INFO dfs.DataNode$DataXceiver: Receiving block blk_923876998675294199 src: /10.250.7.244:59652 dest: /10.250.7.244:50010
081111 073403 23343 INFO dfs.DataNode$DataXceiver: Receiving block blk_5162751594187995010 src: /10.251.74.79:57176 dest: /10.251.74.79:50010
081111 073403 23349 INFO dfs.DataNode$PacketResponder: PacketResponder 2 for block blk_-2356092732421197051 terminating
081111 073403 23349 INFO dfs.DataNode$PacketResponder: Received block blk_-2356092732421197051 of size 67108864 from /10.250.10.213
081111 073403 23356 INFO dfs.DataNode$DataXceiver: Receiving block blk_1138534254517147495 src: /10.251.106.50:50139 dest: /10.251.106.50:50010
081111 073403 23357 INFO dfs.DataNode$DataXceiver: Receiving block blk_2223070829847083828 src: /10.250.10.213:54619 dest: /10.250.10.213:50010
081111 073403 23367 INFO dfs.DataNode$DataXceiver: Receiving block blk_-6409222241984449625 src: /10.251.106.10:50518 dest: /10.251.106.10:50010
081111 073403 23375 INFO dfs.DataNode$PacketResponder: PacketResponder 1 for block blk_7337148117609510990 terminating
081111 073403 23375 INFO dfs.DataNode$PacketResponder: Received block blk_7337148117609510990 of size 67108864 from /10.250.5.237
081111 073403 23387 INFO dfs.DataNode$DataXceiver: Receiving block blk_2223070829847083828 src: /10.251.74.134:39684 dest: /10.251.74.134:50010
081111 073403 23394 INFO dfs.DataNode$DataXceiver: Receiving block blk_4632056507169178395 src: /10.251.127.47:59468 dest: /10.251.127.47:50010
081111 073403 23394 INFO dfs.DataNode$PacketResponder: PacketResponder 2 for block blk_-8058032814958554319 terminating
081111 073403 23394 INFO dfs.DataNode$PacketResponder: Received block blk_-8058032814958554319 of size 67108864 from /10.251.215.192
081111 073403 23396 INFO dfs.DataNode$PacketResponder: PacketResponder 2 for block blk_1062432411647010180 terminating
081111 073403 23396 INFO dfs.DataNode$PacketResponder: Received block blk_1062432411647010180 of size 67108864 from /10.251.37.240
081111 073403 23397 INFO dfs.DataNode$PacketResponder: PacketResponder 2 for block blk_-7470409106752087667 terminating
081111 073403 23397 INFO dfs.DataNode$PacketResponder: Received block blk_-7470409106752087667 of size 67108864 from /10.251.126.5
081111 073403 23399 INFO dfs.DataNode$PacketResponder: PacketResponder 1 for block blk_1062432411647010180 terminating
081111 073403 23399 INFO dfs.DataNode$PacketResponder: Received block blk_1062432411647010180 of size 67108864 from /10.251.37.240
081111 073403 23402 INFO dfs.DataNode$PacketResponder: PacketResponder 0 for block blk_-8058032814958554319 terminating
081111 073403 23402 INFO dfs.DataNode$PacketResponder: Received block blk_-8058032814958554319 of size 67108864 from /10.251.215.16
081111 073403 23404 INFO dfs.DataNode$DataXceiver: Receiving block blk_4632056507169178395 src: /10.251.126.5:36938 dest: /10.251.126.5:50010
081111 073403 23404 INFO dfs.DataNode$PacketResponder: PacketResponder 0 for block blk_-4775914925348642713 terminating
081111 073403 23404 INFO dfs.DataNode$PacketResponder: Received block blk_-4775914925348642713 of size 67108864 from /10.250.5.237
081111 073403 23405 INFO dfs.DataNode$DataXceiver: Receiving block blk_-7745387067588847250 src: /10.251.215.192:38815 dest: /10.251.215.192:50010
081111 073403 23409 INFO dfs.DataNode$DataXceiver: Receiving block blk_-3452684216911660317 src: /10.251.39.192:43315 dest: /10.251.39.192:50010
081111 073403 23413 INFO dfs.DataNode$DataXceiver: Receiving block blk_-3234952032955998356 src: /10.251.27.63:59241 dest: /10.251.27.63:50010
081111 073403 23415 INFO dfs.DataNode$PacketResponder: PacketResponder 0 for block blk_1422407274472886915 terminating
081111 073403 23415 INFO dfs.DataNode$PacketResponder: Received block blk_1422407274472886915 of size 67108864 from /10.251.107.50
081111 073403 23420 INFO dfs.DataNode$PacketResponder: PacketResponder 1 for block blk_-4301178988618507084 terminating
081111 073403 23420 INFO dfs.DataNode$PacketResponder: Received block blk_-4301178988618507084 of size 67108864 from /10.251.67.225
081111 073403 23436 INFO dfs.DataNode$PacketResponder: PacketResponder 1 for block blk_-2356092732421197051 terminating
081111 073403 23436 INFO dfs.DataNode$PacketResponder: Received block blk_-2356092732421197051 of size 67108864 from /10.250.10.213
081111 073403 23441 INFO dfs.DataNode$DataXceiver: Receiving block blk_-7130451065715207928 src: /10.250.19.16:51831 dest: /10.250.19.16:50010
081111 073403 23471 INFO dfs.DataNode$DataXceiver: Receiving block blk_-7745387067588847250 src: /10.251.215.192:45329 dest: /10.251.215.192:50010
081111 073403 23490 INFO dfs.DataNode$DataXceiver: Receiving block blk_4632056507169178395 src: /10.251.126.5:48757 dest: /10.251.126.5:50010
081111 073403 23490 INFO dfs.DataNode$PacketResponder: PacketResponder 0 for block blk_-85872290979354091 terminating
081111 073403 23490 INFO dfs.DataNode$PacketResponder: Received block blk_-85872290979354091 of size 67108864 from /10.251.111.130
081111 073403 23497 INFO dfs.DataNode$DataXceiver: Receiving block blk_7827565989993298175 src: /10.251.199.86:52676 dest: /10.251.199.86:50010
081111 073403 23497 INFO dfs.DataNode$PacketResponder: PacketResponder 2 for block blk_7337148117609510990 terminating
081111 073403 23497 INFO dfs.DataNode$PacketResponder: Received block blk_7337148117609510990 of size 67108864 from /10.250.5.237
081111 073403 23505 INFO dfs.DataNode$PacketResponder: PacketResponder 1 for block blk_-4775914925348642713 terminating
081111 073403 23505 INFO dfs.DataNode$PacketResponder: Received block blk_-4775914925348642713 of size 67108864 from /10.250.10.223
081111 073403 23506 INFO dfs.DataNode$DataXceiver: Receiving block blk_-2217894440149511635 src: /10.251.123.1:54767 dest: /10.251.123.1:50010
081111 073403 23510 INFO dfs.DataNode$DataXceiver: Receiving block blk_-3968478028492299389 src: /10.250.5.237:54274 dest: /10.250.5.237:50010
081111 073403 23511 INFO dfs.DataNode$DataXceiver: Receiving block blk_-7130451065715207928 src: /10.251.66.102:42844 dest: /10.251.66.102:50010
081111 073403 23549 INFO dfs.DataNode$PacketResponder: PacketResponder 1 for block blk_-121367379554300530 terminating
081111 073403 23549 INFO dfs.DataNode$PacketResponder: Received block blk_-121367379554300530 of size 67108864 from /10.250.7.244
081111 073403 23560 INFO dfs.DataNode$PacketResponder: PacketResponder 1 for block blk_-3438432978711440988 terminating
081111 073403 23560 INFO dfs.DataNode$PacketResponder: Received block blk_-3438432978711440988 of size 67108864 from /10.250.9.207
081111 073403 23566 INFO dfs.DataNode$DataXceiver: Receiving block blk_-2217894440149511635 src: /10.251.39.242:54115 dest: /10.251.39.242:50010
081111 073403 23592 INFO dfs.DataNode$PacketResponder: PacketResponder 2 for block blk_-691718415551996161 terminating
081111 073403 23592 INFO dfs.DataNode$PacketResponder: Received block blk_-691718415551996161 of size 67108864 from /10.250.19.16
081111 073403 23595 INFO dfs.DataNode$DataXceiver: Receiving block blk_-7130451065715207928 src: /10.250.19.16:43258 dest: /10.250.19.16:50010
081111 073403 23603 INFO dfs.DataNode$PacketResponder: PacketResponder 0 for block blk_1555235217328181988 terminating
081111 073403 23603 INFO dfs.DataNode$PacketResponder: Received block blk_1555235217328181988 of size 67108864 from /10.251.65.203
081111 073403 23616 INFO dfs.DataNode$PacketResponder: PacketResponder 0 for block blk_-3438432978711440988 terminating
081111 073403 23616 INFO dfs.DataNode$PacketResponder: Received block blk_-3438432978711440988 of size 67108864 from /10.251.71.240
081111 073403 23617 INFO dfs.DataNode$DataXceiver: Receiving block blk_7827565989993298175 src: /10.251.67.113:48509 dest: /10.251.67.113:50010
081111 073403 23622 INFO dfs.DataNode$DataXceiver: Receiving block blk_-91002884287410228 src: /10.251.30.179:55063 dest: /10.251.30.179:50010
081111 073403 23636 INFO dfs.DataNode$PacketResponder: PacketResponder 0 for block blk_-7145158310229328634 terminating
081111 073403 23636 INFO dfs.DataNode$PacketResponder: Received block blk_-7145158310229328634 of size 67108864 from /10.251.74.134
081111 073403 23750 INFO dfs.DataNode$PacketResponder: PacketResponder 1 for block blk_-7145158310229328634 terminating
081111 073403 23750 INFO dfs.DataNode$PacketResponder: Received block blk_-7145158310229328634 of size 67108864 from /10.251.38.53
081111 073403 23759 INFO dfs.DataNode$DataXceiver: Receiving block blk_2223070829847083828 src: /10.250.10.213:32786 dest: /10.250.10.213:50010
081111 073403 26 INFO dfs.FSNamesystem: BLOCK* NameSystem.addStoredBlock: blockMap updated: 10.251.107.50:50010 is added to blk_1422407274472886915 size 67108864
081111 073403 26 INFO dfs.FSNamesystem: BLOCK* NameSystem.allocateBlock: /user/root/rand6/_temporary/_task_200811101024_0013_m_001233_0/part-01233. blk_2223070829847083828
081111 073403 26 INFO dfs.FSNamesystem: BLOCK* NameSystem.allocateBlock: /user/root/rand6/_temporary/_task_200811101024_0013_m_001237_0/part-01237. blk_-7130451065715207928
081111 073403 27 INFO dfs.FSNamesystem: BLOCK* NameSystem.addStoredBlock: blockMap updated: 10.250.19.227:50010 is added to blk_-2356092732421197051 size 67108864
081111 073403 27 INFO dfs.FSNamesystem: BLOCK* NameSystem.addStoredBlock: blockMap updated: 10.251.31.5:50010 is added to blk_-85872290979354091 size 67108864
081111 073403 27 INFO dfs.FSNamesystem: BLOCK* NameSystem.allocateBlock: /user/root/rand6/_temporary/_task_200811101024_0013_m_001379_0/part-01379. blk_-3968478028492299389
081111 073403 27 INFO dfs.FSNamesystem: BLOCK* NameSystem.allocateBlock: /user/root/rand6/_temporary/_task_200811101024_0013_m_001516_0/part-01516. blk_-8965813393495595595
081111 073403 28 INFO dfs.FSNamesystem: BLOCK* NameSystem.addStoredBlock: blockMap updated: 10.251.126.255:50010 is added to blk_4560695115504354397 size 67108864
081111 073403 28 INFO dfs.FSNamesystem: BLOCK* NameSystem.addStoredBlock: blockMap updated: 10.251.70.5:50010 is added to blk_4560695115504354397 size 67108864
081111 073403 28 INFO dfs.FSNamesystem: BLOCK* NameSystem.allocateBlock: /user/root/rand6/_temporary/_task_200811101024_0013_m_001204_0/part-01204. blk_-3452684216911660317
081111 073403 28 INFO dfs.FSNamesystem: BLOCK* NameSystem.allocateBlock: /user/root/rand6/_temporary/_task_200811101024_0013_m_001259_0/part-01259. blk_4632056507169178395
081111 073403 29 INFO dfs.FSNamesystem: BLOCK* NameSystem.addStoredBlock: blockMap updated: 10.250.10.223:50010 is added to blk_-4775914925348642713 size 67108864
081111 073403 29 INFO dfs.FSNamesystem: BLOCK* NameSystem.addStoredBlock: blockMap updated: 10.250.5.237:50010 is added to blk_-4775914925348642713 size 67108864
081111 073403 29 INFO dfs.FSNamesystem: BLOCK* NameSystem.addStoredBlock: blockMap updated: 10.250.5.237:50010 is added to blk_7337148117609510990 size 67108864
081111 073403 29 INFO dfs.FSNamesystem: BLOCK* NameSystem.addStoredBlock: blockMap updated: 10.251.203.179:50010 is added to blk_-2356092732421197051 size 67108864
081111 073403 29 INFO dfs.FSNamesystem: BLOCK* NameSystem.addStoredBlock: blockMap updated: 10.251.203.246:50010 is added to blk_7660888757863714243 size 67108864
081111 073403 29 INFO dfs.FSNamesystem: BLOCK* NameSystem.addStoredBlock: blockMap updated: 10.251.74.192:50010 is added to blk_-85872290979354091 size 67108864
081111 073403 29 INFO dfs.FSNamesystem: BLOCK* NameSystem.allocateBlock: /user/root/rand6/_temporary/_task_200811101024_0013_m_001537_0/part-01537. blk_-7745387067588847250
081111 073403 30 INFO dfs.FSNamesystem: BLOCK* NameSystem.addStoredBlock: blockMap updated: 10.251.126.5:50010 is added to blk_-7470409106752087667 size 67108864
081111 073403 30 INFO dfs.FSNamesystem: BLOCK* NameSystem.addStoredBlock: blockMap updated: 10.251.199.225:50010 is added to blk_-4775914925348642713 size 67108864
081111 073403 30 INFO dfs.FSNamesystem: BLOCK* NameSystem.addStoredBlock: blockMap updated: 10.251.199.86:50010 is added to blk_1555235217328181988 size 67108864
081111 073403 30 INFO dfs.FSNamesystem: BLOCK* NameSystem.addStoredBlock: blockMap updated: 10.251.39.192:50010 is added to blk_1422407274472886915 size 67108864
081111 073403 30 INFO dfs.FSNamesystem: BLOCK* NameSystem.addStoredBlock: blockMap updated: 10.251.66.3:50010 is added to blk_-7145158310229328634 size 67108864
081111 073403 30 INFO dfs.FSNamesystem: BLOCK* NameSystem.allocateBlock: /user/root/rand6/_temporary/_task_200811101024_0013_m_001464_0/part-01464. blk_-6237614581619225096
081111 073403 30 INFO dfs.FSNamesystem: BLOCK* NameSystem.allocateBlock: /user/root/rand6/_temporary/_task_200811101024_0013_m_001520_0/part-01520. blk_-6409222241984449625
081111 073403 31 INFO dfs.FSNamesystem: BLOCK* NameSystem.addStoredBlock: blockMap updated: 10.251.194.147:50010 is added to blk_1555235217328181988 size 67108864
081111 073403 31 INFO dfs.FSNamesystem: BLOCK* NameSystem.addStoredBlock: blockMap updated: 10.251.215.192:50010 is added to blk_-8058032814958554319 size 67108864
081111 073403 31 INFO dfs.FSNamesystem: BLOCK* NameSystem.addStoredBlock: blockMap updated: 10.251.42.246:50010 is added to blk_7337148117609510990 size 67108864
081111 073403 31 INFO dfs.FSNamesystem: BLOCK* NameSystem.addStoredBlock: blockMap updated: 10.251.74.134:50010 is added to blk_-7145158310229328634 size 67108864
081111 073403 32 INFO dfs.FSNamesystem: BLOCK* NameSystem.addStoredBlock: blockMap updated: 10.250.10.213:50010 is added to blk_-2356092732421197051 size 67108864
081111 073403 32 INFO dfs.FSNamesystem: BLOCK* NameSystem.addStoredBlock: blockMap updated: 10.251.107.19:50010 is added to blk_-3438432978711440988 size 67108864
081111 073403 32 INFO dfs.FSNamesystem: BLOCK* NameSystem.addStoredBlock: blockMap updated: 10.251.202.134:50010 is added to blk_7337148117609510990 size 67108864
081111 073403 32 INFO dfs.FSNamesystem: BLOCK* NameSystem.addStoredBlock: blockMap updated: 10.251.30.101:50010 is added to blk_-8872329918407527745 size 67108864
081111 073403 32 INFO dfs.FSNamesystem: BLOCK* NameSystem.addStoredBlock: blockMap updated: 10.251.65.203:50010 is added to blk_1555235217328181988 size 67108864
081111 073403 32 INFO dfs.FSNamesystem: BLOCK* NameSystem.allocateBlock: /user/root/rand6/_temporary/_task_200811101024_0013_m_001416_0/part-01416. blk_923876998675294199
081111 073403 33 INFO dfs.FSNamesystem: BLOCK* NameSystem.addStoredBlock: blockMap updated: 10.250.11.100:50010 is added to blk_-4301178988618507084 size 67108864
081111 073403 33 INFO dfs.FSNamesystem: BLOCK* NameSystem.addStoredBlock: blockMap updated: 10.250.19.16:50010 is added to blk_-691718415551996161 size 67108864
081111 073403 33 INFO dfs.FSNamesystem: BLOCK* NameSystem.addStoredBlock: blockMap updated: 10.250.6.223:50010 is added to blk_1422407274472886915 size 67108864
081111 073403 33 INFO dfs.FSNamesystem: BLOCK* NameSystem.addStoredBlock: blockMap updated: 10.250.9.207:50010 is added to blk_-3438432978711440988 size 67108864
081111 073403 33 INFO dfs.FSNamesystem: BLOCK* NameSystem.addStoredBlock: blockMap updated: 10.251.199.225:50010 is added to blk_-8058032814958554319 size 67108864
081111 073403 34 INFO dfs.FSNamesystem: BLOCK* NameSystem.addStoredBlock: blockMap updated: 10.251.71.146:50010 is added to blk_-7356044793618859038 size 67108864
081111 073403 34 INFO dfs.FSNamesystem: BLOCK* NameSystem.addStoredBlock: blockMap updated: 10.251.71.240:50010 is added to blk_-3438432978711440988 size 67108864
081111 073403 34 INFO dfs.FSNamesystem: BLOCK* NameSystem.addStoredBlock: blockMap updated: 10.251.74.79:50010 is added to blk_7660888757863714243 size 67108864
081111 073403 34 INFO dfs.FSNamesystem: BLOCK* NameSystem.allocateBlock: /user/root/rand6/_temporary/_task_200811101024_0013_m_001174_0/part-01174. blk_1913404323370443729
081111 073403 35 INFO dfs.FSNamesystem: BLOCK* NameSystem.addStoredBlock: blockMap updated: 10.250.7.244:50010 is added to blk_-121367379554300530 size 67108864
081111 073403 35 INFO dfs.FSNamesystem: BLOCK* NameSystem.addStoredBlock: blockMap updated: 10.251.111.130:50010 is added to blk_-85872290979354091 size 67108864
081111 073403 35 INFO dfs.FSNamesystem: BLOCK* NameSystem.addStoredBlock: blockMap updated: 10.251.127.191:50010 is added to blk_1062432411647010180 size 67108864
081111 073403 35 INFO dfs.FSNamesystem: BLOCK* NameSystem.addStoredBlock: blockMap updated: 10.251.215.16:50010 is added to blk_-8058032814958554319 size 67108864
081111 073403 35 INFO dfs.FSNamesystem: BLOCK* NameSystem.addStoredBlock: blockMap updated: 10.251.37.240:50010 is added to blk_1062432411647010180 size 67108864
081111 073403 35 INFO dfs.FSNamesystem: BLOCK* NameSystem.allocateBlock: /user/root/rand6/_temporary/_task_200811101024_0013_m_001243_0/part-01243. blk_5162751594187995010
081111 073403 35 INFO dfs.FSNamesystem: BLOCK* NameSystem.allocateBlock: /user/root/rand6/_temporary/_task_200811101024_0013_m_001442_0/part-01442. blk_7306254392764813149
081111 073403 8574 INFO dfs.DataNode$DataXceiver: Receiving block blk_7306254392764813149 src: /10.251.74.192:34021 dest: /10.251.74.192:50010
081111 073404 13 INFO dfs.DataBlockScanner: Verification succeeded for blk_6352866815585577157
081111 073404 17844 INFO dfs.DataNode$PacketResponder: PacketResponder 2 for block blk_-7121022157185887314 terminating
081111 073404 17844 INFO dfs.DataNode$PacketResponder: Received block blk_-7121022157185887314 of size 67108864 from /10.251.123.33
081111 073404 17859 INFO dfs.DataNode$DataXceiver: Receiving block blk_7633359129162004832 src: /10.251.123.33:47461 dest: /10.251.123.33:50010
081111 073404 18170 INFO dfs.DataNode$PacketResponder: PacketResponder 1 for block blk_1913404323370443729 terminating
081111 073404 18170 INFO dfs.DataNode$PacketResponder: Received block blk_1913404323370443729 of size 3537266 from /10.250.10.223
081111 073404 22767 INFO dfs.DataNode$PacketResponder: PacketResponder 2 for block blk_-5595429807887921288 terminating
081111 073404 22767 INFO dfs.DataNode$PacketResponder: Received block blk_-5595429807887921288 of size 67108864 from /10.251.91.32
081111 073404 22768 INFO dfs.DataNode$DataXceiver: Receiving block blk_-3157508745333939098 src: /10.251.67.225:51132 dest: /10.251.67.225:50010
081111 073404 22769 INFO dfs.DataNode$DataXceiver: Receiving block blk_-2903083177261416265 src: /10.251.91.32:43054 dest: /10.251.91.32:50010
081111 073404 22847 INFO dfs.DataNode$PacketResponder: PacketResponder 0 for block blk_9004885721699327670 terminating
081111 073404 22847 INFO dfs.DataNode$PacketResponder: Received block blk_9004885721699327670 of size 67108864 from /10.251.27.63
081111 073404 22917 INFO dfs.DataNode$DataXceiver: Receiving block blk_-6808091766067199096 src: /10.251.29.239:40582 dest: /10.251.29.239:50010
081111 073404 22918 INFO dfs.DataNode$DataXceiver: Receiving block blk_3005386451277521902 src: /10.251.109.236:50399 dest: /10.251.109.236:50010
081111 073404 22975 INFO dfs.DataNode$DataXceiver: Receiving block blk_6339373323699638028 src: /10.251.39.144:50052 dest: /10.251.39.144:50010
081111 073404 23015 INFO dfs.DataNode$DataXceiver: Receiving block blk_-34394125621441250 src: /10.250.9.207:41631 dest: /10.250.9.207:50010
081111 073404 23027 INFO dfs.DataNode$DataXceiver: Receiving block blk_1913404323370443729 src: /10.251.39.160:50208 dest: /10.251.39.160:50010
081111 073404 23028 INFO dfs.DataNode$PacketResponder: PacketResponder 0 for block blk_1913404323370443729 terminating
081111 073404 23028 INFO dfs.DataNode$PacketResponder: Received block blk_1913404323370443729 of size 3537266 from /10.251.39.160
081111 073404 23037 INFO dfs.DataNode$DataXceiver: Receiving block blk_7633359129162004832 src: /10.251.126.227:60806 dest: /10.251.126.227:50010
081111 073404 23062 INFO dfs.DataNode$PacketResponder: PacketResponder 2 for block blk_-9009418491739830954 terminating
081111 073404 23062 INFO dfs.DataNode$PacketResponder: Received block blk_-9009418491739830954 of size 67108864 from /10.250.14.224
081111 073404 23071 INFO dfs.DataNode$DataXceiver: Receiving block blk_-4960502580007190210 src: /10.250.7.32:56818 dest: /10.250.7.32:50010
081111 073404 23074 INFO dfs.DataNode$DataXceiver: Receiving block blk_1459720562982457857 src: /10.251.90.134:42436 dest: /10.251.90.134:50010
081111 073404 23076 INFO dfs.DataNode$PacketResponder: PacketResponder 2 for block blk_7141319772432498040 terminating
081111 073404 23076 INFO dfs.DataNode$PacketResponder: Received block blk_7141319772432498040 of size 67108864 from /10.251.127.243
081111 073404 23081 INFO dfs.DataNode$DataXceiver: Receiving block blk_2521843726179271897 src: /10.250.14.224:33459 dest: /10.250.14.224:50010
081111 073404 23088 INFO dfs.DataNode$PacketResponder: PacketResponder 2 for block blk_-8482982827917875701 terminating
081111 073404 23088 INFO dfs.DataNode$PacketResponder: Received block blk_-8482982827917875701 of size 67108864 from /10.251.109.236
081111 073404 23092 INFO dfs.DataNode$DataXceiver: Receiving block blk_-4685825476950902955 src: /10.251.127.243:38632 dest: /10.251.127.243:50010
081111 073404 23104 INFO dfs.DataNode$DataXceiver: Receiving block blk_2521843726179271897 src: /10.251.214.67:34978 dest: /10.251.214.67:50010
081111 073404 23106 INFO dfs.DataNode$DataXceiver: Receiving block blk_3005386451277521902 src: /10.251.109.236:55888 dest: /10.251.109.236:50010
081111 073404 23114 INFO dfs.DataNode$PacketResponder: PacketResponder 1 for block blk_-6825891709082729849 terminating
081111 073404 23114 INFO dfs.DataNode$PacketResponder: Received block blk_-6825891709082729849 of size 67108864 from /10.251.42.9
081111 073404 23135 INFO dfs.DataNode$DataXceiver: Receiving block blk_2204470345194149424 src: /10.251.70.5:43220 dest: /10.251.70.5:50010
081111 073404 23153 INFO dfs.DataNode$PacketResponder: PacketResponder 1 for block blk_-8872329918407527745 terminating
081111 073404 23153 INFO dfs.DataNode$PacketResponder: Received block blk_-8872329918407527745 of size 67108864 from /10.251.106.214
081111 073404 23160 INFO dfs.DataNode$DataXceiver: Receiving block blk_-34394125621441250 src: /10.250.9.207:56244 dest: /10.250.9.207:50010
081111 073404 23163 INFO dfs.DataNode$PacketResponder: PacketResponder 1 for block blk_-9009418491739830954 terminating
081111 073404 23163 INFO dfs.DataNode$PacketResponder: Received block blk_-9009418491739830954 of size 67108864 from /10.250.14.224
081111 073404 23171 INFO dfs.DataNode$PacketResponder: PacketResponder 2 for block blk_-6825891709082729849 terminating
081111 073404 23171 INFO dfs.DataNode$PacketResponder: Received block blk_-6825891709082729849 of size 67108864 from /10.251.42.9
081111 073404 23172 INFO dfs.DataNode$PacketResponder: PacketResponder 2 for block blk_-8872329918407527745 terminating
081111 073404 23172 INFO dfs.DataNode$PacketResponder: Received block blk_-8872329918407527745 of size 67108864 from /10.251.106.214
081111 073404 23178 INFO dfs.DataNode$DataXceiver: Receiving block blk_3426710938341551959 src: /10.251.42.9:44246 dest: /10.251.42.9:50010
081111 073404 23179 INFO dfs.DataNode$PacketResponder: PacketResponder 2 for block blk_7732999373556965470 terminating
081111 073404 23179 INFO dfs.DataNode$PacketResponder: Received block blk_7732999373556965470 of size 67108864 from /10.251.90.134
081111 073404 23180 INFO dfs.DataNode$PacketResponder: PacketResponder 0 for block blk_-5996959593348543161 terminating
081111 073404 23180 INFO dfs.DataNode$PacketResponder: Received block blk_-5996959593348543161 of size 67108864 from /10.250.19.16
081111 073404 23188 INFO dfs.DataNode$DataXceiver: Receiving block blk_1459720562982457857 src: /10.251.90.134:51365 dest: /10.251.90.134:50010
081111 073404 23191 INFO dfs.DataNode$DataXceiver: Receiving block blk_2067812363998044922 src: /10.251.214.225:45549 dest: /10.251.214.225:50010
081111 073404 23195 INFO dfs.DataNode$DataXceiver: Receiving block blk_-1915354210289278614 src: /10.251.106.214:55641 dest: /10.251.106.214:50010
081111 073404 23196 INFO dfs.DataNode$DataXceiver: Receiving block blk_-8965813393495595595 src: /10.251.37.240:36326 dest: /10.251.37.240:50010
081111 073404 23201 INFO dfs.DataNode$DataXceiver: Receiving block blk_-1915354210289278614 src: /10.251.66.63:59416 dest: /10.251.66.63:50010
081111 073404 23203 INFO dfs.DataNode$DataXceiver: Receiving block blk_2067812363998044922 src: /10.251.214.18:33875 dest: /10.251.214.18:50010
081111 073404 23214 INFO dfs.DataNode$PacketResponder: PacketResponder 0 for block blk_-3466825978258957020 terminating
081111 073404 23214 INFO dfs.DataNode$PacketResponder: Received block blk_-3466825978258957020 of size 67108864 from /10.251.71.193
081111 073404 23268 INFO dfs.DataNode$PacketResponder: PacketResponder 2 for block blk_-9059124384849868963 terminating
081111 073404 23268 INFO dfs.DataNode$PacketResponder: Received block blk_-9059124384849868963 of size 67108864 from /10.251.214.175
081111 073404 23270 INFO dfs.DataNode$PacketResponder: PacketResponder 0 for block blk_-7121022157185887314 terminating
081111 073404 23270 INFO dfs.DataNode$PacketResponder: Received block blk_-7121022157185887314 of size 67108864 from /10.251.111.209
081111 073404 23275 INFO dfs.DataNode$DataXceiver: Receiving block blk_6427855666213018088 src: /10.251.30.179:60096 dest: /10.251.30.179:50010
081111 073404 23277 INFO dfs.DataNode$DataXceiver: Receiving block blk_2124107715843778677 src: /10.251.214.175:55567 dest: /10.251.214.175:50010
081111 073404 23277 INFO dfs.DataNode$DataXceiver: Receiving block blk_7633359129162004832 src: /10.251.123.33:35710 dest: /10.251.123.33:50010
081111 073404 23277 INFO dfs.DataNode$PacketResponder: PacketResponder 2 for block blk_-3845930587461164056 terminating
081111 073404 23277 INFO dfs.DataNode$PacketResponder: Received block blk_-3845930587461164056 of size 67108864 from /10.251.42.191
081111 073404 23279 INFO dfs.DataNode$DataXceiver: Receiving block blk_4026903776294169788 src: /10.251.38.53:47550 dest: /10.251.38.53:50010
081111 073404 23280 INFO dfs.DataNode$PacketResponder: PacketResponder 1 for block blk_-5595429807887921288 terminating
081111 073404 23280 INFO dfs.DataNode$PacketResponder: Received block blk_-5595429807887921288 of size 67108864 from /10.251.91.32
081111 073404 23282 INFO dfs.DataNode$DataXceiver: Receiving block blk_7432049856376764616 src: /10.251.42.191:52173 dest: /10.251.42.191:50010
081111 073404 23289 INFO dfs.DataNode$DataXceiver: Receiving block blk_6427855666213018088 src: /10.251.126.83:35242 dest: /10.251.126.83:50010
081111 073404 23300 INFO dfs.DataNode$PacketResponder: PacketResponder 0 for block blk_-810902837126132025 terminating
081111 073404 23300 INFO dfs.DataNode$PacketResponder: Received block blk_-810902837126132025 of size 67108864 from /10.250.19.227
081111 073404 23305 INFO dfs.DataNode$PacketResponder: PacketResponder 2 for block blk_-7374184560072300129 terminating
081111 073404 23305 INFO dfs.DataNode$PacketResponder: Received block blk_-7374184560072300129 of size 67108864 from /10.251.29.239
081111 073404 23310 INFO dfs.DataNode$DataXceiver: Receiving block blk_-5673931656076702607 src: /10.251.38.53:57807 dest: /10.251.38.53:50010
081111 073404 23318 INFO dfs.DataNode$DataXceiver: Receiving block blk_1459720562982457857 src: /10.251.25.237:33953 dest: /10.251.25.237:50010
081111 073404 23318 INFO dfs.DataNode$DataXceiver: Receiving block blk_-6808091766067199096 src: /10.251.29.239:49417 dest: /10.251.29.239:50010
081111 073404 23326 INFO dfs.DataNode$PacketResponder: PacketResponder 0 for block blk_-5350620331211730724 terminating
081111 073404 23326 INFO dfs.DataNode$PacketResponder: Received block blk_-5350620331211730724 of size 67108864 from /10.251.202.181
081111 073404 23329 INFO dfs.DataNode$PacketResponder: PacketResponder 2 for block blk_1913404323370443729 terminating
081111 073404 23329 INFO dfs.DataNode$PacketResponder: Received block blk_1913404323370443729 of size 3537266 from /10.250.10.223
081111 073404 23343 INFO dfs.DataNode$DataXceiver: Receiving block blk_-3452684216911660317 src: /10.251.126.22:43292 dest: /10.251.126.22:50010
081111 073404 23347 INFO dfs.DataNode$PacketResponder: PacketResponder 0 for block blk_-5595429807887921288 terminating
081111 073404 23347 INFO dfs.DataNode$PacketResponder: Received block blk_-5595429807887921288 of size 67108864 from /10.251.30.179
081111 073404 23364 INFO dfs.DataNode$PacketResponder: PacketResponder 1 for block blk_7141319772432498040 terminating
081111 073404 23364 INFO dfs.DataNode$PacketResponder: Received block blk_7141319772432498040 of size 67108864 from /10.251.127.243
081111 073404 23386 INFO dfs.DataNode$PacketResponder: PacketResponder 1 for block blk_-3845930587461164056 terminating
081111 073404 23386 INFO dfs.DataNode$PacketResponder: Received block blk_-3845930587461164056 of size 67108864 from /10.251.42.191
081111 073404 23397 INFO dfs.DataNode$DataXceiver: Receiving block blk_923876998675294199 src: /10.250.7.244:47969 dest: /10.250.7.244:50010
081111 073404 23399 INFO dfs.DataNode$PacketResponder: PacketResponder 0 for block blk_-3845930587461164056 terminating
081111 073404 23399 INFO dfs.DataNode$PacketResponder: Received block blk_-3845930587461164056 of size 67108864 from /10.251.110.8
081111 073404 23403 INFO dfs.DataNode$DataXceiver: Receiving block blk_-1915354210289278614 src: /10.251.106.214:34448 dest: /10.251.106.214:50010
081111 073404 23406 INFO dfs.DataNode$DataXceiver: Receiving block blk_-8965813393495595595 src: /10.251.39.192:42736 dest: /10.251.39.192:50010
081111 073404 23412 INFO dfs.DataNode$DataXceiver: Receiving block blk_-8965813393495595595 src: /10.251.37.240:40082 dest: /10.251.37.240:50010
081111 073404 23414 INFO dfs.DataNode$PacketResponder: PacketResponder 0 for block blk_7141319772432498040 terminating
081111 073404 23414 INFO dfs.DataNode$PacketResponder: Received block blk_7141319772432498040 of size 67108864 from /10.250.6.4
081111 073404 23415 INFO dfs.DataNode$DataXceiver: Receiving block blk_-3003617088019402380 src: /10.251.31.180:54440 dest: /10.251.31.180:50010
081111 073404 23416 INFO dfs.DataNode$DataXceiver: Receiving block blk_2124107715843778677 src: /10.251.214.175:57439 dest: /10.251.214.175:50010
081111 073404 23417 INFO dfs.DataNode$DataXceiver: Receiving block blk_3426710938341551959 src: /10.251.42.9:55013 dest: /10.251.42.9:50010
081111 073404 23418 INFO dfs.DataNode$DataXceiver: Receiving block blk_-3968478028492299389 src: /10.250.5.237:54002 dest: /10.250.5.237:50010
081111 073404 23418 INFO dfs.DataNode$DataXceiver: Receiving block blk_-3968478028492299389 src: /10.251.127.191:43880 dest: /10.251.127.191:50010
081111 073404 23420 INFO dfs.DataNode$DataXceiver: Receiving block blk_2521843726179271897 src: /10.250.14.224:51120 dest: /10.250.14.224:50010
081111 073404 23438 INFO dfs.DataNode$PacketResponder: PacketResponder 1 for block blk_-810902837126132025 terminating
081111 073404 23438 INFO dfs.DataNode$PacketResponder: Received block blk_-810902837126132025 of size 67108864 from /10.251.203.4
081111 073404 23444 INFO dfs.DataNode$DataXceiver: Receiving block blk_-34394125621441250 src: /10.251.202.134:57526 dest: /10.251.202.134:50010
081111 073404 23450 INFO dfs.DataNode$PacketResponder: PacketResponder 1 for block blk_-7374184560072300129 terminating
081111 073404 23450 INFO dfs.DataNode$PacketResponder: Received block blk_-7374184560072300129 of size 67108864 from /10.251.29.239
081111 073404 23451 INFO dfs.DataNode$PacketResponder: PacketResponder 2 for block blk_-7145158310229328634 terminating
081111 073404 23451 INFO dfs.DataNode$PacketResponder: Received block blk_-7145158310229328634 of size 67108864 from /10.251.38.53
081111 073404 23458 INFO dfs.DataNode$PacketResponder: PacketResponder 1 for block blk_399659600973483390 terminating
081111 073404 23458 INFO dfs.DataNode$PacketResponder: Received block blk_399659600973483390 of size 67108864 from /10.251.199.159
081111 073404 23461 INFO dfs.DataNode$DataXceiver: Receiving block blk_4026903776294169788 src: /10.251.38.53:44735 dest: /10.251.38.53:50010
081111 073404 23461 INFO dfs.DataNode$DataXceiver: Receiving block blk_923876998675294199 src: /10.251.110.8:47696 dest: /10.251.110.8:50010
081111 073404 23472 INFO dfs.DataNode$DataXceiver: Receiving block blk_-4685825476950902955 src: /10.251.127.243:46745 dest: /10.251.127.243:50010
081111 073404 23476 INFO dfs.DataNode$PacketResponder: PacketResponder 0 for block blk_399659600973483390 terminating
081111 073404 23476 INFO dfs.DataNode$PacketResponder: Received block blk_399659600973483390 of size 67108864 from /10.251.214.18
081111 073404 23477 INFO dfs.DataNode$DataXceiver: Receiving block blk_4026903776294169788 src: /10.251.126.227:53522 dest: /10.251.126.227:50010
081111 073404 23493 INFO dfs.DataNode$PacketResponder: PacketResponder 0 for block blk_-7374184560072300129 terminating
081111 073404 23493 INFO dfs.DataNode$PacketResponder: Received block blk_-7374184560072300129 of size 67108864 from /10.251.31.85
081111 073404 23505 INFO dfs.DataNode$PacketResponder: PacketResponder 2 for block blk_399659600973483390 terminating
081111 073404 23505 INFO dfs.DataNode$PacketResponder: Received block blk_399659600973483390 of size 67108864 from /10.251.199.159
081111 073404 23514 INFO dfs.DataNode$PacketResponder: PacketResponder 1 for block blk_-7121022157185887314 terminating
081111 073404 23514 INFO dfs.DataNode$PacketResponder: Received block blk_-7121022157185887314 of size 67108864 from /10.251.123.33
081111 073404 23518 INFO dfs.DataNode$DataXceiver: Receiving block blk_4087755873764474806 src: /10.251.199.159:36285 dest: /10.251.199.159:50010
081111 073404 23529 INFO dfs.DataNode$DataXceiver: Receiving block blk_-3234952032955998356 src: /10.250.7.96:53929 dest: /10.250.7.96:50010
081111 073404 23553 INFO dfs.DataNode$PacketResponder: PacketResponder 0 for block blk_-9009418491739830954 terminating
081111 073404 23553 INFO dfs.DataNode$PacketResponder: Received block blk_-9009418491739830954 of size 67108864 from /10.251.67.113
081111 073404 23556 INFO dfs.DataNode$PacketResponder: PacketResponder 1 for block blk_7732999373556965470 terminating
081111 073404 23556 INFO dfs.DataNode$PacketResponder: Received block blk_7732999373556965470 of size 67108864 from /10.251.90.134
081111 073404 23557 INFO dfs.DataNode$PacketResponder: PacketResponder 2 for block blk_-2783628646494977362 terminating
081111 073404 23557 INFO dfs.DataNode$PacketResponder: Received block blk_-2783628646494977362 of size 67108864 from /10.251.193.175
081111 073404 23559 INFO dfs.DataNode$PacketResponder: PacketResponder 1 for block blk_-9059124384849868963 terminating
081111 073404 23559 INFO dfs.DataNode$PacketResponder: Received block blk_-9059124384849868963 of size 67108864 from /10.251.214.175
081111 073404 23561 INFO dfs.DataNode$PacketResponder: PacketResponder 2 for block blk_9004885721699327670 terminating
081111 073404 23561 INFO dfs.DataNode$PacketResponder: Received block blk_9004885721699327670 of size 67108864 from /10.251.193.175
081111 073404 23563 INFO dfs.DataNode$PacketResponder: PacketResponder 1 for block blk_-8482982827917875701 terminating
081111 073404 23563 INFO dfs.DataNode$PacketResponder: Received block blk_-8482982827917875701 of size 67108864 from /10.251.109.236
081111 073404 23569 INFO dfs.DataNode$PacketResponder: PacketResponder 2 for block blk_7660888757863714243 terminating
081111 073404 23569 INFO dfs.DataNode$PacketResponder: Received block blk_7660888757863714243 of size 67108864 from /10.251.126.83
081111 073404 23570 INFO dfs.DataNode$DataXceiver: Receiving block blk_6339373323699638028 src: /10.251.193.175:33818 dest: /10.251.193.175:50010
081111 073404 23572 INFO dfs.DataNode$DataXceiver: Receiving block blk_-4695630570089168340 src: /10.251.193.175:33820 dest: /10.251.193.175:50010
081111 073404 23588 INFO dfs.DataNode$DataXceiver: Receiving block blk_6427855666213018088 src: /10.251.126.83:54955 dest: /10.251.126.83:50010
081111 073404 23590 INFO dfs.DataNode$PacketResponder: PacketResponder 1 for block blk_-5996959593348543161 terminating
081111 073404 23590 INFO dfs.DataNode$PacketResponder: Received block blk_-5996959593348543161 of size 67108864 from /10.251.71.193
081111 073404 23593 INFO dfs.DataNode$PacketResponder: PacketResponder 2 for block blk_-4301178988618507084 terminating
081111 073404 23593 INFO dfs.DataNode$PacketResponder: Received block blk_-4301178988618507084 of size 67108864 from /10.251.67.225
081111 073404 23606 INFO dfs.DataNode$DataXceiver: Receiving block blk_-3157508745333939098 src: /10.251.67.225:39618 dest: /10.251.67.225:50010
081111 073404 23618 INFO dfs.DataNode$DataXceiver: Receiving block blk_6339373323699638028 src: /10.251.193.175:33691 dest: /10.251.193.175:50010
081111 073404 23620 INFO dfs.DataNode$DataXceiver: Receiving block blk_-4685825476950902955 src: /10.251.31.85:47708 dest: /10.251.31.85:50010
081111 073404 23623 INFO dfs.DataNode$PacketResponder: PacketResponder 0 for block blk_-8872329918407527745 terminating
081111 073404 23623 INFO dfs.DataNode$PacketResponder: Received block blk_-8872329918407527745 of size 67108864 from /10.251.73.220
081111 073404 23680 INFO dfs.DataNode$PacketResponder: PacketResponder 0 for block blk_-6825891709082729849 terminating
081111 073404 23680 INFO dfs.DataNode$PacketResponder: Received block blk_-6825891709082729849 of size 67108864 from /10.251.202.209
081111 073404 23697 INFO dfs.DataNode$DataXceiver: Receiving block blk_7306254392764813149 src: /10.251.30.85:44405 dest: /10.251.30.85:50010
081111 073404 23793 INFO dfs.DataNode$DataXceiver: Receiving block blk_-6237614581619225096 src: /10.251.74.227:44986 dest: /10.251.74.227:50010
081111 073404 26 INFO dfs.FSNamesystem: BLOCK* NameSystem.addStoredBlock: blockMap updated: 10.250.19.227:50010 is added to blk_-810902837126132025 size 67108864
081111 073404 26 INFO dfs.FSNamesystem: BLOCK* NameSystem.addStoredBlock: blockMap updated: 10.251.109.236:50010 is added to blk_-8482982827917875701 size 67108864
081111 073404 26 INFO dfs.FSNamesystem: BLOCK* NameSystem.addStoredBlock: blockMap updated: 10.251.123.33:50010 is added to blk_-7121022157185887314 size 67108864
081111 073404 26 INFO dfs.FSNamesystem: BLOCK* NameSystem.addStoredBlock: blockMap updated: 10.251.193.175:50010 is added to blk_-121367379554300530 size 67108864
081111 073404 26 INFO dfs.FSNamesystem: BLOCK* NameSystem.addStoredBlock: blockMap updated: 10.251.193.175:50010 is added to blk_-2783628646494977362 size 67108864
081111 073404 26 INFO dfs.FSNamesystem: BLOCK* NameSystem.addStoredBlock: blockMap updated: 10.251.193.175:50010 is added to blk_7732999373556965470 size 67108864
081111 073404 26 INFO dfs.FSNamesystem: BLOCK* NameSystem.addStoredBlock: blockMap updated: 10.251.42.9:50010 is added to blk_-6825891709082729849 size 67108864
081111 073404 26 INFO dfs.FSNamesystem: BLOCK* NameSystem.allocateBlock: /user/root/rand6/_temporary/_task_200811101024_0013_m_001200_0/part-01200. blk_-34394125621441250
081111 073404 26 INFO dfs.FSNamesystem: BLOCK* NameSystem.allocateBlock: /user/root/rand6/_temporary/_task_200811101024_0013_m_001206_0/part-01206. blk_4026903776294169788
081111 073404 26 INFO dfs.FSNamesystem: BLOCK* NameSystem.allocateBlock: /user/root/rand6/_temporary/_task_200811101024_0013_m_001236_0/part-01236. blk_7432049856376764616
081111 073404 26 INFO dfs.FSNamesystem: BLOCK* NameSystem.allocateBlock: /user/root/rand6/_temporary/_task_200811101024_0013_m_001372_0/part-01372. blk_-2903083177261416265
081111 073404 26 INFO dfs.FSNamesystem: BLOCK* NameSystem.allocateBlock: /user/root/rand6/_temporary/_task_200811101024_0013_m_001374_0/part-01374. blk_6339373323699638028
081111 073404 26 INFO dfs.FSNamesystem: BLOCK* NameSystem.allocateBlock: /user/root/rand6/_temporary/_task_200811101024_0013_m_001439_0/part-01439. blk_2124107715843778677
081111 073404 26 INFO dfs.FSNamesystem: BLOCK* NameSystem.allocateBlock: /user/root/rand6/_temporary/_task_200811101024_0013_m_001488_0/part-01488. blk_-6808091766067199096
081111 073404 26 INFO dfs.FSNamesystem: BLOCK* NameSystem.allocateBlock: /user/root/rand6/_temporary/_task_200811101024_0013_m_001525_0/part-01525. blk_-3157508745333939098
081111 073404 27 INFO dfs.FSNamesystem: BLOCK* NameSystem.addStoredBlock: blockMap updated: 10.250.6.4:50010 is added to blk_7141319772432498040 size 67108864
081111 073404 27 INFO dfs.FSNamesystem: BLOCK* NameSystem.addStoredBlock: blockMap updated: 10.251.199.159:50010 is added to blk_399659600973483390 size 67108864
081111 073404 27 INFO dfs.FSNamesystem: BLOCK* NameSystem.addStoredBlock: blockMap updated: 10.251.214.175:50010 is added to blk_-9059124384849868963 size 67108864
081111 073404 27 INFO dfs.FSNamesystem: BLOCK* NameSystem.addStoredBlock: blockMap updated: 10.251.27.63:50010 is added to blk_9004885721699327670 size 67108864
081111 073404 27 INFO dfs.FSNamesystem: BLOCK* NameSystem.addStoredBlock: blockMap updated: 10.251.43.192:50010 is added to blk_-6825891709082729849 size 67108864
081111 073404 27 INFO dfs.FSNamesystem: BLOCK* NameSystem.allocateBlock: /user/root/rand6/_temporary/_task_200811101024_0013_m_001432_0/part-01432. blk_4087755873764474806
081111 073404 28 INFO dfs.FSNamesystem: BLOCK* NameSystem.addStoredBlock: blockMap updated: 10.250.19.16:50010 is added to blk_-5996959593348543161 size 67108864
081111 073404 28 INFO dfs.FSNamesystem: BLOCK* NameSystem.addStoredBlock: blockMap updated: 10.251.126.5:50010 is added to blk_-3845930587461164056 size 67108864
081111 073404 28 INFO dfs.FSNamesystem: BLOCK* NameSystem.addStoredBlock: blockMap updated: 10.251.73.220:50010 is added to blk_-8872329918407527745 size 67108864
081111 073404 28 INFO dfs.FSNamesystem: BLOCK* NameSystem.allocateBlock: /user/root/rand6/_temporary/_task_200811101024_0013_m_001292_0/part-01292. blk_3005386451277521902
081111 073404 29 INFO dfs.FSNamesystem: BLOCK* NameSystem.addStoredBlock: blockMap updated: 10.251.106.214:50010 is added to blk_-8872329918407527745 size 67108864
081111 073404 29 INFO dfs.FSNamesystem: BLOCK* NameSystem.addStoredBlock: blockMap updated: 10.251.111.209:50010 is added to blk_-7121022157185887314 size 67108864
081111 073404 29 INFO dfs.FSNamesystem: BLOCK* NameSystem.addStoredBlock: blockMap updated: 10.251.127.243:50010 is added to blk_7141319772432498040 size 67108864
081111 073404 29 INFO dfs.FSNamesystem: BLOCK* NameSystem.addStoredBlock: blockMap updated: 10.251.30.179:50010 is added to blk_-5595429807887921288 size 67108864
081111 073404 29 INFO dfs.FSNamesystem: BLOCK* NameSystem.addStoredBlock: blockMap updated: 10.251.39.160:50010 is added to blk_1913404323370443729 size 3537266
081111 073404 29 INFO dfs.FSNamesystem: BLOCK* NameSystem.addStoredBlock: blockMap updated: 10.251.39.242:50010 is added to blk_-7374184560072300129 size 67108864
081111 073404 30 INFO dfs.FSNamesystem: BLOCK* NameSystem.addStoredBlock: blockMap updated: 10.250.14.224:50010 is added to blk_-9009418491739830954 size 67108864
081111 073404 30 INFO dfs.FSNamesystem: BLOCK* NameSystem.addStoredBlock: blockMap updated: 10.251.195.52:50010 is added to blk_-3466825978258957020 size 67108864
081111 073404 30 INFO dfs.FSNamesystem: BLOCK* NameSystem.addStoredBlock: blockMap updated: 10.251.35.1:50010 is added to blk_-4301178988618507084 size 67108864
081111 073404 30 INFO dfs.FSNamesystem: BLOCK* NameSystem.addStoredBlock: blockMap updated: 10.251.67.225:50010 is added to blk_-4301178988618507084 size 67108864
081111 073404 30 INFO dfs.FSNamesystem: BLOCK* NameSystem.allocateBlock: /user/root/rand6/_temporary/_task_200811101024_0013_m_001187_0/part-01187. blk_7633359129162004832
081111 073404 31 INFO dfs.FSNamesystem: BLOCK* NameSystem.addStoredBlock: blockMap updated: 10.251.214.18:50010 is added to blk_399659600973483390 size 67108864
081111 073404 31 INFO dfs.FSNamesystem: BLOCK* NameSystem.addStoredBlock: blockMap updated: 10.251.30.179:50010 is added to blk_-7121022157185887314 size 67108864
081111 073404 31 INFO dfs.FSNamesystem: BLOCK* NameSystem.allocateBlock: /user/root/rand6/_temporary/_task_200811101024_0013_m_001279_0/part-01279. blk_-4685825476950902955
081111 073404 31 INFO dfs.FSNamesystem: BLOCK* NameSystem.allocateBlock: /user/root/rand6/_temporary/_task_200811101024_0013_m_001376_0/part-01376. blk_2521843726179271897
081111 073404 32 INFO dfs.FSNamesystem: BLOCK* NameSystem.addStoredBlock: blockMap updated: 10.251.110.8:50010 is added to blk_-3845930587461164056 size 67108864
081111 073404 32 INFO dfs.FSNamesystem: BLOCK* NameSystem.addStoredBlock: blockMap updated: 10.251.67.113:50010 is added to blk_-9009418491739830954 size 67108864
081111 073404 32 INFO dfs.FSNamesystem: BLOCK* NameSystem.allocateBlock: /user/root/rand6/_temporary/_task_200811101024_0013_m_001330_0/part-01330. blk_6427855666213018088
081111 073404 32 INFO dfs.FSNamesystem: BLOCK* NameSystem.allocateBlock: /user/root/rand6/_temporary/_task_200811101024_0013_m_001448_0/part-01448. blk_-1915354210289278614
081111 073404 33 INFO dfs.FSNamesystem: BLOCK* NameSystem.addStoredBlock: blockMap updated: 10.250.7.244:50010 is added to blk_-5350620331211730724 size 67108864
081111 073404 33 INFO dfs.FSNamesystem: BLOCK* NameSystem.addStoredBlock: blockMap updated: 10.251.110.160:50010 is added to blk_-810902837126132025 size 67108864
081111 073404 33 INFO dfs.FSNamesystem: BLOCK* NameSystem.addStoredBlock: blockMap updated: 10.251.193.175:50010 is added to blk_-9009418491739830954 size 67108864
081111 073404 33 INFO dfs.FSNamesystem: BLOCK* NameSystem.addStoredBlock: blockMap updated: 10.251.193.175:50010 is added to blk_-9059124384849868963 size 67108864
081111 073404 33 INFO dfs.FSNamesystem: BLOCK* NameSystem.addStoredBlock: blockMap updated: 10.251.203.4:50010 is added to blk_-810902837126132025 size 67108864
081111 073404 33 INFO dfs.FSNamesystem: BLOCK* NameSystem.addStoredBlock: blockMap updated: 10.251.31.85:50010 is added to blk_-7374184560072300129 size 67108864
081111 073404 33 INFO dfs.FSNamesystem: BLOCK* NameSystem.addStoredBlock: blockMap updated: 10.251.38.53:50010 is added to blk_-7145158310229328634 size 67108864
081111 073404 33 INFO dfs.FSNamesystem: BLOCK* NameSystem.addStoredBlock: blockMap updated: 10.251.42.191:50010 is added to blk_-3845930587461164056 size 67108864
081111 073404 33 INFO dfs.FSNamesystem: BLOCK* NameSystem.addStoredBlock: blockMap updated: 10.251.90.134:50010 is added to blk_7732999373556965470 size 67108864
081111 073404 33 INFO dfs.FSNamesystem: BLOCK* NameSystem.allocateBlock: /user/root/rand6/_temporary/_task_200811101024_0013_m_001381_0/part-01381. blk_3426710938341551959
081111 073404 34 INFO dfs.FSNamesystem: BLOCK* NameSystem.addStoredBlock: blockMap updated: 10.250.10.213:50010 is added to blk_-5595429807887921288 size 67108864
081111 073404 34 INFO dfs.FSNamesystem: BLOCK* NameSystem.addStoredBlock: blockMap updated: 10.250.10.223:50010 is added to blk_1913404323370443729 size 3537266
081111 073404 34 INFO dfs.FSNamesystem: BLOCK* NameSystem.addStoredBlock: blockMap updated: 10.250.7.230:50010 is added to blk_399659600973483390 size 67108864
081111 073404 34 INFO dfs.FSNamesystem: BLOCK* NameSystem.addStoredBlock: blockMap updated: 10.251.202.209:50010 is added to blk_-6825891709082729849 size 67108864
081111 073404 34 INFO dfs.FSNamesystem: BLOCK* NameSystem.addStoredBlock: blockMap updated: 10.251.203.129:50010 is added to blk_9004885721699327670 size 67108864
081111 073404 34 INFO dfs.FSNamesystem: BLOCK* NameSystem.addStoredBlock: blockMap updated: 10.251.29.239:50010 is added to blk_-7374184560072300129 size 67108864
081111 073404 34 INFO dfs.FSNamesystem: BLOCK* NameSystem.addStoredBlock: blockMap updated: 10.251.70.211:50010 is added to blk_7141319772432498040 size 67108864
081111 073404 35 INFO dfs.FSNamesystem: BLOCK* NameSystem.addStoredBlock: blockMap updated: 10.251.106.214:50010 is added to blk_-5996959593348543161 size 67108864
081111 073404 35 INFO dfs.FSNamesystem: BLOCK* NameSystem.addStoredBlock: blockMap updated: 10.251.126.83:50010 is added to blk_7660888757863714243 size 67108864
081111 073404 35 INFO dfs.FSNamesystem: BLOCK* NameSystem.addStoredBlock: blockMap updated: 10.251.126.83:50010 is added to blk_-8482982827917875701 size 67108864
081111 073404 35 INFO dfs.FSNamesystem: BLOCK* NameSystem.addStoredBlock: blockMap updated: 10.251.201.204:50010 is added to blk_1913404323370443729 size 3537266
081111 073404 35 INFO dfs.FSNamesystem: BLOCK* NameSystem.addStoredBlock: blockMap updated: 10.251.91.32:50010 is added to blk_-5595429807887921288 size 67108864
081111 073404 35 INFO dfs.FSNamesystem: BLOCK* NameSystem.allocateBlock: /user/root/rand6/_temporary/_task_200811101024_0013_m_001423_0/part-01423. blk_1459720562982457857
081111 073405 13 INFO dfs.DataBlockScanner: Verification succeeded for blk_716814875615491094
081111 073405 20852 INFO dfs.DataNode$DataXceiver: Receiving block blk_-4271333108613901333 src: /10.251.42.191:34384 dest: /10.251.42.191:50010
081111 073405 22927 INFO dfs.DataNode$PacketResponder: PacketResponder 2 for block blk_-810902837126132025 terminating
081111 073405 22927 INFO dfs.DataNode$PacketResponder: Received block blk_-810902837126132025 of size 67108864 from /10.251.203.4
081111 073405 22934 INFO dfs.DataNode$DataXceiver: Receiving block blk_-4188085650165189862 src: /10.251.203.4:59326 dest: /10.251.203.4:50010
081111 073405 23020 INFO dfs.DataNode$PacketResponder: PacketResponder 0 for block blk_5964581082268101985 terminating
081111 073405 23020 INFO dfs.DataNode$PacketResponder: Received block blk_5964581082268101985 of size 67108864 from /10.251.30.179
081111 073405 23094 INFO dfs.DataNode$DataXceiver: Receiving block blk_3005386451277521902 src: /10.251.203.246:49320 dest: /10.251.203.246:50010
081111 073405 23112 INFO dfs.DataNode$DataXceiver: Receiving block blk_7432049856376764616 src: /10.251.42.191:41359 dest: /10.251.42.191:50010
081111 073405 23145 INFO dfs.DataNode$PacketResponder: PacketResponder 1 for block blk_6143897711405731093 terminating
081111 073405 23145 INFO dfs.DataNode$PacketResponder: Received block blk_6143897711405731093 of size 67108864 from /10.251.73.220
081111 073405 23152 INFO dfs.DataNode$PacketResponder: PacketResponder 1 for block blk_2542446443914499839 terminating
081111 073405 23152 INFO dfs.DataNode$PacketResponder: Received block blk_2542446443914499839 of size 67108864 from /10.251.123.195
081111 073405 23154 INFO dfs.DataNode$PacketResponder: PacketResponder 1 for block blk_-7356044793618859038 terminating
081111 073405 23154 INFO dfs.DataNode$PacketResponder: Received block blk_-7356044793618859038 of size 67108864 from /10.251.194.102
081111 073405 23159 INFO dfs.DataNode$PacketResponder: PacketResponder 2 for block blk_6143897711405731093 terminating
081111 073405 23159 INFO dfs.DataNode$PacketResponder: Received block blk_6143897711405731093 of size 67108864 from /10.251.73.220
081111 073405 23166 INFO dfs.DataNode$DataXceiver: Receiving block blk_5112811271915129959 src: /10.250.7.146:49980 dest: /10.250.7.146:50010
081111 073405 23176 INFO dfs.DataNode$DataXceiver: Receiving block blk_-8707082270769073232 src: /10.251.73.220:42883 dest: /10.251.73.220:50010
081111 073405 23177 INFO dfs.DataNode$PacketResponder: PacketResponder 1 for block blk_1032690201263700339 terminating
081111 073405 23177 INFO dfs.DataNode$PacketResponder: Received block blk_1032690201263700339 of size 67108864 from /10.250.15.101
081111 073405 23225 INFO dfs.DataNode$DataXceiver: Receiving block blk_-2903083177261416265 src: /10.250.10.144:59189 dest: /10.250.10.144:50010
081111 073405 23265 INFO dfs.DataNode$DataXceiver: Receiving block blk_-4695630570089168340 src: /10.251.193.175:59996 dest: /10.251.193.175:50010
081111 073405 23268 INFO dfs.DataNode$PacketResponder: PacketResponder 0 for block blk_1032690201263700339 terminating
081111 073405 23268 INFO dfs.DataNode$PacketResponder: Received block blk_1032690201263700339 of size 67108864 from /10.250.7.146
081111 073405 23274 INFO dfs.DataNode$PacketResponder: PacketResponder 1 for block blk_5964581082268101985 terminating
081111 073405 23274 INFO dfs.DataNode$PacketResponder: Received block blk_5964581082268101985 of size 67108864 from /10.251.71.97
081111 073405 23275 INFO dfs.DataNode$PacketResponder: PacketResponder 2 for block blk_-8423426086786525696 terminating
081111 073405 23275 INFO dfs.DataNode$PacketResponder: Received block blk_-8423426086786525696 of size 67108864 from /10.251.42.191
081111 073405 23276 INFO dfs.DataNode$DataXceiver: Receiving block blk_-5673931656076702607 src: /10.251.66.192:35716 dest: /10.251.66.192:50010
081111 073405 23281 INFO dfs.DataNode$DataXceiver: Receiving block blk_-2888581395226719100 src: /10.251.42.246:56401 dest: /10.251.42.246:50010
081111 073405 23283 INFO dfs.DataNode$DataXceiver: Receiving block blk_-4271333108613901333 src: /10.251.42.191:52175 dest: /10.251.42.191:50010
081111 073405 23286 INFO dfs.DataNode$PacketResponder: PacketResponder 1 for block blk_8923673194867001749 terminating
081111 073405 23286 INFO dfs.DataNode$PacketResponder: Received block blk_8923673194867001749 of size 67108864 from /10.251.39.242
081111 073405 23301 INFO dfs.DataNode$DataXceiver: Receiving block blk_-3157508745333939098 src: /10.251.91.32:56521 dest: /10.251.91.32:50010
081111 073405 23303 INFO dfs.DataNode$DataXceiver: Receiving block blk_5641338742106131823 src: /10.250.6.191:56267 dest: /10.250.6.191:50010
081111 073405 23304 INFO dfs.DataNode$DataXceiver: Receiving block blk_4087755873764474806 src: /10.251.199.159:33210 dest: /10.251.199.159:50010
081111 073405 23311 INFO dfs.DataNode$PacketResponder: PacketResponder 2 for block blk_1032690201263700339 terminating
081111 073405 23311 INFO dfs.DataNode$PacketResponder: Received block blk_1032690201263700339 of size 67108864 from /10.250.15.101
081111 073405 23313 INFO dfs.DataNode$PacketResponder: PacketResponder 2 for block blk_-7356044793618859038 terminating
081111 073405 23313 INFO dfs.DataNode$PacketResponder: Received block blk_-7356044793618859038 of size 67108864 from /10.251.194.102
081111 073405 23320 INFO dfs.DataNode$PacketResponder: PacketResponder 2 for block blk_-3466825978258957020 terminating
081111 073405 23320 INFO dfs.DataNode$PacketResponder: Received block blk_-3466825978258957020 of size 67108864 from /10.251.38.214
081111 073405 23322 INFO dfs.DataNode$DataXceiver: Receiving block blk_3150748799433046377 src: /10.251.194.102:38098 dest: /10.251.194.102:50010
081111 073405 23332 INFO dfs.DataNode$DataXceiver: Receiving block blk_5641338742106131823 src: /10.251.38.214:53508 dest: /10.251.38.214:50010
081111 073405 23334 INFO dfs.DataNode$PacketResponder: PacketResponder 0 for block blk_8877494245758419519 terminating
081111 073405 23334 INFO dfs.DataNode$PacketResponder: Received block blk_8877494245758419519 of size 67108864 from /10.251.195.33
081111 073405 23335 INFO dfs.DataNode$PacketResponder: PacketResponder 2 for block blk_5964581082268101985 terminating
081111 073405 23335 INFO dfs.DataNode$PacketResponder: Received block blk_5964581082268101985 of size 67108864 from /10.251.71.97
081111 073405 23342 INFO dfs.DataNode$PacketResponder: PacketResponder 1 for block blk_-8423426086786525696 terminating
081111 073405 23342 INFO dfs.DataNode$PacketResponder: Received block blk_-8423426086786525696 of size 67108864 from /10.251.42.191
081111 073405 23345 INFO dfs.DataNode$DataXceiver: Receiving block blk_2124107715843778677 src: /10.251.215.16:55232 dest: /10.251.215.16:50010
081111 073405 23346 INFO dfs.DataNode$DataXceiver: Receiving block blk_-553494375369848466 src: /10.251.71.97:34370 dest: /10.251.71.97:50010
081111 073405 23379 INFO dfs.DataNode$PacketResponder: PacketResponder 0 for block blk_-3585573312481733012 terminating
081111 073405 23379 INFO dfs.DataNode$PacketResponder: Received block blk_-3585573312481733012 of size 67108864 from /10.250.13.240
081111 073405 23396 INFO dfs.DataNode$DataXceiver: Receiving block blk_-2888581395226719100 src: /10.251.39.242:33581 dest: /10.251.39.242:50010
081111 073405 23397 INFO dfs.DataNode$DataXceiver: Receiving block blk_-1272939520048602397 src: /10.251.193.224:52762 dest: /10.251.193.224:50010
081111 073405 23418 INFO dfs.DataNode$DataXceiver: Receiving block blk_-4188085650165189862 src: /10.251.203.4:55304 dest: /10.251.203.4:50010
081111 073405 23466 INFO dfs.DataNode$PacketResponder: PacketResponder 0 for block blk_-6954257483704918166 terminating
081111 073405 23466 INFO dfs.DataNode$PacketResponder: Received block blk_-6954257483704918166 of size 67108864 from /10.251.123.195
081111 073405 23470 INFO dfs.DataNode$PacketResponder: PacketResponder 0 for block blk_8923673194867001749 terminating
081111 073405 23470 INFO dfs.DataNode$PacketResponder: Received block blk_8923673194867001749 of size 67108864 from /10.251.122.65
081111 073405 23479 INFO dfs.DataNode$DataXceiver: Receiving block blk_2619659743053374584 src: /10.251.71.193:42420 dest: /10.251.71.193:50010
081111 073405 23496 INFO dfs.DataNode$PacketResponder: PacketResponder 2 for block blk_8923673194867001749 terminating
081111 073405 23496 INFO dfs.DataNode$PacketResponder: Received block blk_8923673194867001749 of size 67108864 from /10.251.39.242
081111 073405 23497 INFO dfs.DataNode$DataXceiver: Receiving block blk_-6808091766067199096 src: /10.251.203.246:58149 dest: /10.251.203.246:50010
081111 073405 23505 INFO dfs.DataNode$PacketResponder: PacketResponder 0 for block blk_6143897711405731093 terminating
081111 073405 23505 INFO dfs.DataNode$PacketResponder: Received block blk_6143897711405731093 of size 67108864 from /10.251.71.68
081111 073405 23508 INFO dfs.DataNode$DataXceiver: Receiving block blk_-2888581395226719100 src: /10.251.39.242:43525 dest: /10.251.39.242:50010
081111 073405 23536 INFO dfs.DataNode$PacketResponder: PacketResponder 0 for block blk_2542446443914499839 terminating
081111 073405 23536 INFO dfs.DataNode$PacketResponder: Received block blk_2542446443914499839 of size 67108864 from /10.251.71.68
081111 073405 23571 INFO dfs.DataNode$PacketResponder: PacketResponder 0 for block blk_-8423426086786525696 terminating
081111 073405 23571 INFO dfs.DataNode$PacketResponder: Received block blk_-8423426086786525696 of size 67108864 from /10.250.15.240
081111 073405 23574 INFO dfs.DataNode$DataXceiver: Receiving block blk_-4271333108613901333 src: /10.251.107.50:58840 dest: /10.251.107.50:50010
081111 073405 23579 INFO dfs.DataNode$DataXceiver: Receiving block blk_-8707082270769073232 src: /10.251.73.220:37816 dest: /10.251.73.220:50010
081111 073405 23599 INFO dfs.DataNode$PacketResponder: PacketResponder 1 for block blk_-3466825978258957020 terminating
081111 073405 23599 INFO dfs.DataNode$PacketResponder: Received block blk_-3466825978258957020 of size 67108864 from /10.251.38.214
081111 073405 23609 INFO dfs.DataNode$PacketResponder: PacketResponder 2 for block blk_-5996959593348543161 terminating
081111 073405 23609 INFO dfs.DataNode$PacketResponder: Received block blk_-5996959593348543161 of size 67108864 from /10.251.71.193
081111 073405 23624 INFO dfs.DataNode$DataXceiver: Receiving block blk_2619659743053374584 src: /10.251.71.193:40837 dest: /10.251.71.193:50010
081111 073405 23699 INFO dfs.DataNode$DataXceiver: Receiving block blk_-4188085650165189862 src: /10.251.199.225:49137 dest: /10.251.199.225:50010
081111 073405 23700 INFO dfs.DataNode$DataXceiver: Receiving block blk_-2903083177261416265 src: /10.251.91.32:44208 dest: /10.251.91.32:50010
081111 073405 23726 INFO dfs.DataNode$DataXceiver: Receiving block blk_5641338742106131823 src: /10.251.38.214:57180 dest: /10.251.38.214:50010
081111 073405 23726 INFO dfs.DataNode$PacketResponder: PacketResponder 1 for block blk_9004885721699327670 terminating
081111 073405 23726 INFO dfs.DataNode$PacketResponder: Received block blk_9004885721699327670 of size 67108864 from /10.251.193.175
081111 073405 23854 INFO dfs.DataNode$DataXceiver: Receiving block blk_-4695630570089168340 src: /10.251.111.80:39394 dest: /10.251.111.80:50010
081111 073405 26 INFO dfs.FSNamesystem: BLOCK* NameSystem.addStoredBlock: blockMap updated: 10.250.13.188:50010 is added to blk_8877494245758419519 size 67108864
081111 073405 26 INFO dfs.FSNamesystem: BLOCK* NameSystem.addStoredBlock: blockMap updated: 10.251.111.228:50010 is added to blk_2542446443914499839 size 67108864
081111 073405 26 INFO dfs.FSNamesystem: BLOCK* NameSystem.addStoredBlock: blockMap updated: 10.251.42.246:50010 is added to blk_-3585573312481733012 size 67108864
081111 073405 26 INFO dfs.FSNamesystem: BLOCK* NameSystem.addStoredBlock: blockMap updated: 10.251.89.155:50010 is added to blk_6143897711405731093 size 67108864
081111 073405 26 INFO dfs.FSNamesystem: BLOCK* NameSystem.allocateBlock: /user/root/rand6/_temporary/_task_200811101024_0013_m_001263_0/part-01263. blk_-4188085650165189862
081111 073405 26 INFO dfs.FSNamesystem: BLOCK* NameSystem.allocateBlock: /user/root/rand6/_temporary/_task_200811101024_0013_m_001478_0/part-01478. blk_-553494375369848466
081111 073405 28 INFO dfs.FSNamesystem: BLOCK* NameSystem.addStoredBlock: blockMap updated: 10.251.122.65:50010 is added to blk_8923673194867001749 size 67108864
081111 073405 28 INFO dfs.FSNamesystem: BLOCK* NameSystem.addStoredBlock: blockMap updated: 10.251.71.97:50010 is added to blk_5964581082268101985 size 67108864
081111 073405 29 INFO dfs.FSNamesystem: BLOCK* NameSystem.addStoredBlock: blockMap updated: 10.251.123.99:50010 is added to blk_-7356044793618859038 size 67108864
081111 073405 29 INFO dfs.FSNamesystem: BLOCK* NameSystem.addStoredBlock: blockMap updated: 10.251.30.179:50010 is added to blk_5964581082268101985 size 67108864
081111 073405 29 INFO dfs.FSNamesystem: BLOCK* NameSystem.allocateBlock: /user/root/rand6/_temporary/_task_200811101024_0013_m_001245_0/part-01245. blk_2619659743053374584
081111 073405 29 INFO dfs.FSNamesystem: BLOCK* NameSystem.allocateBlock: /user/root/rand6/_temporary/_task_200811101024_0013_m_001268_0/part-01268. blk_-8707082270769073232
081111 073405 30 INFO dfs.FSNamesystem: BLOCK* NameSystem.addStoredBlock: blockMap updated: 10.250.15.240:50010 is added to blk_-8423426086786525696 size 67108864
081111 073405 30 INFO dfs.FSNamesystem: BLOCK* NameSystem.addStoredBlock: blockMap updated: 10.251.127.47:50010 is added to blk_8923673194867001749 size 67108864
081111 073405 30 INFO dfs.FSNamesystem: BLOCK* NameSystem.addStoredBlock: blockMap updated: 10.251.214.18:50010 is added to blk_-6954257483704918166 size 67108864
081111 073405 30 INFO dfs.FSNamesystem: BLOCK* NameSystem.addStoredBlock: blockMap updated: 10.251.38.214:50010 is added to blk_-3466825978258957020 size 67108864
081111 073405 30 INFO dfs.FSNamesystem: BLOCK* NameSystem.addStoredBlock: blockMap updated: 10.251.42.191:50010 is added to blk_-8423426086786525696 size 67108864
081111 073405 30 INFO dfs.FSNamesystem: BLOCK* NameSystem.addStoredBlock: blockMap updated: 10.251.71.193:50010 is added to blk_-3466825978258957020 size 67108864
081111 073405 30 INFO dfs.FSNamesystem: BLOCK* NameSystem.addStoredBlock: blockMap updated: 10.251.71.193:50010 is added to blk_-5996959593348543161 size 67108864
081111 073405 30 INFO dfs.FSNamesystem: BLOCK* NameSystem.addStoredBlock: blockMap updated: 10.251.73.220:50010 is added to blk_6143897711405731093 size 67108864
081111 073405 30 INFO dfs.FSNamesystem: BLOCK* NameSystem.allocateBlock: /user/root/rand6/_temporary/_task_200811101024_0013_m_001188_0/part-01188. blk_3411613766980786629
081111 073405 30 INFO dfs.FSNamesystem: BLOCK* NameSystem.allocateBlock: /user/root/rand6/_temporary/_task_200811101024_0013_m_001272_0/part-01272. blk_-4271333108613901333
081111 073405 31 INFO dfs.FSNamesystem: BLOCK* NameSystem.addStoredBlock: blockMap updated: 10.251.194.102:50010 is added to blk_-7356044793618859038 size 67108864
081111 073405 31 INFO dfs.FSNamesystem: BLOCK* NameSystem.addStoredBlock: blockMap updated: 10.251.71.68:50010 is added to blk_2542446443914499839 size 67108864
081111 073405 31 INFO dfs.FSNamesystem: BLOCK* NameSystem.allocateBlock: /user/root/rand6/_temporary/_task_200811101024_0013_m_001184_0/part-01184. blk_-4695630570089168340
081111 073405 32 INFO dfs.FSNamesystem: BLOCK* NameSystem.addStoredBlock: blockMap updated: 10.250.15.101:50010 is added to blk_1032690201263700339 size 67108864
081111 073405 32 INFO dfs.FSNamesystem: BLOCK* NameSystem.addStoredBlock: blockMap updated: 10.251.193.175:50010 is added to blk_9004885721699327670 size 67108864
081111 073405 32 INFO dfs.FSNamesystem: BLOCK* NameSystem.addStoredBlock: blockMap updated: 10.251.201.204:50010 is added to blk_5964581082268101985 size 67108864
081111 073405 32 INFO dfs.FSNamesystem: BLOCK* NameSystem.addStoredBlock: blockMap updated: 10.251.71.68:50010 is added to blk_6143897711405731093 size 67108864
081111 073405 32 INFO dfs.FSNamesystem: BLOCK* NameSystem.allocateBlock: /user/root/rand6/_temporary/_task_200811101024_0013_m_001393_0/part-01393. blk_3150748799433046377
081111 073405 32 INFO dfs.FSNamesystem: BLOCK* NameSystem.allocateBlock: /user/root/rand6/_temporary/_task_200811101024_0013_m_001496_0/part-01496. blk_8147362312721522016
081111 073405 33 INFO dfs.FSNamesystem: BLOCK* NameSystem.addStoredBlock: blockMap updated: 10.251.30.179:50010 is added to blk_1032690201263700339 size 67108864
081111 073405 33 INFO dfs.FSNamesystem: BLOCK* NameSystem.allocateBlock: /user/root/rand6/_temporary/_task_200811101024_0013_m_001490_0/part-01490. blk_-2888581395226719100
081111 073405 34 INFO dfs.FSNamesystem: BLOCK* NameSystem.addStoredBlock: blockMap updated: 10.251.126.83:50010 is added to blk_-8423426086786525696 size 67108864
081111 073405 34 INFO dfs.FSNamesystem: BLOCK* NameSystem.addStoredBlock: blockMap updated: 10.251.39.242:50010 is added to blk_8923673194867001749 size 67108864
081111 073405 34 INFO dfs.FSNamesystem: BLOCK* NameSystem.allocateBlock: /user/root/rand6/_temporary/_task_200811101024_0013_m_001248_0/part-01248. blk_5641338742106131823
081111 073405 35 INFO dfs.FSNamesystem: BLOCK* NameSystem.addStoredBlock: blockMap updated: 10.250.7.146:50010 is added to blk_1032690201263700339 size 67108864
081111 073406 17850 INFO dfs.DataNode$PacketResponder: PacketResponder 2 for block blk_8325752418615195520 terminating
081111 073406 17850 INFO dfs.DataNode$PacketResponder: Received block blk_8325752418615195520 of size 67108864 from /10.251.123.33
081111 073406 17861 INFO dfs.DataNode$DataXceiver: Receiving block blk_4975302220713201720 src: /10.251.123.33:47463 dest: /10.251.123.33:50010
081111 073406 22857 INFO dfs.DataNode$PacketResponder: PacketResponder 1 for block blk_-5350620331211730724 terminating
081111 073406 22857 INFO dfs.DataNode$PacketResponder: Received block blk_-5350620331211730724 of size 67108864 from /10.251.90.64
081111 073406 22863 INFO dfs.DataNode$PacketResponder: PacketResponder 0 for block blk_2343094396262623856 terminating
081111 073406 22863 INFO dfs.DataNode$PacketResponder: Received block blk_2343094396262623856 of size 67108864 from /10.251.30.85
081111 073406 22895 INFO dfs.DataNode$PacketResponder: PacketResponder 2 for block blk_-367381213584241182 terminating
081111 073406 22895 INFO dfs.DataNode$PacketResponder: Received block blk_-367381213584241182 of size 67108864 from /10.251.203.80
081111 073406 22912 INFO dfs.DataNode$DataXceiver: Receiving block blk_-7951454856855972545 src: /10.251.203.80:34935 dest: /10.251.203.80:50010
081111 073406 22921 INFO dfs.DataNode$DataXceiver: Receiving block blk_3150748799433046377 src: /10.251.70.37:41288 dest: /10.251.70.37:50010
081111 073406 22961 INFO dfs.DataNode$PacketResponder: PacketResponder 2 for block blk_2542446443914499839 terminating
081111 073406 22961 INFO dfs.DataNode$PacketResponder: Received block blk_2542446443914499839 of size 67108864 from /10.251.123.195
081111 073406 22964 INFO dfs.DataNode$PacketResponder: PacketResponder 1 for block blk_-6954257483704918166 terminating
081111 073406 22964 INFO dfs.DataNode$PacketResponder: Received block blk_-6954257483704918166 of size 67108864 from /10.251.214.112
081111 073406 22977 INFO dfs.DataNode$DataXceiver: Receiving block blk_8147362312721522016 src: /10.251.123.195:59452 dest: /10.251.123.195:50010
081111 073406 23017 INFO dfs.DataNode$DataXceiver: Receiving block blk_-5234430754579139080 src: /10.251.214.112:36067 dest: /10.251.214.112:50010
081111 073406 23073 INFO dfs.DataNode$PacketResponder: PacketResponder 0 for block blk_-4960502580007190210 terminating
081111 073406 23073 INFO dfs.DataNode$PacketResponder: Received block blk_-4960502580007190210 of size 3555214 from /10.250.7.32
081111 073406 23096 INFO dfs.DataNode$DataXceiver: Receiving block blk_-5234430754579139080 src: /10.251.202.134:41012 dest: /10.251.202.134:50010
081111 073406 23101 INFO dfs.DataNode$PacketResponder: PacketResponder 0 for block blk_-2784200023761671900 terminating
081111 073406 23101 INFO dfs.DataNode$PacketResponder: Received block blk_-2784200023761671900 of size 67108864 from /10.250.10.223
081111 073406 23140 INFO dfs.DataNode$PacketResponder: PacketResponder 2 for block blk_-8310554294841246175 terminating
081111 073406 23140 INFO dfs.DataNode$PacketResponder: Received block blk_-8310554294841246175 of size 67108864 from /10.251.123.132
081111 073406 23151 INFO dfs.DataNode$PacketResponder: PacketResponder 0 for block blk_5309198966563934359 terminating
081111 073406 23151 INFO dfs.DataNode$PacketResponder: Received block blk_5309198966563934359 of size 67108864 from /10.251.30.6
081111 073406 23157 INFO dfs.DataNode$DataXceiver: Receiving block blk_-7956706386727629553 src: /10.251.123.132:58117 dest: /10.251.123.132:50010
081111 073406 23159 INFO dfs.DataNode$DataXceiver: Receiving block blk_-1278903586467068300 src: /10.251.123.99:60580 dest: /10.251.123.99:50010
081111 073406 23161 INFO dfs.DataNode$PacketResponder: PacketResponder 2 for block blk_-5350620331211730724 terminating
081111 073406 23161 INFO dfs.DataNode$PacketResponder: Received block blk_-5350620331211730724 of size 67108864 from /10.251.90.64
081111 073406 23162 INFO dfs.DataNode$DataXceiver: Receiving block blk_5139689250936318560 src: /10.250.13.240:47655 dest: /10.250.13.240:50010
081111 073406 23174 INFO dfs.DataNode$DataXceiver: Receiving block blk_3411613766980786629 src: /10.251.75.163:36402 dest: /10.251.75.163:50010
081111 073406 23179 INFO dfs.DataNode$PacketResponder: PacketResponder 1 for block blk_5309198966563934359 terminating
081111 073406 23179 INFO dfs.DataNode$PacketResponder: Received block blk_5309198966563934359 of size 67108864 from /10.251.42.16
081111 073406 23181 INFO dfs.DataNode$DataXceiver: Receiving block blk_2619659743053374584 src: /10.251.199.245:40906 dest: /10.251.199.245:50010
081111 073406 23188 INFO dfs.DataNode$PacketResponder: PacketResponder 0 for block blk_-5442867938594213179 terminating
081111 073406 23188 INFO dfs.DataNode$PacketResponder: Received block blk_-5442867938594213179 of size 67108864 from /10.251.26.8
081111 073406 23198 INFO dfs.DataNode$DataXceiver: Receiving block blk_-8707082270769073232 src: /10.251.71.240:40061 dest: /10.251.71.240:50010
081111 073406 23200 INFO dfs.DataNode$PacketResponder: PacketResponder 2 for block blk_-2784200023761671900 terminating
081111 073406 23200 INFO dfs.DataNode$PacketResponder: Received block blk_-2784200023761671900 of size 67108864 from /10.251.125.193
081111 073406 23235 INFO dfs.DataNode$DataXceiver: Receiving block blk_-4843134819010299366 src: /10.251.123.99:52719 dest: /10.251.123.99:50010
081111 073406 23255 INFO dfs.DataNode$DataXceiver: Receiving block blk_-553494375369848466 src: /10.250.10.213:48372 dest: /10.250.10.213:50010
081111 073406 23265 INFO dfs.DataNode$PacketResponder: PacketResponder 0 for block blk_-367381213584241182 terminating
081111 073406 23265 INFO dfs.DataNode$PacketResponder: Received block blk_-367381213584241182 of size 67108864 from /10.251.30.85
081111 073406 23282 INFO dfs.DataNode$DataXceiver: Receiving block blk_-4424733667657670078 src: /10.250.19.227:34725 dest: /10.250.19.227:50010
081111 073406 23325 INFO dfs.DataNode$PacketResponder: PacketResponder 1 for block blk_-2784200023761671900 terminating
081111 073406 23325 INFO dfs.DataNode$PacketResponder: Received block blk_-2784200023761671900 of size 67108864 from /10.251.125.193
081111 073406 23327 INFO dfs.DataNode$PacketResponder: PacketResponder 1 for block blk_-3006647674003722574 terminating
081111 073406 23327 INFO dfs.DataNode$PacketResponder: Received block blk_-3006647674003722574 of size 67108864 from /10.251.43.115
081111 073406 23328 INFO dfs.DataNode$DataXceiver: Receiving block blk_3411613766980786629 src: /10.250.15.101:41555 dest: /10.250.15.101:50010
081111 073406 23334 INFO dfs.DataNode$PacketResponder: PacketResponder 2 for block blk_-5442867938594213179 terminating
081111 073406 23334 INFO dfs.DataNode$PacketResponder: Received block blk_-5442867938594213179 of size 67108864 from /10.251.214.130
081111 073406 23336 INFO dfs.DataNode$PacketResponder: PacketResponder 1 for block blk_-559980931049180521 terminating
081111 073406 23336 INFO dfs.DataNode$PacketResponder: Received block blk_-559980931049180521 of size 67108864 from /10.251.214.112
081111 073406 23340 INFO dfs.DataNode$DataXceiver: Receiving block blk_-7473853465817392191 src: /10.251.214.130:59783 dest: /10.251.214.130:50010
081111 073406 23348 INFO dfs.DataNode$PacketResponder: PacketResponder 1 for block blk_-8310554294841246175 terminating
081111 073406 23348 INFO dfs.DataNode$PacketResponder: Received block blk_-8310554294841246175 of size 67108864 from /10.251.123.132
081111 073406 23351 INFO dfs.DataNode$DataXceiver: Receiving block blk_3642754554880845736 src: /10.250.6.223:56280 dest: /10.250.6.223:50010
081111 073406 23360 INFO dfs.DataNode$DataXceiver: Receiving block blk_-553494375369848466 src: /10.251.71.97:34323 dest: /10.251.71.97:50010
081111 073406 23391 INFO dfs.DataNode$PacketResponder: PacketResponder 1 for block blk_-3585573312481733012 terminating
081111 073406 23391 INFO dfs.DataNode$PacketResponder: Received block blk_-3585573312481733012 of size 67108864 from /10.250.6.4
081111 073406 23395 INFO dfs.DataNode$PacketResponder: PacketResponder 0 for block blk_-3759961082510141383 terminating
081111 073406 23395 INFO dfs.DataNode$PacketResponder: Received block blk_-3759961082510141383 of size 67108864 from /10.251.66.102
081111 073406 23397 INFO dfs.DataNode$PacketResponder: PacketResponder 1 for block blk_-4960502580007190210 terminating
081111 073406 23397 INFO dfs.DataNode$PacketResponder: Received block blk_-4960502580007190210 of size 3555214 from /10.251.110.196
081111 073406 23399 INFO dfs.DataNode$PacketResponder: PacketResponder 1 for block blk_8325752418615195520 terminating
081111 073406 23399 INFO dfs.DataNode$PacketResponder: Received block blk_8325752418615195520 of size 67108864 from /10.251.123.33
081111 073406 23402 INFO dfs.DataNode$PacketResponder: PacketResponder 1 for block blk_1502795304545675038 terminating
081111 073406 23402 INFO dfs.DataNode$PacketResponder: Received block blk_1502795304545675038 of size 67108864 from /10.251.75.163
081111 073406 23412 INFO dfs.DataNode$DataXceiver: Receiving block blk_-7951454856855972545 src: /10.251.38.53:49500 dest: /10.251.38.53:50010
081111 073406 23425 INFO dfs.DataNode$PacketResponder: PacketResponder 1 for block blk_-3759961082510141383 terminating
081111 073406 23425 INFO dfs.DataNode$PacketResponder: Received block blk_-3759961082510141383 of size 67108864 from /10.250.19.227
081111 073406 23426 INFO dfs.DataNode$PacketResponder: PacketResponder 2 for block blk_-3759961082510141383 terminating
081111 073406 23426 INFO dfs.DataNode$PacketResponder: Received block blk_-3759961082510141383 of size 67108864 from /10.250.19.227
081111 073406 23435 INFO dfs.DataNode$PacketResponder: PacketResponder 2 for block blk_-3006647674003722574 terminating
081111 073406 23435 INFO dfs.DataNode$PacketResponder: Received block blk_-3006647674003722574 of size 67108864 from /10.251.43.115
081111 073406 23441 INFO dfs.DataNode$DataXceiver: Receiving block blk_-4424733667657670078 src: /10.250.19.227:59101 dest: /10.250.19.227:50010
081111 073406 23442 INFO dfs.DataNode$DataXceiver: Receiving block blk_7475680242139601697 src: /10.250.7.96:40932 dest: /10.250.7.96:50010
081111 073406 23446 INFO dfs.DataNode$DataXceiver: Receiving block blk_-7407182797425504196 src: /10.251.43.115:56213 dest: /10.251.43.115:50010
081111 073406 23463 INFO dfs.DataNode$DataXceiver: Receiving block blk_3150748799433046377 src: /10.251.194.102:33255 dest: /10.251.194.102:50010
081111 073406 23464 INFO dfs.DataNode$DataXceiver: Receiving block blk_-7951454856855972545 src: /10.251.203.80:50634 dest: /10.251.203.80:50010
081111 073406 23465 INFO dfs.DataNode$DataXceiver: Receiving block blk_4975302220713201720 src: /10.251.39.179:55600 dest: /10.251.39.179:50010
081111 073406 23478 INFO dfs.DataNode$DataXceiver: Receiving block blk_-7956706386727629553 src: /10.251.123.132:54189 dest: /10.251.123.132:50010
081111 073406 23497 INFO dfs.DataNode$DataXceiver: Receiving block blk_8873619302713839801 src: /10.251.75.163:33093 dest: /10.251.75.163:50010
081111 073406 23498 INFO dfs.DataNode$DataXceiver: Receiving block blk_4975302220713201720 src: /10.251.123.33:42445 dest: /10.251.123.33:50010
081111 073406 23515 INFO dfs.DataNode$DataXceiver: Receiving block blk_4087755873764474806 src: /10.251.194.213:38539 dest: /10.251.194.213:50010
081111 073406 23525 INFO dfs.DataNode$PacketResponder: PacketResponder 0 for block blk_-3006647674003722574 terminating
081111 073406 23525 INFO dfs.DataNode$PacketResponder: PacketResponder 2 for block blk_-559980931049180521 terminating
081111 073406 23525 INFO dfs.DataNode$PacketResponder: Received block blk_-3006647674003722574 of size 67108864 from /10.251.111.130
081111 073406 23525 INFO dfs.DataNode$PacketResponder: Received block blk_-559980931049180521 of size 67108864 from /10.251.214.112
081111 073406 23528 INFO dfs.DataNode$PacketResponder: PacketResponder 2 for block blk_-6954257483704918166 terminating
081111 073406 23528 INFO dfs.DataNode$PacketResponder: Received block blk_-6954257483704918166 of size 67108864 from /10.251.214.112
081111 073406 23533 INFO dfs.DataNode$DataXceiver: Receiving block blk_7475680242139601697 src: /10.250.19.227:44864 dest: /10.250.19.227:50010
081111 073406 23534 INFO dfs.DataNode$DataXceiver: Receiving block blk_-5234430754579139080 src: /10.251.214.112:36979 dest: /10.251.214.112:50010
081111 073406 23535 INFO dfs.DataNode$DataXceiver: Receiving block blk_7882916427077883663 src: /10.251.214.112:36980 dest: /10.251.214.112:50010
081111 073406 23535 INFO dfs.DataNode$PacketResponder: PacketResponder 2 for block blk_-4960502580007190210 terminating
081111 073406 23535 INFO dfs.DataNode$PacketResponder: Received block blk_-4960502580007190210 of size 3555214 from /10.251.110.196
081111 073406 23541 INFO dfs.DataNode$PacketResponder: PacketResponder 0 for block blk_-8310554294841246175 terminating
081111 073406 23541 INFO dfs.DataNode$PacketResponder: Received block blk_-8310554294841246175 of size 67108864 from /10.250.10.6
081111 073406 23550 INFO dfs.DataNode$PacketResponder: PacketResponder 1 for block blk_-5442867938594213179 terminating
081111 073406 23550 INFO dfs.DataNode$PacketResponder: Received block blk_-5442867938594213179 of size 67108864 from /10.251.214.130
081111 073406 23568 INFO dfs.DataNode$PacketResponder: PacketResponder 0 for block blk_1502795304545675038 terminating
081111 073406 23568 INFO dfs.DataNode$PacketResponder: Received block blk_1502795304545675038 of size 67108864 from /10.251.37.240
081111 073406 23580 INFO dfs.DataNode$DataXceiver: Receiving block blk_7432049856376764616 src: /10.251.39.209:51945 dest: /10.251.39.209:50010
081111 073406 23583 INFO dfs.DataNode$PacketResponder: PacketResponder 0 for block blk_-559980931049180521 terminating
081111 073406 23583 INFO dfs.DataNode$PacketResponder: Received block blk_-559980931049180521 of size 67108864 from /10.250.7.244
081111 073406 23599 INFO dfs.DataNode$PacketResponder: PacketResponder 2 for block blk_1502795304545675038 terminating
081111 073406 23599 INFO dfs.DataNode$PacketResponder: Received block blk_1502795304545675038 of size 67108864 from /10.251.75.163
081111 073406 23604 INFO dfs.DataNode$DataXceiver: Receiving block blk_3411613766980786629 src: /10.250.15.101:47145 dest: /10.250.15.101:50010
081111 073406 23605 INFO dfs.DataNode$DataXceiver: Receiving block blk_8873619302713839801 src: /10.251.75.163:57086 dest: /10.251.75.163:50010
081111 073406 26 INFO dfs.FSNamesystem: BLOCK* NameSystem.addStoredBlock: blockMap updated: 10.250.7.32:50010 is added to blk_-4960502580007190210 size 3555214
081111 073406 26 INFO dfs.FSNamesystem: BLOCK* NameSystem.addStoredBlock: blockMap updated: 10.251.125.193:50010 is added to blk_-2784200023761671900 size 67108864
081111 073406 26 INFO dfs.FSNamesystem: BLOCK* NameSystem.addStoredBlock: blockMap updated: 10.251.214.112:50010 is added to blk_-6954257483704918166 size 67108864
081111 073406 26 INFO dfs.FSNamesystem: BLOCK* NameSystem.allocateBlock: /user/root/rand6/_temporary/_task_200811101024_0013_m_001470_0/part-01470. blk_-5234430754579139080
081111 073406 27 INFO dfs.FSNamesystem: BLOCK* NameSystem.addStoredBlock: blockMap updated: 10.251.111.130:50010 is added to blk_-3006647674003722574 size 67108864
081111 073406 27 INFO dfs.FSNamesystem: BLOCK* NameSystem.addStoredBlock: blockMap updated: 10.251.214.112:50010 is added to blk_-559980931049180521 size 67108864
081111 073406 27 INFO dfs.FSNamesystem: BLOCK* NameSystem.addStoredBlock: blockMap updated: 10.251.90.64:50010 is added to blk_-5350620331211730724 size 67108864
081111 073406 27 INFO dfs.FSNamesystem: BLOCK* NameSystem.allocateBlock: /user/root/rand6/_temporary/_task_200811101024_0013_m_001437_0/part-01437. blk_-4424733667657670078
081111 073406 27 INFO dfs.FSNamesystem: BLOCK* NameSystem.allocateBlock: /user/root/rand6/_temporary/_task_200811101024_0013_m_001529_0/part-01529. blk_-7951454856855972545
081111 073406 28 INFO dfs.FSNamesystem: BLOCK* NameSystem.addStoredBlock: blockMap updated: 10.250.10.6:50010 is added to blk_-8310554294841246175 size 67108864
081111 073406 28 INFO dfs.FSNamesystem: BLOCK* NameSystem.allocateBlock: /user/root/rand6/_temporary/_task_200811101024_0013_m_001299_0/part-01299. blk_-7407182797425504196
081111 073406 28 INFO dfs.FSNamesystem: BLOCK* NameSystem.allocateBlock: /user/root/rand6/_temporary/_task_200811101024_0013_m_001317_0/part-01317. blk_-7956706386727629553
081111 073406 28 INFO dfs.FSNamesystem: BLOCK* NameSystem.allocateBlock: /user/root/rand6/_temporary/_task_200811101024_0013_m_001524_0/part-01524. blk_2379326093458338237
081111 073406 29 INFO dfs.FSNamesystem: BLOCK* NameSystem.addStoredBlock: blockMap updated: 10.251.107.227:50010 is added to blk_-2784200023761671900 size 67108864
081111 073406 29 INFO dfs.FSNamesystem: BLOCK* NameSystem.addStoredBlock: blockMap updated: 10.251.37.240:50010 is added to blk_1502795304545675038 size 67108864
081111 073406 29 INFO dfs.FSNamesystem: BLOCK* NameSystem.addStoredBlock: blockMap updated: 10.251.66.102:50010 is added to blk_-3759961082510141383 size 67108864
081111 073406 30 INFO dfs.FSNamesystem: BLOCK* NameSystem.addStoredBlock: blockMap updated: 10.251.123.132:50010 is added to blk_-8310554294841246175 size 67108864
081111 073406 30 INFO dfs.FSNamesystem: BLOCK* NameSystem.addStoredBlock: blockMap updated: 10.251.123.33:50010 is added to blk_8325752418615195520 size 67108864
081111 073406 30 INFO dfs.FSNamesystem: BLOCK* NameSystem.addStoredBlock: blockMap updated: 10.251.30.85:50010 is added to blk_-367381213584241182 size 67108864
081111 073406 30 INFO dfs.FSNamesystem: BLOCK* NameSystem.addStoredBlock: blockMap updated: 10.251.91.229:50010 is added to blk_-8310554294841246175 size 67108864
081111 073406 30 INFO dfs.FSNamesystem: BLOCK* NameSystem.allocateBlock: /user/root/rand6/_temporary/_task_200811101024_0013_m_001480_0/part-01480. blk_7882916427077883663
081111 073406 31 INFO dfs.FSNamesystem: BLOCK* NameSystem.addStoredBlock: blockMap updated: 10.251.203.166:50010 is added to blk_-4960502580007190210 size 3555214
081111 073406 31 INFO dfs.FSNamesystem: BLOCK* NameSystem.addStoredBlock: blockMap updated: 10.251.71.240:50010 is added to blk_1502795304545675038 size 67108864
081111 073406 31 INFO dfs.FSNamesystem: BLOCK* NameSystem.addStoredBlock: blockMap updated: 10.251.75.79:50010 is added to blk_-559980931049180521 size 67108864
081111 073406 31 INFO dfs.FSNamesystem: BLOCK* NameSystem.allocateBlock: /user/root/rand6/_temporary/_task_200811101024_0013_m_001455_0/part-01455. blk_8873619302713839801
081111 073406 32 INFO dfs.FSNamesystem: BLOCK* NameSystem.addStoredBlock: blockMap updated: 10.250.13.240:50010 is added to blk_8325752418615195520 size 67108864
081111 073406 32 INFO dfs.FSNamesystem: BLOCK* NameSystem.addStoredBlock: blockMap updated: 10.251.203.80:50010 is added to blk_-367381213584241182 size 67108864
081111 073406 32 INFO dfs.FSNamesystem: BLOCK* NameSystem.addStoredBlock: blockMap updated: 10.251.75.163:50010 is added to blk_1502795304545675038 size 67108864
081111 073406 32 INFO dfs.FSNamesystem: BLOCK* NameSystem.allocateBlock: /user/root/rand6/_temporary/_task_200811101024_0013_m_001473_0/part-01473. blk_-7473853465817392191
081111 073406 33 INFO dfs.FSNamesystem: BLOCK* NameSystem.addStoredBlock: blockMap updated: 10.250.7.244:50010 is added to blk_-559980931049180521 size 67108864
081111 073406 33 INFO dfs.FSNamesystem: BLOCK* NameSystem.addStoredBlock: blockMap updated: 10.251.110.196:50010 is added to blk_-4960502580007190210 size 3555214
081111 073406 33 INFO dfs.FSNamesystem: BLOCK* NameSystem.addStoredBlock: blockMap updated: 10.251.202.181:50010 is added to blk_2343094396262623856 size 67108864
081111 073406 33 INFO dfs.FSNamesystem: BLOCK* NameSystem.addStoredBlock: blockMap updated: 10.251.202.181:50010 is added to blk_-5350620331211730724 size 67108864
081111 073406 33 INFO dfs.FSNamesystem: BLOCK* NameSystem.addStoredBlock: blockMap updated: 10.251.26.8:50010 is added to blk_-5442867938594213179 size 67108864
081111 073406 33 INFO dfs.FSNamesystem: BLOCK* NameSystem.allocateBlock: /user/root/rand6/_temporary/_task_200811101024_0013_m_001414_0/part-01414. blk_4975302220713201720
081111 073406 34 INFO dfs.FSNamesystem: BLOCK* NameSystem.addStoredBlock: blockMap updated: 10.250.10.223:50010 is added to blk_-2784200023761671900 size 67108864
081111 073406 34 INFO dfs.FSNamesystem: BLOCK* NameSystem.addStoredBlock: blockMap updated: 10.250.14.143:50010 is added to blk_-367381213584241182 size 67108864
081111 073406 34 INFO dfs.FSNamesystem: BLOCK* NameSystem.addStoredBlock: blockMap updated: 10.251.123.195:50010 is added to blk_2542446443914499839 size 67108864
081111 073406 34 INFO dfs.FSNamesystem: BLOCK* NameSystem.addStoredBlock: blockMap updated: 10.251.123.195:50010 is added to blk_-6954257483704918166 size 67108864
081111 073406 34 INFO dfs.FSNamesystem: BLOCK* NameSystem.addStoredBlock: blockMap updated: 10.251.43.115:50010 is added to blk_-3006647674003722574 size 67108864
081111 073406 34 INFO dfs.FSNamesystem: BLOCK* NameSystem.addStoredBlock: blockMap updated: 10.251.65.237:50010 is added to blk_-3759961082510141383 size 67108864
081111 073406 34 INFO dfs.FSNamesystem: BLOCK* NameSystem.addStoredBlock: blockMap updated: 10.251.73.220:50010 is added to blk_5309198966563934359 size 67108864
081111 073406 35 INFO dfs.FSNamesystem: BLOCK* NameSystem.addStoredBlock: blockMap updated: 10.250.13.240:50010 is added to blk_-3585573312481733012 size 67108864
081111 073406 35 INFO dfs.FSNamesystem: BLOCK* NameSystem.addStoredBlock: blockMap updated: 10.250.19.227:50010 is added to blk_-3759961082510141383 size 67108864
081111 073406 35 INFO dfs.FSNamesystem: BLOCK* NameSystem.addStoredBlock: blockMap updated: 10.251.214.130:50010 is added to blk_-5442867938594213179 size 67108864
081111 073406 35 INFO dfs.FSNamesystem: BLOCK* NameSystem.addStoredBlock: blockMap updated: 10.251.30.6:50010 is added to blk_5309198966563934359 size 67108864
081111 073406 35 INFO dfs.FSNamesystem: BLOCK* NameSystem.addStoredBlock: blockMap updated: 10.251.39.192:50010 is added to blk_-5442867938594213179 size 67108864
081111 073406 8553 INFO dfs.DataNode$PacketResponder: PacketResponder 1 for block blk_2343094396262623856 terminating
081111 073406 8553 INFO dfs.DataNode$PacketResponder: Received block blk_2343094396262623856 of size 67108864 from /10.251.126.227
081111 073406 8555 INFO dfs.DataNode$PacketResponder: PacketResponder 1 for block blk_-367381213584241182 terminating
081111 073406 8555 INFO dfs.DataNode$PacketResponder: Received block blk_-367381213584241182 of size 67108864 from /10.251.203.80
081111 073407 13 INFO dfs.DataBlockScanner: Verification succeeded for blk_-2989700461691511013
081111 073407 17863 INFO dfs.DataNode$DataXceiver: Receiving block blk_8147362312721522016 src: /10.251.31.85:56947 dest: /10.251.31.85:50010
081111 073407 22114 INFO dfs.DataNode$PacketResponder: PacketResponder 0 for block blk_-7750228703536169523 terminating
081111 073407 22114 INFO dfs.DataNode$PacketResponder: Received block blk_-7750228703536169523 of size 67108864 from /10.251.67.4
081111 073407 22839 INFO dfs.DataNode$DataXceiver: Receiving block blk_-7407182797425504196 src: /10.250.6.191:43189 dest: /10.250.6.191:50010
081111 073407 22858 INFO dfs.DataNode$DataXceiver: Receiving block blk_7315454658512280622 src: /10.251.39.242:41296 dest: /10.251.39.242:50010
081111 073407 23075 INFO dfs.DataNode$PacketResponder: PacketResponder 2 for block blk_-7750228703536169523 terminating
081111 073407 23075 INFO dfs.DataNode$PacketResponder: Received block blk_-7750228703536169523 of size 67108864 from /10.250.14.224
081111 073407 23083 INFO dfs.DataNode$DataXceiver: Receiving block blk_1111484771707959336 src: /10.250.14.224:33461 dest: /10.250.14.224:50010
081111 073407 23157 INFO dfs.DataNode$PacketResponder: PacketResponder 0 for block blk_192209024284812768 terminating
081111 073407 23157 INFO dfs.DataNode$PacketResponder: Received block blk_192209024284812768 of size 67108864 from /10.251.107.196
081111 073407 23168 INFO dfs.DataNode$PacketResponder: PacketResponder 1 for block blk_966528670482980248 terminating
081111 073407 23168 INFO dfs.DataNode$PacketResponder: Received block blk_966528670482980248 of size 67108864 from /10.251.122.65
081111 073407 23169 INFO dfs.DataNode$PacketResponder: PacketResponder 2 for block blk_-3483435762236185300 terminating
081111 073407 23169 INFO dfs.DataNode$PacketResponder: Received block blk_-3483435762236185300 of size 67108864 from /10.250.11.85
081111 073407 23176 INFO dfs.DataNode$DataXceiver: Receiving block blk_571408198764033610 src: /10.251.90.64:47405 dest: /10.251.90.64:50010
081111 073407 23180 INFO dfs.DataNode$DataXceiver: Receiving block blk_-3883600439716342365 src: /10.250.11.85:42997 dest: /10.250.11.85:50010
081111 073407 23184 INFO dfs.DataNode$PacketResponder: PacketResponder 1 for block blk_-1113529844255343444 terminating
081111 073407 23184 INFO dfs.DataNode$PacketResponder: Received block blk_-1113529844255343444 of size 67108864 from /10.250.10.213
081111 073407 23209 INFO dfs.DataNode$DataXceiver: Receiving block blk_2379326093458338237 src: /10.251.125.193:60377 dest: /10.251.125.193:50010
081111 073407 23219 INFO dfs.DataNode$DataXceiver: Receiving block blk_8873619302713839801 src: /10.250.7.230:55682 dest: /10.250.7.230:50010
081111 073407 23245 INFO dfs.DataNode$PacketResponder: PacketResponder 2 for block blk_-2214715725667762234 terminating
081111 073407 23245 INFO dfs.DataNode$PacketResponder: Received block blk_-2214715725667762234 of size 67108864 from /10.250.17.177
081111 073407 23250 INFO dfs.DataNode$PacketResponder: PacketResponder 1 for block blk_-3483435762236185300 terminating
081111 073407 23250 INFO dfs.DataNode$PacketResponder: Received block blk_-3483435762236185300 of size 67108864 from /10.250.11.85
081111 073407 23267 INFO dfs.DataNode$PacketResponder: PacketResponder 2 for block blk_2343094396262623856 terminating
081111 073407 23267 INFO dfs.DataNode$PacketResponder: Received block blk_2343094396262623856 of size 67108864 from /10.251.126.227
081111 073407 23272 INFO dfs.DataNode$PacketResponder: PacketResponder 1 for block blk_2014263734420610408 terminating
081111 073407 23272 INFO dfs.DataNode$PacketResponder: Received block blk_2014263734420610408 of size 67108864 from /10.250.11.100
081111 073407 23279 INFO dfs.DataNode$DataXceiver: Receiving block blk_571408198764033610 src: /10.251.70.37:36401 dest: /10.251.70.37:50010
081111 073407 23285 INFO dfs.DataNode$PacketResponder: PacketResponder 0 for block blk_-3511610531813768318 terminating
081111 073407 23285 INFO dfs.DataNode$PacketResponder: Received block blk_-3511610531813768318 of size 67108864 from /10.251.70.211
081111 073407 23288 INFO dfs.DataNode$PacketResponder: PacketResponder 0 for block blk_2014263734420610408 terminating
081111 073407 23288 INFO dfs.DataNode$PacketResponder: PacketResponder 2 for block blk_966528670482980248 terminating
081111 073407 23288 INFO dfs.DataNode$PacketResponder: Received block blk_2014263734420610408 of size 67108864 from /10.251.70.5
081111 073407 23288 INFO dfs.DataNode$PacketResponder: Received block blk_966528670482980248 of size 67108864 from /10.251.122.65
081111 073407 23291 INFO dfs.DataNode$DataXceiver: Receiving block blk_3714254067457706495 src: /10.251.122.65:37569 dest: /10.251.122.65:50010
081111 073407 23305 INFO dfs.DataNode$PacketResponder: PacketResponder 0 for block blk_-1113529844255343444 terminating
081111 073407 23305 INFO dfs.DataNode$PacketResponder: Received block blk_-1113529844255343444 of size 67108864 from /10.250.7.146
081111 073407 23306 INFO dfs.DataNode$DataXceiver: Receiving block blk_-3883600439716342365 src: /10.250.11.85:45927 dest: /10.250.11.85:50010
081111 073407 23309 INFO dfs.DataNode$DataXceiver: Receiving block blk_-7956706386727629553 src: /10.251.91.15:46687 dest: /10.251.91.15:50010
081111 073407 23311 INFO dfs.DataNode$DataXceiver: Receiving block blk_1111484771707959336 src: /10.250.14.224:58731 dest: /10.250.14.224:50010
081111 073407 23311 INFO dfs.DataNode$PacketResponder: PacketResponder 2 for block blk_192209024284812768 terminating
081111 073407 23311 INFO dfs.DataNode$PacketResponder: Received block blk_192209024284812768 of size 67108864 from /10.251.122.38
081111 073407 23320 INFO dfs.DataNode$DataXceiver: Receiving block blk_-6562087612221041699 src: /10.251.122.38:36115 dest: /10.251.122.38:50010
081111 073407 23341 INFO dfs.DataNode$DataXceiver: Receiving block blk_-6562087612221041699 src: /10.251.122.38:53394 dest: /10.251.122.38:50010
081111 073407 23351 INFO dfs.DataNode$PacketResponder: PacketResponder 0 for block blk_-6926293346701484702 terminating
081111 073407 23351 INFO dfs.DataNode$PacketResponder: Received block blk_-6926293346701484702 of size 67108864 from /10.251.203.129
081111 073407 23356 INFO dfs.DataNode$PacketResponder: PacketResponder 2 for block blk_-3585573312481733012 terminating
081111 073407 23356 INFO dfs.DataNode$PacketResponder: Received block blk_-3585573312481733012 of size 67108864 from /10.250.6.4
081111 073407 23376 INFO dfs.DataNode$PacketResponder: PacketResponder 1 for block blk_192209024284812768 terminating
081111 073407 23376 INFO dfs.DataNode$PacketResponder: Received block blk_192209024284812768 of size 67108864 from /10.251.122.38
081111 073407 23377 INFO dfs.DataNode$PacketResponder: PacketResponder 1 for block blk_-2214715725667762234 terminating
081111 073407 23377 INFO dfs.DataNode$PacketResponder: Received block blk_-2214715725667762234 of size 67108864 from /10.250.17.177
081111 073407 23381 INFO dfs.DataNode$PacketResponder: PacketResponder 0 for block blk_966528670482980248 terminating
081111 073407 23381 INFO dfs.DataNode$PacketResponder: PacketResponder 1 for block blk_-7750228703536169523 terminating
081111 073407 23381 INFO dfs.DataNode$PacketResponder: Received block blk_-7750228703536169523 of size 67108864 from /10.250.14.224
081111 073407 23381 INFO dfs.DataNode$PacketResponder: Received block blk_966528670482980248 of size 67108864 from /10.250.11.85
081111 073407 23395 INFO dfs.DataNode$PacketResponder: PacketResponder 1 for block blk_-4453794278794179526 terminating
081111 073407 23395 INFO dfs.DataNode$PacketResponder: Received block blk_-4453794278794179526 of size 67108864 from /10.251.70.211
081111 073407 23403 INFO dfs.DataNode$PacketResponder: PacketResponder 0 for block blk_-2214715725667762234 terminating
081111 073407 23403 INFO dfs.DataNode$PacketResponder: Received block blk_-2214715725667762234 of size 67108864 from /10.251.75.143
081111 073407 23412 INFO dfs.DataNode$DataXceiver: Receiving block blk_1263783620298446438 src: /10.251.202.181:45244 dest: /10.251.202.181:50010
081111 073407 23412 INFO dfs.DataNode$PacketResponder: PacketResponder 2 for block blk_-4453794278794179526 terminating
081111 073407 23412 INFO dfs.DataNode$PacketResponder: Received block blk_-4453794278794179526 of size 67108864 from /10.251.70.211
081111 073407 23416 INFO dfs.DataNode$DataXceiver: Receiving block blk_7882916427077883663 src: /10.250.6.191:45693 dest: /10.250.6.191:50010
081111 073407 23422 INFO dfs.DataNode$PacketResponder: PacketResponder 1 for block blk_-3511610531813768318 terminating
081111 073407 23422 INFO dfs.DataNode$PacketResponder: Received block blk_-3511610531813768318 of size 67108864 from /10.251.127.47
081111 073407 23445 INFO dfs.DataNode$DataXceiver: Receiving block blk_2379326093458338237 src: /10.251.125.193:45713 dest: /10.251.125.193:50010
081111 073407 23454 INFO dfs.DataNode$PacketResponder: PacketResponder 1 for block blk_-3651864023230092745 terminating
081111 073407 23454 INFO dfs.DataNode$PacketResponder: Received block blk_-3651864023230092745 of size 67108864 from /10.251.39.242
081111 073407 23467 INFO dfs.DataNode$DataXceiver: Receiving block blk_571408198764033610 src: /10.251.90.64:52533 dest: /10.251.90.64:50010
081111 073407 23474 INFO dfs.DataNode$DataXceiver: Receiving block blk_8147362312721522016 src: /10.251.123.195:57428 dest: /10.251.123.195:50010
081111 073407 23474 INFO dfs.DataNode$PacketResponder: PacketResponder 0 for block blk_-3483435762236185300 terminating
081111 073407 23474 INFO dfs.DataNode$PacketResponder: Received block blk_-3483435762236185300 of size 67108864 from /10.251.111.80
081111 073407 23497 INFO dfs.DataNode$PacketResponder: PacketResponder 2 for block blk_-3651864023230092745 terminating
081111 073407 23497 INFO dfs.DataNode$PacketResponder: Received block blk_-3651864023230092745 of size 67108864 from /10.251.39.242
081111 073407 23509 INFO dfs.DataNode$DataXceiver: Receiving block blk_-3883600439716342365 src: /10.251.125.174:50356 dest: /10.251.125.174:50010
081111 073407 23510 INFO dfs.DataNode$DataXceiver: Receiving block blk_7315454658512280622 src: /10.251.39.242:43527 dest: /10.251.39.242:50010
081111 073407 23523 INFO dfs.DataNode$PacketResponder: PacketResponder 2 for block blk_8877494245758419519 terminating
081111 073407 23523 INFO dfs.DataNode$PacketResponder: Received block blk_8877494245758419519 of size 67108864 from /10.251.106.37
081111 073407 23545 INFO dfs.DataNode$PacketResponder: PacketResponder 0 for block blk_-3651864023230092745 terminating
081111 073407 23545 INFO dfs.DataNode$PacketResponder: Received block blk_-3651864023230092745 of size 67108864 from /10.251.70.37
081111 073407 23546 INFO dfs.DataNode$DataXceiver: Receiving block blk_-4399113482103728945 src: /10.251.106.37:39398 dest: /10.251.106.37:50010
081111 073407 23547 INFO dfs.DataNode$PacketResponder: PacketResponder 1 for block blk_8877494245758419519 terminating
081111 073407 23547 INFO dfs.DataNode$PacketResponder: Received block blk_8877494245758419519 of size 67108864 from /10.251.106.37
081111 073407 23581 INFO dfs.DataNode$PacketResponder: PacketResponder 0 for block blk_865906825506414868 terminating
081111 073407 23581 INFO dfs.DataNode$PacketResponder: Received block blk_865906825506414868 of size 67108864 from /10.251.198.196
081111 073407 23683 INFO dfs.DataNode$PacketResponder: PacketResponder 0 for block blk_-4453794278794179526 terminating
081111 073407 23683 INFO dfs.DataNode$PacketResponder: Received block blk_-4453794278794179526 of size 67108864 from /10.250.13.240
081111 073407 23728 INFO dfs.DataNode$DataXceiver: Receiving block blk_-7407182797425504196 src: /10.251.43.115:53133 dest: /10.251.43.115:50010
081111 073407 23729 INFO dfs.DataNode$DataXceiver: Receiving block blk_7882916427077883663 src: /10.251.214.112:49121 dest: /10.251.214.112:50010
081111 073407 26 INFO dfs.FSNamesystem: BLOCK* NameSystem.addStoredBlock: blockMap updated: 10.251.122.38:50010 is added to blk_192209024284812768 size 67108864
081111 073407 26 INFO dfs.FSNamesystem: BLOCK* NameSystem.allocateBlock: /user/root/rand6/_temporary/_task_200811101024_0013_m_001447_0/part-01447. blk_-4399113482103728945
081111 073407 27 INFO dfs.FSNamesystem: BLOCK* NameSystem.addStoredBlock: blockMap updated: 10.251.106.37:50010 is added to blk_-3006647674003722574 size 67108864
081111 073407 27 INFO dfs.FSNamesystem: BLOCK* NameSystem.allocateBlock: /user/root/rand6/_temporary/_task_200811101024_0013_m_001189_0/part-01189. blk_7315454658512280622
081111 073407 28 INFO dfs.FSNamesystem: BLOCK* NameSystem.addStoredBlock: blockMap updated: 10.251.194.147:50010 is added to blk_-1113529844255343444 size 67108864
081111 073407 28 INFO dfs.FSNamesystem: BLOCK* NameSystem.addStoredBlock: blockMap updated: 10.251.195.33:50010 is added to blk_-3651864023230092745 size 67108864
081111 073407 28 INFO dfs.FSNamesystem: BLOCK* NameSystem.addStoredBlock: blockMap updated: 10.251.195.33:50010 is added to blk_8877494245758419519 size 67108864
081111 073407 28 INFO dfs.FSNamesystem: BLOCK* NameSystem.addStoredBlock: blockMap updated: 10.251.70.112:50010 is added to blk_-2214715725667762234 size 67108864
081111 073407 28 INFO dfs.FSNamesystem: BLOCK* NameSystem.allocateBlock: /user/root/rand6/_temporary/_task_200811101024_0013_m_001290_0/part-01290. blk_3714254067457706495
081111 073407 28 INFO dfs.FSNamesystem: BLOCK* NameSystem.allocateBlock: /user/root/rand6/_temporary/_task_200811101024_0013_m_001390_0/part-01390. blk_-6562087612221041699
081111 073407 29 INFO dfs.FSNamesystem: BLOCK* NameSystem.addStoredBlock: blockMap updated: 10.250.11.85:50010 is added to blk_-3483435762236185300 size 67108864
081111 073407 29 INFO dfs.FSNamesystem: BLOCK* NameSystem.addStoredBlock: blockMap updated: 10.250.11.85:50010 is added to blk_966528670482980248 size 67108864
081111 073407 29 INFO dfs.FSNamesystem: BLOCK* NameSystem.addStoredBlock: blockMap updated: 10.251.193.224:50010 is added to blk_2014263734420610408 size 67108864
081111 073407 29 INFO dfs.FSNamesystem: BLOCK* NameSystem.allocateBlock: /user/root/rand6/_temporary/_task_200811101024_0013_m_001298_0/part-01298. blk_-8196862140707545598
081111 073407 29 INFO dfs.FSNamesystem: BLOCK* NameSystem.allocateBlock: /user/root/rand6/_temporary/_task_200811101024_0013_m_001518_0/part-01518. blk_-1774693462133848013
081111 073407 30 INFO dfs.FSNamesystem: BLOCK* NameSystem.addStoredBlock: blockMap updated: 10.251.106.37:50010 is added to blk_8877494245758419519 size 67108864
081111 073407 30 INFO dfs.FSNamesystem: BLOCK* NameSystem.addStoredBlock: blockMap updated: 10.251.126.227:50010 is added to blk_2343094396262623856 size 67108864
081111 073407 30 INFO dfs.FSNamesystem: BLOCK* NameSystem.addStoredBlock: blockMap updated: 10.251.42.84:50010 is added to blk_-3483435762236185300 size 67108864
081111 073407 30 INFO dfs.FSNamesystem: BLOCK* NameSystem.addStoredBlock: blockMap updated: 10.251.70.5:50010 is added to blk_2014263734420610408 size 67108864
081111 073407 31 INFO dfs.FSNamesystem: BLOCK* NameSystem.addStoredBlock: blockMap updated: 10.250.14.224:50010 is added to blk_-7750228703536169523 size 67108864
081111 073407 31 INFO dfs.FSNamesystem: BLOCK* NameSystem.addStoredBlock: blockMap updated: 10.251.70.211:50010 is added to blk_-4453794278794179526 size 67108864
081111 073407 32 INFO dfs.FSNamesystem: BLOCK* NameSystem.addStoredBlock: blockMap updated: 10.250.10.144:50010 is added to blk_-4453794278794179526 size 67108864
081111 073407 32 INFO dfs.FSNamesystem: BLOCK* NameSystem.addStoredBlock: blockMap updated: 10.251.106.10:50010 is added to blk_-7750228703536169523 size 67108864
081111 073407 32 INFO dfs.FSNamesystem: BLOCK* NameSystem.addStoredBlock: blockMap updated: 10.251.70.37:50010 is added to blk_-3651864023230092745 size 67108864
081111 073407 32 INFO dfs.FSNamesystem: BLOCK* NameSystem.addStoredBlock: blockMap updated: 10.251.75.143:50010 is added to blk_-2214715725667762234 size 67108864
081111 073407 33 INFO dfs.FSNamesystem: BLOCK* NameSystem.addStoredBlock: blockMap updated: 10.250.7.146:50010 is added to blk_-1113529844255343444 size 67108864
081111 073407 33 INFO dfs.FSNamesystem: BLOCK* NameSystem.addStoredBlock: blockMap updated: 10.251.107.196:50010 is added to blk_192209024284812768 size 67108864
081111 073407 33 INFO dfs.FSNamesystem: BLOCK* NameSystem.addStoredBlock: blockMap updated: 10.251.30.85:50010 is added to blk_2343094396262623856 size 67108864
081111 073407 33 INFO dfs.FSNamesystem: BLOCK* NameSystem.addStoredBlock: blockMap updated: 10.251.39.242:50010 is added to blk_-3651864023230092745 size 67108864
081111 073407 33 INFO dfs.FSNamesystem: BLOCK* NameSystem.addStoredBlock: blockMap updated: 10.251.70.211:50010 is added to blk_-3511610531813768318 size 67108864
081111 073407 33 INFO dfs.FSNamesystem: BLOCK* NameSystem.allocateBlock: /user/root/rand6/_temporary/_task_200811101024_0013_m_001284_0/part-01284. blk_-2755815458196312846
081111 073407 34 INFO dfs.FSNamesystem: BLOCK* NameSystem.addStoredBlock: blockMap updated: 10.250.13.240:50010 is added to blk_-4453794278794179526 size 67108864
081111 073407 34 INFO dfs.FSNamesystem: BLOCK* NameSystem.addStoredBlock: blockMap updated: 10.250.17.177:50010 is added to blk_-2214715725667762234 size 67108864
081111 073407 34 INFO dfs.FSNamesystem: BLOCK* NameSystem.addStoredBlock: blockMap updated: 10.250.7.32:50010 is added to blk_966528670482980248 size 67108864
081111 073407 34 INFO dfs.FSNamesystem: BLOCK* NameSystem.addStoredBlock: blockMap updated: 10.251.122.65:50010 is added to blk_966528670482980248 size 67108864
081111 073407 34 INFO dfs.FSNamesystem: BLOCK* NameSystem.addStoredBlock: blockMap updated: 10.251.123.99:50010 is added to blk_192209024284812768 size 67108864
081111 073407 34 INFO dfs.FSNamesystem: BLOCK* NameSystem.addStoredBlock: blockMap updated: 10.251.193.224:50010 is added to blk_-3511610531813768318 size 67108864
081111 073407 34 INFO dfs.FSNamesystem: BLOCK* NameSystem.allocateBlock: /user/root/rand6/_temporary/_task_200811101024_0013_m_001341_0/part-01341. blk_571408198764033610
081111 073407 34 INFO dfs.FSNamesystem: BLOCK* NameSystem.allocateBlock: /user/root/rand6/_temporary/_task_200811101024_0013_m_001343_0/part-01343. blk_1111484771707959336
081111 073407 35 INFO dfs.FSNamesystem: BLOCK* NameSystem.addStoredBlock: blockMap updated: 10.251.67.4:50010 is added to blk_-7750228703536169523 size 67108864
081111 073407 35 INFO dfs.FSNamesystem: BLOCK* NameSystem.allocateBlock: /user/root/rand6/_temporary/_task_200811101024_0013_m_001483_0/part-01483. blk_-3883600439716342365
081111 073408 13 INFO dfs.DataBlockScanner: Verification succeeded for blk_6352631436812221709
081111 073408 22841 INFO dfs.DataNode$PacketResponder: PacketResponder 1 for block blk_-6926293346701484702 terminating
081111 073408 22841 INFO dfs.DataNode$PacketResponder: Received block blk_-6926293346701484702 of size 67108864 from /10.250.7.230
081111 073408 23054 INFO dfs.DataNode$PacketResponder: PacketResponder 1 for block blk_865906825506414868 terminating
081111 073408 23054 INFO dfs.DataNode$PacketResponder: Received block blk_865906825506414868 of size 67108864 from /10.251.38.197
081111 073408 23074 INFO dfs.DataNode$DataXceiver: Receiving block blk_-2755815458196312846 src: /10.251.215.70:55071 dest: /10.251.215.70:50010
081111 073408 23143 INFO dfs.DataNode$DataXceiver: Receiving block blk_-1774693462133848013 src: /10.250.17.177:49281 dest: /10.250.17.177:50010
081111 073408 23163 INFO dfs.DataNode$PacketResponder: PacketResponder 0 for block blk_-8983013606456385234 terminating
081111 073408 23163 INFO dfs.DataNode$PacketResponder: Received block blk_-8983013606456385234 of size 67108864 from /10.251.30.179
081111 073408 23176 INFO dfs.DataNode$PacketResponder: PacketResponder 2 for block blk_-8983013606456385234 terminating
081111 073408 23176 INFO dfs.DataNode$PacketResponder: Received block blk_-8983013606456385234 of size 67108864 from /10.251.106.214
081111 073408 23190 INFO dfs.DataNode$DataXceiver: Receiving block blk_-4300118579427584943 src: /10.250.7.230:45995 dest: /10.250.7.230:50010
081111 073408 23197 INFO dfs.DataNode$DataXceiver: Receiving block blk_-8279424041629437673 src: /10.251.106.214:55643 dest: /10.251.106.214:50010
081111 073408 23230 INFO dfs.DataNode$PacketResponder: PacketResponder 0 for block blk_3115863966079698168 terminating
081111 073408 23230 INFO dfs.DataNode$PacketResponder: Received block blk_3115863966079698168 of size 67108864 from /10.251.66.63
081111 073408 23241 INFO dfs.DataNode$DataXceiver: Receiving block blk_-8279424041629437673 src: /10.251.106.214:46438 dest: /10.251.106.214:50010
081111 073408 23242 INFO dfs.DataNode$DataXceiver: Receiving block blk_-3189037963739243508 src: /10.251.199.86:55705 dest: /10.251.199.86:50010
081111 073408 23250 INFO dfs.DataNode$DataXceiver: Receiving block blk_-1774693462133848013 src: /10.250.17.177:42295 dest: /10.250.17.177:50010
081111 073408 23267 INFO dfs.DataNode$DataXceiver: Receiving block blk_7315454658512280622 src: /10.251.203.129:45705 dest: /10.251.203.129:50010
081111 073408 23268 INFO dfs.DataNode$DataXceiver: Receiving block blk_7293893161685642335 src: /10.250.10.213:38226 dest: /10.250.10.213:50010
081111 073408 23272 INFO dfs.DataNode$PacketResponder: PacketResponder 1 for block blk_-8983013606456385234 terminating
081111 073408 23272 INFO dfs.DataNode$PacketResponder: Received block blk_-8983013606456385234 of size 67108864 from /10.251.106.214
081111 073408 23283 INFO dfs.DataNode$DataXceiver: Receiving block blk_-2755815458196312846 src: /10.251.126.227:42906 dest: /10.251.126.227:50010
081111 073408 23289 INFO dfs.DataNode$PacketResponder: PacketResponder 0 for block blk_-715594327068299279 terminating
081111 073408 23289 INFO dfs.DataNode$PacketResponder: Received block blk_-715594327068299279 of size 67108864 from /10.251.75.143
081111 073408 23293 INFO dfs.DataNode$PacketResponder: PacketResponder 0 for block blk_8013371115581429141 terminating
081111 073408 23293 INFO dfs.DataNode$PacketResponder: Received block blk_8013371115581429141 of size 67108864 from /10.250.10.6
081111 073408 23297 INFO dfs.DataNode$DataXceiver: Receiving block blk_127863312854829504 src: /10.251.70.211:49433 dest: /10.251.70.211:50010
081111 073408 23302 INFO dfs.DataNode$PacketResponder: PacketResponder 0 for block blk_6137882747713415384 terminating
081111 073408 23302 INFO dfs.DataNode$PacketResponder: Received block blk_6137882747713415384 of size 67108864 from /10.251.89.155
081111 073408 23304 INFO dfs.DataNode$DataXceiver: Receiving block blk_-8279424041629437673 src: /10.251.65.203:47496 dest: /10.251.65.203:50010
081111 073408 23306 INFO dfs.DataNode$DataXceiver: Receiving block blk_-4399113482103728945 src: /10.251.70.112:45242 dest: /10.251.70.112:50010
081111 073408 23313 INFO dfs.DataNode$DataXceiver: Receiving block blk_-8196862140707545598 src: /10.250.6.4:43194 dest: /10.250.6.4:50010
081111 073408 23315 INFO dfs.DataNode$DataXceiver: Receiving block blk_-4300118579427584943 src: /10.251.90.134:55122 dest: /10.251.90.134:50010
081111 073408 23317 INFO dfs.DataNode$DataXceiver: Receiving block blk_3714254067457706495 src: /10.250.10.213:44076 dest: /10.250.10.213:50010
081111 073408 23323 INFO dfs.DataNode$PacketResponder: PacketResponder 0 for block blk_-6823062418772266425 terminating
081111 073408 23323 INFO dfs.DataNode$PacketResponder: Received block blk_-6823062418772266425 of size 67108864 from /10.251.111.80
081111 073408 23330 INFO dfs.DataNode$DataXceiver: Receiving block blk_-5269755473823358073 src: /10.250.10.223:42851 dest: /10.250.10.223:50010
081111 073408 23343 INFO dfs.DataNode$PacketResponder: PacketResponder 2 for block blk_-1113529844255343444 terminating
081111 073408 23343 INFO dfs.DataNode$PacketResponder: Received block blk_-1113529844255343444 of size 67108864 from /10.250.10.213
081111 073408 23357 INFO dfs.DataNode$PacketResponder: PacketResponder 1 for block blk_8013371115581429141 terminating
081111 073408 23357 INFO dfs.DataNode$PacketResponder: Received block blk_8013371115581429141 of size 67108864 from /10.250.10.144
081111 073408 23362 INFO dfs.DataNode$DataXceiver: Receiving block blk_3714254067457706495 src: /10.251.122.65:40048 dest: /10.251.122.65:50010
081111 073408 23363 INFO dfs.DataNode$DataXceiver: Receiving block blk_-4602911673810008773 src: /10.251.91.84:46360 dest: /10.251.91.84:50010
081111 073408 23364 INFO dfs.DataNode$DataXceiver: Receiving block blk_7293893161685642335 src: /10.250.10.213:54622 dest: /10.250.10.213:50010
081111 073408 23383 INFO dfs.DataNode$DataXceiver: Receiving block blk_-8196862140707545598 src: /10.250.6.4:37099 dest: /10.250.6.4:50010
081111 073408 23415 INFO dfs.DataNode$DataXceiver: Receiving block blk_-6562087612221041699 src: /10.251.214.130:53489 dest: /10.251.214.130:50010
081111 073408 23416 INFO dfs.DataNode$DataXceiver: Receiving block blk_-4399113482103728945 src: /10.251.106.37:57582 dest: /10.251.106.37:50010
081111 073408 23424 INFO dfs.DataNode$PacketResponder: PacketResponder 2 for block blk_2014263734420610408 terminating
081111 073408 23424 INFO dfs.DataNode$PacketResponder: Received block blk_2014263734420610408 of size 67108864 from /10.250.11.100
081111 073408 23431 INFO dfs.DataNode$DataXceiver: Receiving block blk_-8472844381449099665 src: /10.250.11.100:39951 dest: /10.250.11.100:50010
081111 073408 23432 INFO dfs.DataNode$DataXceiver: Receiving block blk_-2755815458196312846 src: /10.251.126.227:35825 dest: /10.251.126.227:50010
081111 073408 23433 INFO dfs.DataNode$DataXceiver: Receiving block blk_127863312854829504 src: /10.251.70.211:37419 dest: /10.251.70.211:50010
081111 073408 23459 INFO dfs.DataNode$PacketResponder: PacketResponder 2 for block blk_865906825506414868 terminating
081111 073408 23459 INFO dfs.DataNode$PacketResponder: Received block blk_865906825506414868 of size 67108864 from /10.251.38.197
081111 073408 23472 INFO dfs.DataNode$DataXceiver: Receiving block blk_-4602911673810008773 src: /10.251.38.197:51545 dest: /10.251.38.197:50010
081111 073408 23473 INFO dfs.DataNode$PacketResponder: PacketResponder 2 for block blk_-3511610531813768318 terminating
081111 073408 23473 INFO dfs.DataNode$PacketResponder: Received block blk_-3511610531813768318 of size 67108864 from /10.251.127.47
081111 073408 23482 INFO dfs.DataNode$PacketResponder: PacketResponder 2 for block blk_-6926293346701484702 terminating
081111 073408 23482 INFO dfs.DataNode$PacketResponder: Received block blk_-6926293346701484702 of size 67108864 from /10.250.7.230
081111 073408 23493 INFO dfs.DataNode$DataXceiver: Receiving block blk_-3577711210829891103 src: /10.251.127.47:59796 dest: /10.251.127.47:50010
081111 073408 23496 INFO dfs.DataNode$DataXceiver: Receiving block blk_-4602911673810008773 src: /10.251.38.197:55494 dest: /10.251.38.197:50010
081111 073408 23499 INFO dfs.DataNode$DataXceiver: Receiving block blk_-4300118579427584943 src: /10.250.7.230:36419 dest: /10.250.7.230:50010
081111 073408 23511 INFO dfs.DataNode$PacketResponder: PacketResponder 1 for block blk_6137882747713415384 terminating
081111 073408 23511 INFO dfs.DataNode$PacketResponder: Received block blk_6137882747713415384 of size 67108864 from /10.251.199.86
081111 073408 23536 INFO dfs.DataNode$DataXceiver: Receiving block blk_-5269755473823358073 src: /10.250.10.223:47398 dest: /10.250.10.223:50010
081111 073408 23545 INFO dfs.DataNode$DataXceiver: Receiving block blk_3426710938341551959 src: /10.251.71.16:49205 dest: /10.251.71.16:50010
081111 073408 23590 INFO dfs.DataNode$DataXceiver: Receiving block blk_-8196862140707545598 src: /10.251.199.150:51660 dest: /10.251.199.150:50010
081111 073408 23610 INFO dfs.DataNode$PacketResponder: PacketResponder 2 for block blk_6137882747713415384 terminating
081111 073408 23610 INFO dfs.DataNode$PacketResponder: Received block blk_6137882747713415384 of size 67108864 from /10.251.199.86
081111 073408 23619 INFO dfs.DataNode$DataXceiver: Receiving block blk_-3189037963739243508 src: /10.251.199.86:41229 dest: /10.251.199.86:50010
081111 073408 23619 INFO dfs.DataNode$PacketResponder: PacketResponder 0 for block blk_4779979438841412091 terminating
081111 073408 23619 INFO dfs.DataNode$PacketResponder: Received block blk_4779979438841412091 of size 67108864 from /10.251.110.68
081111 073408 23622 INFO dfs.DataNode$DataXceiver: Receiving block blk_-3189037963739243508 src: /10.251.65.203:33628 dest: /10.251.65.203:50010
081111 073408 23687 INFO dfs.DataNode$PacketResponder: PacketResponder 2 for block blk_8013371115581429141 terminating
081111 073408 23687 INFO dfs.DataNode$PacketResponder: Received block blk_8013371115581429141 of size 67108864 from /10.250.10.144
081111 073408 26 INFO dfs.FSNamesystem: BLOCK* NameSystem.addStoredBlock: blockMap updated: 10.251.75.79:50010 is added to blk_865906825506414868 size 67108864
081111 073408 26 INFO dfs.FSNamesystem: BLOCK* NameSystem.allocateBlock: /user/root/rand6/_temporary/_task_200811101024_0013_m_001386_0/part-01386. blk_-4602911673810008773
081111 073408 27 INFO dfs.FSNamesystem: BLOCK* NameSystem.addStoredBlock: blockMap updated: 10.251.125.174:50010 is added to blk_-715594327068299279 size 67108864
081111 073408 27 INFO dfs.FSNamesystem: BLOCK* NameSystem.addStoredBlock: blockMap updated: 10.251.30.179:50010 is added to blk_-8983013606456385234 size 67108864
081111 073408 27 INFO dfs.FSNamesystem: BLOCK* NameSystem.allocateBlock: /user/root/rand6/_temporary/_task_200811101024_0013_m_001417_0/part-01417. blk_127863312854829504
081111 073408 28 INFO dfs.FSNamesystem: BLOCK* NameSystem.addStoredBlock: blockMap updated: 10.250.10.213:50010 is added to blk_-1113529844255343444 size 67108864
081111 073408 28 INFO dfs.FSNamesystem: BLOCK* NameSystem.addStoredBlock: blockMap updated: 10.251.111.130:50010 is added to blk_-6823062418772266425 size 67108864
081111 073408 28 INFO dfs.FSNamesystem: BLOCK* NameSystem.addStoredBlock: blockMap updated: 10.251.199.86:50010 is added to blk_6137882747713415384 size 67108864
081111 073408 28 INFO dfs.FSNamesystem: BLOCK* NameSystem.addStoredBlock: blockMap updated: 10.251.75.143:50010 is added to blk_-715594327068299279 size 67108864
081111 073408 29 INFO dfs.FSNamesystem: BLOCK* NameSystem.addStoredBlock: blockMap updated: 10.250.6.4:50010 is added to blk_-3585573312481733012 size 67108864
081111 073408 29 INFO dfs.FSNamesystem: BLOCK* NameSystem.addStoredBlock: blockMap updated: 10.251.106.214:50010 is added to blk_-8983013606456385234 size 67108864
081111 073408 29 INFO dfs.FSNamesystem: BLOCK* NameSystem.allocateBlock: /user/root/rand6/_temporary/_task_200811101024_0013_m_001404_0/part-01404. blk_7293893161685642335
081111 073408 31 INFO dfs.FSNamesystem: BLOCK* NameSystem.addStoredBlock: blockMap updated: 10.251.199.150:50010 is added to blk_6137882747713415384 size 67108864
081111 073408 31 INFO dfs.FSNamesystem: BLOCK* NameSystem.addStoredBlock: blockMap updated: 10.251.203.129:50010 is added to blk_-6926293346701484702 size 67108864
081111 073408 31 INFO dfs.FSNamesystem: BLOCK* NameSystem.allocateBlock: /user/root/rand6/_temporary/_task_200811101024_0013_m_001392_0/part-01392. blk_-3577711210829891103
081111 073408 31 INFO dfs.FSNamesystem: BLOCK* NameSystem.allocateBlock: /user/root/rand6/_temporary/_task_200811101024_0013_m_001436_0/part-01436. blk_-8279424041629437673
081111 073408 32 INFO dfs.FSNamesystem: BLOCK* NameSystem.addStoredBlock: blockMap updated: 10.250.7.230:50010 is added to blk_-6926293346701484702 size 67108864
081111 073408 32 INFO dfs.FSNamesystem: BLOCK* NameSystem.addStoredBlock: blockMap updated: 10.251.111.80:50010 is added to blk_-3483435762236185300 size 67108864
081111 073408 33 INFO dfs.FSNamesystem: BLOCK* NameSystem.addStoredBlock: blockMap updated: 10.251.38.197:50010 is added to blk_865906825506414868 size 67108864
081111 073408 33 INFO dfs.FSNamesystem: BLOCK* NameSystem.allocateBlock: /user/root/rand6/_temporary/_task_200811101024_0013_m_001576_0/part-01576. blk_-5269755473823358073
081111 073408 34 INFO dfs.FSNamesystem: BLOCK* NameSystem.addStoredBlock: blockMap updated: 10.250.10.144:50010 is added to blk_8013371115581429141 size 67108864
081111 073408 34 INFO dfs.FSNamesystem: BLOCK* NameSystem.addStoredBlock: blockMap updated: 10.250.10.6:50010 is added to blk_-6926293346701484702 size 67108864
081111 073408 34 INFO dfs.FSNamesystem: BLOCK* NameSystem.addStoredBlock: blockMap updated: 10.250.11.100:50010 is added to blk_2014263734420610408 size 67108864
081111 073408 34 INFO dfs.FSNamesystem: BLOCK* NameSystem.addStoredBlock: blockMap updated: 10.251.107.19:50010 is added to blk_4779979438841412091 size 67108864
081111 073408 34 INFO dfs.FSNamesystem: BLOCK* NameSystem.addStoredBlock: blockMap updated: 10.251.194.213:50010 is added to blk_8013371115581429141 size 67108864
081111 073408 34 INFO dfs.FSNamesystem: BLOCK* NameSystem.allocateBlock: /user/root/rand6/_temporary/_task_200811101024_0013_m_001197_0/part-01197. blk_-3189037963739243508
081111 073408 34 INFO dfs.FSNamesystem: BLOCK* NameSystem.allocateBlock: /user/root/rand6/_temporary/_task_200811101024_0013_m_001387_0/part-01387. blk_-8472844381449099665
081111 073408 34 INFO dfs.FSNamesystem: BLOCK* NameSystem.allocateBlock: /user/root/rand6/_temporary/_task_200811101024_0013_m_001419_0/part-01419. blk_-4300118579427584943
081111 073408 35 INFO dfs.FSNamesystem: BLOCK* NameSystem.addStoredBlock: blockMap updated: 10.250.10.6:50010 is added to blk_8013371115581429141 size 67108864
081111 073408 35 INFO dfs.FSNamesystem: BLOCK* NameSystem.addStoredBlock: blockMap updated: 10.250.11.85:50010 is added to blk_-8983013606456385234 size 67108864
081111 073408 35 INFO dfs.FSNamesystem: BLOCK* NameSystem.addStoredBlock: blockMap updated: 10.251.127.47:50010 is added to blk_-3511610531813768318 size 67108864
081111 073408 35 INFO dfs.FSNamesystem: BLOCK* NameSystem.addStoredBlock: blockMap updated: 10.251.198.196:50010 is added to blk_865906825506414868 size 67108864
081111 073408 35 INFO dfs.FSNamesystem: BLOCK* NameSystem.addStoredBlock: blockMap updated: 10.251.65.203:50010 is added to blk_3115863966079698168 size 67108864
081111 073408 35 INFO dfs.FSNamesystem: BLOCK* NameSystem.addStoredBlock: blockMap updated: 10.251.89.155:50010 is added to blk_6137882747713415384 size 67108864
081111 073409 13 INFO dfs.DataBlockScanner: Verification succeeded for blk_-22517725799393463
081111 073409 23019 INFO dfs.DataNode$DataXceiver: Receiving block blk_-338466090405444638 src: /10.251.121.224:47529 dest: /10.251.121.224:50010
081111 073409 23022 INFO dfs.DataNode$PacketResponder: PacketResponder 2 for block blk_-1794524797508908826 terminating
081111 073409 23022 INFO dfs.DataNode$PacketResponder: Received block blk_-1794524797508908826 of size 67108864 from /10.251.201.204
081111 073409 23029 INFO dfs.DataNode$DataXceiver: Receiving block blk_2421635270392289823 src: /10.251.201.204:37870 dest: /10.251.201.204:50010
081111 073409 23099 INFO dfs.DataNode$PacketResponder: PacketResponder 2 for block blk_2079503837302308520 terminating
081111 073409 23099 INFO dfs.DataNode$PacketResponder: Received block blk_2079503837302308520 of size 67108864 from /10.251.107.227
081111 073409 23104 INFO dfs.DataNode$DataXceiver: Receiving block blk_-4398131849883910731 src: /10.251.107.227:43335 dest: /10.251.107.227:50010
